
	/* Automatically generated by xptcstubs_asm_shle.py */
	.text
	.little
	.section	.rodata

	.globl SharedStub
	.type  SharedStub, @function
SharedStub:
	mov	   r15, r1
	mov.l	r14,@-r15	
	sts.l	pr,@-r15
	mov		r15, r14

	/* Some parameters might have been passed in registers, so push them
	 * all onto the stack, PrepareAndDispatch can then work out whats what
	 * given method type information.
	 */
	mov.l r7, @-r15
	mov.l r6, @-r15
	mov.l r5, @-r15
	mov	  r15, r7		/* r7 = PrepareAndDispatch intRegParams param	*/

	fmov.s fr10, @-r15
	fmov.s fr11, @-r15
	fmov.s fr8, @-r15
	fmov.s fr9, @-r15
	fmov.s fr6, @-r15
	fmov.s fr7, @-r15
	fmov.s fr4, @-r15
	fmov.s fr5, @-r15
	mov.l  r15, @-r15	/* PrepareAndDispatch floatRegParams param		*/

	mov	   r1, r6		/* r6 = PrepareAndDispatch data param			*/

	mov.l  .L1, r1
	jsr	   @r1			/* Note, following instruction is executed first*/
	mov	   r2, r5		/* r5 = PrepareAndDispatch methodIndex param	*/

	mov		r14,r15
	lds.l	@r15+,pr
	mov.l	@r15+,r14
	rts
	nop
	.align 2
.L1:
	.long  PrepareAndDispatch

	/* Stubs.  Each stub simply saves the method number in r1 and jumps
	 * to SharedStub which does all the processing common to all stubs.
	 */
	.globl _ZN14nsXPTCStubBase5Stub3Ev
	.type _ZN14nsXPTCStubBase5Stub3Ev  @function
	.align 1
_ZN14nsXPTCStubBase5Stub3Ev:
	mov.l	.L2, r1
	jmp	@r1
	mov	#3, r2		/* Executed before jmp */

	.globl _ZN14nsXPTCStubBase5Stub4Ev
	.type _ZN14nsXPTCStubBase5Stub4Ev  @function
	.align 1
_ZN14nsXPTCStubBase5Stub4Ev:
	mov.l	.L2, r1
	jmp	@r1
	mov	#4, r2		/* Executed before jmp */

	.globl _ZN14nsXPTCStubBase5Stub5Ev
	.type _ZN14nsXPTCStubBase5Stub5Ev  @function
	.align 1
_ZN14nsXPTCStubBase5Stub5Ev:
	mov.l	.L2, r1
	jmp	@r1
	mov	#5, r2		/* Executed before jmp */

	.globl _ZN14nsXPTCStubBase5Stub6Ev
	.type _ZN14nsXPTCStubBase5Stub6Ev  @function
	.align 1
_ZN14nsXPTCStubBase5Stub6Ev:
	mov.l	.L2, r1
	jmp	@r1
	mov	#6, r2		/* Executed before jmp */

	.globl _ZN14nsXPTCStubBase5Stub7Ev
	.type _ZN14nsXPTCStubBase5Stub7Ev  @function
	.align 1
_ZN14nsXPTCStubBase5Stub7Ev:
	mov.l	.L2, r1
	jmp	@r1
	mov	#7, r2		/* Executed before jmp */

	.globl _ZN14nsXPTCStubBase5Stub8Ev
	.type _ZN14nsXPTCStubBase5Stub8Ev  @function
	.align 1
_ZN14nsXPTCStubBase5Stub8Ev:
	mov.l	.L2, r1
	jmp	@r1
	mov	#8, r2		/* Executed before jmp */

	.globl _ZN14nsXPTCStubBase5Stub9Ev
	.type _ZN14nsXPTCStubBase5Stub9Ev  @function
	.align 1
_ZN14nsXPTCStubBase5Stub9Ev:
	mov.l	.L2, r1
	jmp	@r1
	mov	#9, r2		/* Executed before jmp */

	.globl _ZN14nsXPTCStubBase6Stub10Ev
	.type _ZN14nsXPTCStubBase6Stub10Ev  @function
	.align 1
_ZN14nsXPTCStubBase6Stub10Ev:
	mov.l	.L2, r1
	jmp	@r1
	mov	#10, r2		/* Executed before jmp */

	.globl _ZN14nsXPTCStubBase6Stub11Ev
	.type _ZN14nsXPTCStubBase6Stub11Ev  @function
	.align 1
_ZN14nsXPTCStubBase6Stub11Ev:
	mov.l	.L2, r1
	jmp	@r1
	mov	#11, r2		/* Executed before jmp */

	.globl _ZN14nsXPTCStubBase6Stub12Ev
	.type _ZN14nsXPTCStubBase6Stub12Ev  @function
	.align 1
_ZN14nsXPTCStubBase6Stub12Ev:
	mov.l	.L2, r1
	jmp	@r1
	mov	#12, r2		/* Executed before jmp */

	.globl _ZN14nsXPTCStubBase6Stub13Ev
	.type _ZN14nsXPTCStubBase6Stub13Ev  @function
	.align 1
_ZN14nsXPTCStubBase6Stub13Ev:
	mov.l	.L2, r1
	jmp	@r1
	mov	#13, r2		/* Executed before jmp */

	.globl _ZN14nsXPTCStubBase6Stub14Ev
	.type _ZN14nsXPTCStubBase6Stub14Ev  @function
	.align 1
_ZN14nsXPTCStubBase6Stub14Ev:
	mov.l	.L2, r1
	jmp	@r1
	mov	#14, r2		/* Executed before jmp */

	.globl _ZN14nsXPTCStubBase6Stub15Ev
	.type _ZN14nsXPTCStubBase6Stub15Ev  @function
	.align 1
_ZN14nsXPTCStubBase6Stub15Ev:
	mov.l	.L2, r1
	jmp	@r1
	mov	#15, r2		/* Executed before jmp */

	.globl _ZN14nsXPTCStubBase6Stub16Ev
	.type _ZN14nsXPTCStubBase6Stub16Ev  @function
	.align 1
_ZN14nsXPTCStubBase6Stub16Ev:
	mov.l	.L2, r1
	jmp	@r1
	mov	#16, r2		/* Executed before jmp */

	.globl _ZN14nsXPTCStubBase6Stub17Ev
	.type _ZN14nsXPTCStubBase6Stub17Ev  @function
	.align 1
_ZN14nsXPTCStubBase6Stub17Ev:
	mov.l	.L2, r1
	jmp	@r1
	mov	#17, r2		/* Executed before jmp */

	.globl _ZN14nsXPTCStubBase6Stub18Ev
	.type _ZN14nsXPTCStubBase6Stub18Ev  @function
	.align 1
_ZN14nsXPTCStubBase6Stub18Ev:
	mov.l	.L2, r1
	jmp	@r1
	mov	#18, r2		/* Executed before jmp */

	.globl _ZN14nsXPTCStubBase6Stub19Ev
	.type _ZN14nsXPTCStubBase6Stub19Ev  @function
	.align 1
_ZN14nsXPTCStubBase6Stub19Ev:
	mov.l	.L2, r1
	jmp	@r1
	mov	#19, r2		/* Executed before jmp */

	.globl _ZN14nsXPTCStubBase6Stub20Ev
	.type _ZN14nsXPTCStubBase6Stub20Ev  @function
	.align 1
_ZN14nsXPTCStubBase6Stub20Ev:
	mov.l	.L2, r1
	jmp	@r1
	mov	#20, r2		/* Executed before jmp */

	.globl _ZN14nsXPTCStubBase6Stub21Ev
	.type _ZN14nsXPTCStubBase6Stub21Ev  @function
	.align 1
_ZN14nsXPTCStubBase6Stub21Ev:
	mov.l	.L2, r1
	jmp	@r1
	mov	#21, r2		/* Executed before jmp */

	.align 2
.L2:
	.long	SharedStub

	.globl _ZN14nsXPTCStubBase6Stub22Ev
	.type _ZN14nsXPTCStubBase6Stub22Ev  @function
	.align 1
_ZN14nsXPTCStubBase6Stub22Ev:
	mov.l	.L3, r1
	jmp	@r1
	mov	#22, r2		/* Executed before jmp */

	.globl _ZN14nsXPTCStubBase6Stub23Ev
	.type _ZN14nsXPTCStubBase6Stub23Ev  @function
	.align 1
_ZN14nsXPTCStubBase6Stub23Ev:
	mov.l	.L3, r1
	jmp	@r1
	mov	#23, r2		/* Executed before jmp */

	.globl _ZN14nsXPTCStubBase6Stub24Ev
	.type _ZN14nsXPTCStubBase6Stub24Ev  @function
	.align 1
_ZN14nsXPTCStubBase6Stub24Ev:
	mov.l	.L3, r1
	jmp	@r1
	mov	#24, r2		/* Executed before jmp */

	.globl _ZN14nsXPTCStubBase6Stub25Ev
	.type _ZN14nsXPTCStubBase6Stub25Ev  @function
	.align 1
_ZN14nsXPTCStubBase6Stub25Ev:
	mov.l	.L3, r1
	jmp	@r1
	mov	#25, r2		/* Executed before jmp */

	.globl _ZN14nsXPTCStubBase6Stub26Ev
	.type _ZN14nsXPTCStubBase6Stub26Ev  @function
	.align 1
_ZN14nsXPTCStubBase6Stub26Ev:
	mov.l	.L3, r1
	jmp	@r1
	mov	#26, r2		/* Executed before jmp */

	.globl _ZN14nsXPTCStubBase6Stub27Ev
	.type _ZN14nsXPTCStubBase6Stub27Ev  @function
	.align 1
_ZN14nsXPTCStubBase6Stub27Ev:
	mov.l	.L3, r1
	jmp	@r1
	mov	#27, r2		/* Executed before jmp */

	.globl _ZN14nsXPTCStubBase6Stub28Ev
	.type _ZN14nsXPTCStubBase6Stub28Ev  @function
	.align 1
_ZN14nsXPTCStubBase6Stub28Ev:
	mov.l	.L3, r1
	jmp	@r1
	mov	#28, r2		/* Executed before jmp */

	.globl _ZN14nsXPTCStubBase6Stub29Ev
	.type _ZN14nsXPTCStubBase6Stub29Ev  @function
	.align 1
_ZN14nsXPTCStubBase6Stub29Ev:
	mov.l	.L3, r1
	jmp	@r1
	mov	#29, r2		/* Executed before jmp */

	.globl _ZN14nsXPTCStubBase6Stub30Ev
	.type _ZN14nsXPTCStubBase6Stub30Ev  @function
	.align 1
_ZN14nsXPTCStubBase6Stub30Ev:
	mov.l	.L3, r1
	jmp	@r1
	mov	#30, r2		/* Executed before jmp */

	.globl _ZN14nsXPTCStubBase6Stub31Ev
	.type _ZN14nsXPTCStubBase6Stub31Ev  @function
	.align 1
_ZN14nsXPTCStubBase6Stub31Ev:
	mov.l	.L3, r1
	jmp	@r1
	mov	#31, r2		/* Executed before jmp */

	.globl _ZN14nsXPTCStubBase6Stub32Ev
	.type _ZN14nsXPTCStubBase6Stub32Ev  @function
	.align 1
_ZN14nsXPTCStubBase6Stub32Ev:
	mov.l	.L3, r1
	jmp	@r1
	mov	#32, r2		/* Executed before jmp */

	.globl _ZN14nsXPTCStubBase6Stub33Ev
	.type _ZN14nsXPTCStubBase6Stub33Ev  @function
	.align 1
_ZN14nsXPTCStubBase6Stub33Ev:
	mov.l	.L3, r1
	jmp	@r1
	mov	#33, r2		/* Executed before jmp */

	.globl _ZN14nsXPTCStubBase6Stub34Ev
	.type _ZN14nsXPTCStubBase6Stub34Ev  @function
	.align 1
_ZN14nsXPTCStubBase6Stub34Ev:
	mov.l	.L3, r1
	jmp	@r1
	mov	#34, r2		/* Executed before jmp */

	.globl _ZN14nsXPTCStubBase6Stub35Ev
	.type _ZN14nsXPTCStubBase6Stub35Ev  @function
	.align 1
_ZN14nsXPTCStubBase6Stub35Ev:
	mov.l	.L3, r1
	jmp	@r1
	mov	#35, r2		/* Executed before jmp */

	.globl _ZN14nsXPTCStubBase6Stub36Ev
	.type _ZN14nsXPTCStubBase6Stub36Ev  @function
	.align 1
_ZN14nsXPTCStubBase6Stub36Ev:
	mov.l	.L3, r1
	jmp	@r1
	mov	#36, r2		/* Executed before jmp */

	.globl _ZN14nsXPTCStubBase6Stub37Ev
	.type _ZN14nsXPTCStubBase6Stub37Ev  @function
	.align 1
_ZN14nsXPTCStubBase6Stub37Ev:
	mov.l	.L3, r1
	jmp	@r1
	mov	#37, r2		/* Executed before jmp */

	.globl _ZN14nsXPTCStubBase6Stub38Ev
	.type _ZN14nsXPTCStubBase6Stub38Ev  @function
	.align 1
_ZN14nsXPTCStubBase6Stub38Ev:
	mov.l	.L3, r1
	jmp	@r1
	mov	#38, r2		/* Executed before jmp */

	.globl _ZN14nsXPTCStubBase6Stub39Ev
	.type _ZN14nsXPTCStubBase6Stub39Ev  @function
	.align 1
_ZN14nsXPTCStubBase6Stub39Ev:
	mov.l	.L3, r1
	jmp	@r1
	mov	#39, r2		/* Executed before jmp */

	.globl _ZN14nsXPTCStubBase6Stub40Ev
	.type _ZN14nsXPTCStubBase6Stub40Ev  @function
	.align 1
_ZN14nsXPTCStubBase6Stub40Ev:
	mov.l	.L3, r1
	jmp	@r1
	mov	#40, r2		/* Executed before jmp */

	.globl _ZN14nsXPTCStubBase6Stub41Ev
	.type _ZN14nsXPTCStubBase6Stub41Ev  @function
	.align 1
_ZN14nsXPTCStubBase6Stub41Ev:
	mov.l	.L3, r1
	jmp	@r1
	mov	#41, r2		/* Executed before jmp */

	.align 2
.L3:
	.long	SharedStub

	.globl _ZN14nsXPTCStubBase6Stub42Ev
	.type _ZN14nsXPTCStubBase6Stub42Ev  @function
	.align 1
_ZN14nsXPTCStubBase6Stub42Ev:
	mov.l	.L4, r1
	jmp	@r1
	mov	#42, r2		/* Executed before jmp */

	.globl _ZN14nsXPTCStubBase6Stub43Ev
	.type _ZN14nsXPTCStubBase6Stub43Ev  @function
	.align 1
_ZN14nsXPTCStubBase6Stub43Ev:
	mov.l	.L4, r1
	jmp	@r1
	mov	#43, r2		/* Executed before jmp */

	.globl _ZN14nsXPTCStubBase6Stub44Ev
	.type _ZN14nsXPTCStubBase6Stub44Ev  @function
	.align 1
_ZN14nsXPTCStubBase6Stub44Ev:
	mov.l	.L4, r1
	jmp	@r1
	mov	#44, r2		/* Executed before jmp */

	.globl _ZN14nsXPTCStubBase6Stub45Ev
	.type _ZN14nsXPTCStubBase6Stub45Ev  @function
	.align 1
_ZN14nsXPTCStubBase6Stub45Ev:
	mov.l	.L4, r1
	jmp	@r1
	mov	#45, r2		/* Executed before jmp */

	.globl _ZN14nsXPTCStubBase6Stub46Ev
	.type _ZN14nsXPTCStubBase6Stub46Ev  @function
	.align 1
_ZN14nsXPTCStubBase6Stub46Ev:
	mov.l	.L4, r1
	jmp	@r1
	mov	#46, r2		/* Executed before jmp */

	.globl _ZN14nsXPTCStubBase6Stub47Ev
	.type _ZN14nsXPTCStubBase6Stub47Ev  @function
	.align 1
_ZN14nsXPTCStubBase6Stub47Ev:
	mov.l	.L4, r1
	jmp	@r1
	mov	#47, r2		/* Executed before jmp */

	.globl _ZN14nsXPTCStubBase6Stub48Ev
	.type _ZN14nsXPTCStubBase6Stub48Ev  @function
	.align 1
_ZN14nsXPTCStubBase6Stub48Ev:
	mov.l	.L4, r1
	jmp	@r1
	mov	#48, r2		/* Executed before jmp */

	.globl _ZN14nsXPTCStubBase6Stub49Ev
	.type _ZN14nsXPTCStubBase6Stub49Ev  @function
	.align 1
_ZN14nsXPTCStubBase6Stub49Ev:
	mov.l	.L4, r1
	jmp	@r1
	mov	#49, r2		/* Executed before jmp */

	.globl _ZN14nsXPTCStubBase6Stub50Ev
	.type _ZN14nsXPTCStubBase6Stub50Ev  @function
	.align 1
_ZN14nsXPTCStubBase6Stub50Ev:
	mov.l	.L4, r1
	jmp	@r1
	mov	#50, r2		/* Executed before jmp */

	.globl _ZN14nsXPTCStubBase6Stub51Ev
	.type _ZN14nsXPTCStubBase6Stub51Ev  @function
	.align 1
_ZN14nsXPTCStubBase6Stub51Ev:
	mov.l	.L4, r1
	jmp	@r1
	mov	#51, r2		/* Executed before jmp */

	.globl _ZN14nsXPTCStubBase6Stub52Ev
	.type _ZN14nsXPTCStubBase6Stub52Ev  @function
	.align 1
_ZN14nsXPTCStubBase6Stub52Ev:
	mov.l	.L4, r1
	jmp	@r1
	mov	#52, r2		/* Executed before jmp */

	.globl _ZN14nsXPTCStubBase6Stub53Ev
	.type _ZN14nsXPTCStubBase6Stub53Ev  @function
	.align 1
_ZN14nsXPTCStubBase6Stub53Ev:
	mov.l	.L4, r1
	jmp	@r1
	mov	#53, r2		/* Executed before jmp */

	.globl _ZN14nsXPTCStubBase6Stub54Ev
	.type _ZN14nsXPTCStubBase6Stub54Ev  @function
	.align 1
_ZN14nsXPTCStubBase6Stub54Ev:
	mov.l	.L4, r1
	jmp	@r1
	mov	#54, r2		/* Executed before jmp */

	.globl _ZN14nsXPTCStubBase6Stub55Ev
	.type _ZN14nsXPTCStubBase6Stub55Ev  @function
	.align 1
_ZN14nsXPTCStubBase6Stub55Ev:
	mov.l	.L4, r1
	jmp	@r1
	mov	#55, r2		/* Executed before jmp */

	.globl _ZN14nsXPTCStubBase6Stub56Ev
	.type _ZN14nsXPTCStubBase6Stub56Ev  @function
	.align 1
_ZN14nsXPTCStubBase6Stub56Ev:
	mov.l	.L4, r1
	jmp	@r1
	mov	#56, r2		/* Executed before jmp */

	.globl _ZN14nsXPTCStubBase6Stub57Ev
	.type _ZN14nsXPTCStubBase6Stub57Ev  @function
	.align 1
_ZN14nsXPTCStubBase6Stub57Ev:
	mov.l	.L4, r1
	jmp	@r1
	mov	#57, r2		/* Executed before jmp */

	.globl _ZN14nsXPTCStubBase6Stub58Ev
	.type _ZN14nsXPTCStubBase6Stub58Ev  @function
	.align 1
_ZN14nsXPTCStubBase6Stub58Ev:
	mov.l	.L4, r1
	jmp	@r1
	mov	#58, r2		/* Executed before jmp */

	.globl _ZN14nsXPTCStubBase6Stub59Ev
	.type _ZN14nsXPTCStubBase6Stub59Ev  @function
	.align 1
_ZN14nsXPTCStubBase6Stub59Ev:
	mov.l	.L4, r1
	jmp	@r1
	mov	#59, r2		/* Executed before jmp */

	.globl _ZN14nsXPTCStubBase6Stub60Ev
	.type _ZN14nsXPTCStubBase6Stub60Ev  @function
	.align 1
_ZN14nsXPTCStubBase6Stub60Ev:
	mov.l	.L4, r1
	jmp	@r1
	mov	#60, r2		/* Executed before jmp */

	.globl _ZN14nsXPTCStubBase6Stub61Ev
	.type _ZN14nsXPTCStubBase6Stub61Ev  @function
	.align 1
_ZN14nsXPTCStubBase6Stub61Ev:
	mov.l	.L4, r1
	jmp	@r1
	mov	#61, r2		/* Executed before jmp */

	.align 2
.L4:
	.long	SharedStub

	.globl _ZN14nsXPTCStubBase6Stub62Ev
	.type _ZN14nsXPTCStubBase6Stub62Ev  @function
	.align 1
_ZN14nsXPTCStubBase6Stub62Ev:
	mov.l	.L5, r1
	jmp	@r1
	mov	#62, r2		/* Executed before jmp */

	.globl _ZN14nsXPTCStubBase6Stub63Ev
	.type _ZN14nsXPTCStubBase6Stub63Ev  @function
	.align 1
_ZN14nsXPTCStubBase6Stub63Ev:
	mov.l	.L5, r1
	jmp	@r1
	mov	#63, r2		/* Executed before jmp */

	.globl _ZN14nsXPTCStubBase6Stub64Ev
	.type _ZN14nsXPTCStubBase6Stub64Ev  @function
	.align 1
_ZN14nsXPTCStubBase6Stub64Ev:
	mov.l	.L5, r1
	jmp	@r1
	mov	#64, r2		/* Executed before jmp */

	.globl _ZN14nsXPTCStubBase6Stub65Ev
	.type _ZN14nsXPTCStubBase6Stub65Ev  @function
	.align 1
_ZN14nsXPTCStubBase6Stub65Ev:
	mov.l	.L5, r1
	jmp	@r1
	mov	#65, r2		/* Executed before jmp */

	.globl _ZN14nsXPTCStubBase6Stub66Ev
	.type _ZN14nsXPTCStubBase6Stub66Ev  @function
	.align 1
_ZN14nsXPTCStubBase6Stub66Ev:
	mov.l	.L5, r1
	jmp	@r1
	mov	#66, r2		/* Executed before jmp */

	.globl _ZN14nsXPTCStubBase6Stub67Ev
	.type _ZN14nsXPTCStubBase6Stub67Ev  @function
	.align 1
_ZN14nsXPTCStubBase6Stub67Ev:
	mov.l	.L5, r1
	jmp	@r1
	mov	#67, r2		/* Executed before jmp */

	.globl _ZN14nsXPTCStubBase6Stub68Ev
	.type _ZN14nsXPTCStubBase6Stub68Ev  @function
	.align 1
_ZN14nsXPTCStubBase6Stub68Ev:
	mov.l	.L5, r1
	jmp	@r1
	mov	#68, r2		/* Executed before jmp */

	.globl _ZN14nsXPTCStubBase6Stub69Ev
	.type _ZN14nsXPTCStubBase6Stub69Ev  @function
	.align 1
_ZN14nsXPTCStubBase6Stub69Ev:
	mov.l	.L5, r1
	jmp	@r1
	mov	#69, r2		/* Executed before jmp */

	.globl _ZN14nsXPTCStubBase6Stub70Ev
	.type _ZN14nsXPTCStubBase6Stub70Ev  @function
	.align 1
_ZN14nsXPTCStubBase6Stub70Ev:
	mov.l	.L5, r1
	jmp	@r1
	mov	#70, r2		/* Executed before jmp */

	.globl _ZN14nsXPTCStubBase6Stub71Ev
	.type _ZN14nsXPTCStubBase6Stub71Ev  @function
	.align 1
_ZN14nsXPTCStubBase6Stub71Ev:
	mov.l	.L5, r1
	jmp	@r1
	mov	#71, r2		/* Executed before jmp */

	.globl _ZN14nsXPTCStubBase6Stub72Ev
	.type _ZN14nsXPTCStubBase6Stub72Ev  @function
	.align 1
_ZN14nsXPTCStubBase6Stub72Ev:
	mov.l	.L5, r1
	jmp	@r1
	mov	#72, r2		/* Executed before jmp */

	.globl _ZN14nsXPTCStubBase6Stub73Ev
	.type _ZN14nsXPTCStubBase6Stub73Ev  @function
	.align 1
_ZN14nsXPTCStubBase6Stub73Ev:
	mov.l	.L5, r1
	jmp	@r1
	mov	#73, r2		/* Executed before jmp */

	.globl _ZN14nsXPTCStubBase6Stub74Ev
	.type _ZN14nsXPTCStubBase6Stub74Ev  @function
	.align 1
_ZN14nsXPTCStubBase6Stub74Ev:
	mov.l	.L5, r1
	jmp	@r1
	mov	#74, r2		/* Executed before jmp */

	.globl _ZN14nsXPTCStubBase6Stub75Ev
	.type _ZN14nsXPTCStubBase6Stub75Ev  @function
	.align 1
_ZN14nsXPTCStubBase6Stub75Ev:
	mov.l	.L5, r1
	jmp	@r1
	mov	#75, r2		/* Executed before jmp */

	.globl _ZN14nsXPTCStubBase6Stub76Ev
	.type _ZN14nsXPTCStubBase6Stub76Ev  @function
	.align 1
_ZN14nsXPTCStubBase6Stub76Ev:
	mov.l	.L5, r1
	jmp	@r1
	mov	#76, r2		/* Executed before jmp */

	.globl _ZN14nsXPTCStubBase6Stub77Ev
	.type _ZN14nsXPTCStubBase6Stub77Ev  @function
	.align 1
_ZN14nsXPTCStubBase6Stub77Ev:
	mov.l	.L5, r1
	jmp	@r1
	mov	#77, r2		/* Executed before jmp */

	.globl _ZN14nsXPTCStubBase6Stub78Ev
	.type _ZN14nsXPTCStubBase6Stub78Ev  @function
	.align 1
_ZN14nsXPTCStubBase6Stub78Ev:
	mov.l	.L5, r1
	jmp	@r1
	mov	#78, r2		/* Executed before jmp */

	.globl _ZN14nsXPTCStubBase6Stub79Ev
	.type _ZN14nsXPTCStubBase6Stub79Ev  @function
	.align 1
_ZN14nsXPTCStubBase6Stub79Ev:
	mov.l	.L5, r1
	jmp	@r1
	mov	#79, r2		/* Executed before jmp */

	.globl _ZN14nsXPTCStubBase6Stub80Ev
	.type _ZN14nsXPTCStubBase6Stub80Ev  @function
	.align 1
_ZN14nsXPTCStubBase6Stub80Ev:
	mov.l	.L5, r1
	jmp	@r1
	mov	#80, r2		/* Executed before jmp */

	.globl _ZN14nsXPTCStubBase6Stub81Ev
	.type _ZN14nsXPTCStubBase6Stub81Ev  @function
	.align 1
_ZN14nsXPTCStubBase6Stub81Ev:
	mov.l	.L5, r1
	jmp	@r1
	mov	#81, r2		/* Executed before jmp */

	.align 2
.L5:
	.long	SharedStub

	.globl _ZN14nsXPTCStubBase6Stub82Ev
	.type _ZN14nsXPTCStubBase6Stub82Ev  @function
	.align 1
_ZN14nsXPTCStubBase6Stub82Ev:
	mov.l	.L6, r1
	jmp	@r1
	mov	#82, r2		/* Executed before jmp */

	.globl _ZN14nsXPTCStubBase6Stub83Ev
	.type _ZN14nsXPTCStubBase6Stub83Ev  @function
	.align 1
_ZN14nsXPTCStubBase6Stub83Ev:
	mov.l	.L6, r1
	jmp	@r1
	mov	#83, r2		/* Executed before jmp */

	.globl _ZN14nsXPTCStubBase6Stub84Ev
	.type _ZN14nsXPTCStubBase6Stub84Ev  @function
	.align 1
_ZN14nsXPTCStubBase6Stub84Ev:
	mov.l	.L6, r1
	jmp	@r1
	mov	#84, r2		/* Executed before jmp */

	.globl _ZN14nsXPTCStubBase6Stub85Ev
	.type _ZN14nsXPTCStubBase6Stub85Ev  @function
	.align 1
_ZN14nsXPTCStubBase6Stub85Ev:
	mov.l	.L6, r1
	jmp	@r1
	mov	#85, r2		/* Executed before jmp */

	.globl _ZN14nsXPTCStubBase6Stub86Ev
	.type _ZN14nsXPTCStubBase6Stub86Ev  @function
	.align 1
_ZN14nsXPTCStubBase6Stub86Ev:
	mov.l	.L6, r1
	jmp	@r1
	mov	#86, r2		/* Executed before jmp */

	.globl _ZN14nsXPTCStubBase6Stub87Ev
	.type _ZN14nsXPTCStubBase6Stub87Ev  @function
	.align 1
_ZN14nsXPTCStubBase6Stub87Ev:
	mov.l	.L6, r1
	jmp	@r1
	mov	#87, r2		/* Executed before jmp */

	.globl _ZN14nsXPTCStubBase6Stub88Ev
	.type _ZN14nsXPTCStubBase6Stub88Ev  @function
	.align 1
_ZN14nsXPTCStubBase6Stub88Ev:
	mov.l	.L6, r1
	jmp	@r1
	mov	#88, r2		/* Executed before jmp */

	.globl _ZN14nsXPTCStubBase6Stub89Ev
	.type _ZN14nsXPTCStubBase6Stub89Ev  @function
	.align 1
_ZN14nsXPTCStubBase6Stub89Ev:
	mov.l	.L6, r1
	jmp	@r1
	mov	#89, r2		/* Executed before jmp */

	.globl _ZN14nsXPTCStubBase6Stub90Ev
	.type _ZN14nsXPTCStubBase6Stub90Ev  @function
	.align 1
_ZN14nsXPTCStubBase6Stub90Ev:
	mov.l	.L6, r1
	jmp	@r1
	mov	#90, r2		/* Executed before jmp */

	.globl _ZN14nsXPTCStubBase6Stub91Ev
	.type _ZN14nsXPTCStubBase6Stub91Ev  @function
	.align 1
_ZN14nsXPTCStubBase6Stub91Ev:
	mov.l	.L6, r1
	jmp	@r1
	mov	#91, r2		/* Executed before jmp */

	.globl _ZN14nsXPTCStubBase6Stub92Ev
	.type _ZN14nsXPTCStubBase6Stub92Ev  @function
	.align 1
_ZN14nsXPTCStubBase6Stub92Ev:
	mov.l	.L6, r1
	jmp	@r1
	mov	#92, r2		/* Executed before jmp */

	.globl _ZN14nsXPTCStubBase6Stub93Ev
	.type _ZN14nsXPTCStubBase6Stub93Ev  @function
	.align 1
_ZN14nsXPTCStubBase6Stub93Ev:
	mov.l	.L6, r1
	jmp	@r1
	mov	#93, r2		/* Executed before jmp */

	.globl _ZN14nsXPTCStubBase6Stub94Ev
	.type _ZN14nsXPTCStubBase6Stub94Ev  @function
	.align 1
_ZN14nsXPTCStubBase6Stub94Ev:
	mov.l	.L6, r1
	jmp	@r1
	mov	#94, r2		/* Executed before jmp */

	.globl _ZN14nsXPTCStubBase6Stub95Ev
	.type _ZN14nsXPTCStubBase6Stub95Ev  @function
	.align 1
_ZN14nsXPTCStubBase6Stub95Ev:
	mov.l	.L6, r1
	jmp	@r1
	mov	#95, r2		/* Executed before jmp */

	.globl _ZN14nsXPTCStubBase6Stub96Ev
	.type _ZN14nsXPTCStubBase6Stub96Ev  @function
	.align 1
_ZN14nsXPTCStubBase6Stub96Ev:
	mov.l	.L6, r1
	jmp	@r1
	mov	#96, r2		/* Executed before jmp */

	.globl _ZN14nsXPTCStubBase6Stub97Ev
	.type _ZN14nsXPTCStubBase6Stub97Ev  @function
	.align 1
_ZN14nsXPTCStubBase6Stub97Ev:
	mov.l	.L6, r1
	jmp	@r1
	mov	#97, r2		/* Executed before jmp */

	.globl _ZN14nsXPTCStubBase6Stub98Ev
	.type _ZN14nsXPTCStubBase6Stub98Ev  @function
	.align 1
_ZN14nsXPTCStubBase6Stub98Ev:
	mov.l	.L6, r1
	jmp	@r1
	mov	#98, r2		/* Executed before jmp */

	.globl _ZN14nsXPTCStubBase6Stub99Ev
	.type _ZN14nsXPTCStubBase6Stub99Ev  @function
	.align 1
_ZN14nsXPTCStubBase6Stub99Ev:
	mov.l	.L6, r1
	jmp	@r1
	mov	#99, r2		/* Executed before jmp */

	.globl _ZN14nsXPTCStubBase7Stub100Ev
	.type _ZN14nsXPTCStubBase7Stub100Ev  @function
	.align 1
_ZN14nsXPTCStubBase7Stub100Ev:
	mov.l	.L6, r1
	jmp	@r1
	mov	#100, r2		/* Executed before jmp */

	.globl _ZN14nsXPTCStubBase7Stub101Ev
	.type _ZN14nsXPTCStubBase7Stub101Ev  @function
	.align 1
_ZN14nsXPTCStubBase7Stub101Ev:
	mov.l	.L6, r1
	jmp	@r1
	mov	#101, r2		/* Executed before jmp */

	.align 2
.L6:
	.long	SharedStub

	.globl _ZN14nsXPTCStubBase7Stub102Ev
	.type _ZN14nsXPTCStubBase7Stub102Ev  @function
	.align 1
_ZN14nsXPTCStubBase7Stub102Ev:
	mov.l	.L7, r1
	jmp	@r1
	mov	#102, r2		/* Executed before jmp */

	.globl _ZN14nsXPTCStubBase7Stub103Ev
	.type _ZN14nsXPTCStubBase7Stub103Ev  @function
	.align 1
_ZN14nsXPTCStubBase7Stub103Ev:
	mov.l	.L7, r1
	jmp	@r1
	mov	#103, r2		/* Executed before jmp */

	.globl _ZN14nsXPTCStubBase7Stub104Ev
	.type _ZN14nsXPTCStubBase7Stub104Ev  @function
	.align 1
_ZN14nsXPTCStubBase7Stub104Ev:
	mov.l	.L7, r1
	jmp	@r1
	mov	#104, r2		/* Executed before jmp */

	.globl _ZN14nsXPTCStubBase7Stub105Ev
	.type _ZN14nsXPTCStubBase7Stub105Ev  @function
	.align 1
_ZN14nsXPTCStubBase7Stub105Ev:
	mov.l	.L7, r1
	jmp	@r1
	mov	#105, r2		/* Executed before jmp */

	.globl _ZN14nsXPTCStubBase7Stub106Ev
	.type _ZN14nsXPTCStubBase7Stub106Ev  @function
	.align 1
_ZN14nsXPTCStubBase7Stub106Ev:
	mov.l	.L7, r1
	jmp	@r1
	mov	#106, r2		/* Executed before jmp */

	.globl _ZN14nsXPTCStubBase7Stub107Ev
	.type _ZN14nsXPTCStubBase7Stub107Ev  @function
	.align 1
_ZN14nsXPTCStubBase7Stub107Ev:
	mov.l	.L7, r1
	jmp	@r1
	mov	#107, r2		/* Executed before jmp */

	.globl _ZN14nsXPTCStubBase7Stub108Ev
	.type _ZN14nsXPTCStubBase7Stub108Ev  @function
	.align 1
_ZN14nsXPTCStubBase7Stub108Ev:
	mov.l	.L7, r1
	jmp	@r1
	mov	#108, r2		/* Executed before jmp */

	.globl _ZN14nsXPTCStubBase7Stub109Ev
	.type _ZN14nsXPTCStubBase7Stub109Ev  @function
	.align 1
_ZN14nsXPTCStubBase7Stub109Ev:
	mov.l	.L7, r1
	jmp	@r1
	mov	#109, r2		/* Executed before jmp */

	.globl _ZN14nsXPTCStubBase7Stub110Ev
	.type _ZN14nsXPTCStubBase7Stub110Ev  @function
	.align 1
_ZN14nsXPTCStubBase7Stub110Ev:
	mov.l	.L7, r1
	jmp	@r1
	mov	#110, r2		/* Executed before jmp */

	.globl _ZN14nsXPTCStubBase7Stub111Ev
	.type _ZN14nsXPTCStubBase7Stub111Ev  @function
	.align 1
_ZN14nsXPTCStubBase7Stub111Ev:
	mov.l	.L7, r1
	jmp	@r1
	mov	#111, r2		/* Executed before jmp */

	.globl _ZN14nsXPTCStubBase7Stub112Ev
	.type _ZN14nsXPTCStubBase7Stub112Ev  @function
	.align 1
_ZN14nsXPTCStubBase7Stub112Ev:
	mov.l	.L7, r1
	jmp	@r1
	mov	#112, r2		/* Executed before jmp */

	.globl _ZN14nsXPTCStubBase7Stub113Ev
	.type _ZN14nsXPTCStubBase7Stub113Ev  @function
	.align 1
_ZN14nsXPTCStubBase7Stub113Ev:
	mov.l	.L7, r1
	jmp	@r1
	mov	#113, r2		/* Executed before jmp */

	.globl _ZN14nsXPTCStubBase7Stub114Ev
	.type _ZN14nsXPTCStubBase7Stub114Ev  @function
	.align 1
_ZN14nsXPTCStubBase7Stub114Ev:
	mov.l	.L7, r1
	jmp	@r1
	mov	#114, r2		/* Executed before jmp */

	.globl _ZN14nsXPTCStubBase7Stub115Ev
	.type _ZN14nsXPTCStubBase7Stub115Ev  @function
	.align 1
_ZN14nsXPTCStubBase7Stub115Ev:
	mov.l	.L7, r1
	jmp	@r1
	mov	#115, r2		/* Executed before jmp */

	.globl _ZN14nsXPTCStubBase7Stub116Ev
	.type _ZN14nsXPTCStubBase7Stub116Ev  @function
	.align 1
_ZN14nsXPTCStubBase7Stub116Ev:
	mov.l	.L7, r1
	jmp	@r1
	mov	#116, r2		/* Executed before jmp */

	.globl _ZN14nsXPTCStubBase7Stub117Ev
	.type _ZN14nsXPTCStubBase7Stub117Ev  @function
	.align 1
_ZN14nsXPTCStubBase7Stub117Ev:
	mov.l	.L7, r1
	jmp	@r1
	mov	#117, r2		/* Executed before jmp */

	.globl _ZN14nsXPTCStubBase7Stub118Ev
	.type _ZN14nsXPTCStubBase7Stub118Ev  @function
	.align 1
_ZN14nsXPTCStubBase7Stub118Ev:
	mov.l	.L7, r1
	jmp	@r1
	mov	#118, r2		/* Executed before jmp */

	.globl _ZN14nsXPTCStubBase7Stub119Ev
	.type _ZN14nsXPTCStubBase7Stub119Ev  @function
	.align 1
_ZN14nsXPTCStubBase7Stub119Ev:
	mov.l	.L7, r1
	jmp	@r1
	mov	#119, r2		/* Executed before jmp */

	.globl _ZN14nsXPTCStubBase7Stub120Ev
	.type _ZN14nsXPTCStubBase7Stub120Ev  @function
	.align 1
_ZN14nsXPTCStubBase7Stub120Ev:
	mov.l	.L7, r1
	jmp	@r1
	mov	#120, r2		/* Executed before jmp */

	.globl _ZN14nsXPTCStubBase7Stub121Ev
	.type _ZN14nsXPTCStubBase7Stub121Ev  @function
	.align 1
_ZN14nsXPTCStubBase7Stub121Ev:
	mov.l	.L7, r1
	jmp	@r1
	mov	#121, r2		/* Executed before jmp */

	.align 2
.L7:
	.long	SharedStub

	.globl _ZN14nsXPTCStubBase7Stub122Ev
	.type _ZN14nsXPTCStubBase7Stub122Ev  @function
	.align 1
_ZN14nsXPTCStubBase7Stub122Ev:
	mov.l	.L8, r1
	jmp	@r1
	mov	#122, r2		/* Executed before jmp */

	.globl _ZN14nsXPTCStubBase7Stub123Ev
	.type _ZN14nsXPTCStubBase7Stub123Ev  @function
	.align 1
_ZN14nsXPTCStubBase7Stub123Ev:
	mov.l	.L8, r1
	jmp	@r1
	mov	#123, r2		/* Executed before jmp */

	.globl _ZN14nsXPTCStubBase7Stub124Ev
	.type _ZN14nsXPTCStubBase7Stub124Ev  @function
	.align 1
_ZN14nsXPTCStubBase7Stub124Ev:
	mov.l	.L8, r1
	jmp	@r1
	mov	#124, r2		/* Executed before jmp */

	.globl _ZN14nsXPTCStubBase7Stub125Ev
	.type _ZN14nsXPTCStubBase7Stub125Ev  @function
	.align 1
_ZN14nsXPTCStubBase7Stub125Ev:
	mov.l	.L8, r1
	jmp	@r1
	mov	#125, r2		/* Executed before jmp */

	.globl _ZN14nsXPTCStubBase7Stub126Ev
	.type _ZN14nsXPTCStubBase7Stub126Ev  @function
	.align 1
_ZN14nsXPTCStubBase7Stub126Ev:
	mov.l	.L8, r1
	jmp	@r1
	mov	#126, r2		/* Executed before jmp */

	.globl _ZN14nsXPTCStubBase7Stub127Ev
	.type _ZN14nsXPTCStubBase7Stub127Ev  @function
	.align 1
_ZN14nsXPTCStubBase7Stub127Ev:
	mov.l	.L8, r1
	jmp	@r1
	mov	#127, r2		/* Executed before jmp */

	.globl _ZN14nsXPTCStubBase7Stub128Ev
	.type _ZN14nsXPTCStubBase7Stub128Ev  @function
	.align 1
_ZN14nsXPTCStubBase7Stub128Ev:
	mov.l	.L8, r1
	jmp	@r1
	mov	#128, r2		/* Executed before jmp */

	.globl _ZN14nsXPTCStubBase7Stub129Ev
	.type _ZN14nsXPTCStubBase7Stub129Ev  @function
	.align 1
_ZN14nsXPTCStubBase7Stub129Ev:
	mov.l	.L8, r1
	jmp	@r1
	mov	#129, r2		/* Executed before jmp */

	.globl _ZN14nsXPTCStubBase7Stub130Ev
	.type _ZN14nsXPTCStubBase7Stub130Ev  @function
	.align 1
_ZN14nsXPTCStubBase7Stub130Ev:
	mov.l	.L8, r1
	jmp	@r1
	mov	#130, r2		/* Executed before jmp */

	.globl _ZN14nsXPTCStubBase7Stub131Ev
	.type _ZN14nsXPTCStubBase7Stub131Ev  @function
	.align 1
_ZN14nsXPTCStubBase7Stub131Ev:
	mov.l	.L8, r1
	jmp	@r1
	mov	#131, r2		/* Executed before jmp */

	.globl _ZN14nsXPTCStubBase7Stub132Ev
	.type _ZN14nsXPTCStubBase7Stub132Ev  @function
	.align 1
_ZN14nsXPTCStubBase7Stub132Ev:
	mov.l	.L8, r1
	jmp	@r1
	mov	#132, r2		/* Executed before jmp */

	.globl _ZN14nsXPTCStubBase7Stub133Ev
	.type _ZN14nsXPTCStubBase7Stub133Ev  @function
	.align 1
_ZN14nsXPTCStubBase7Stub133Ev:
	mov.l	.L8, r1
	jmp	@r1
	mov	#133, r2		/* Executed before jmp */

	.globl _ZN14nsXPTCStubBase7Stub134Ev
	.type _ZN14nsXPTCStubBase7Stub134Ev  @function
	.align 1
_ZN14nsXPTCStubBase7Stub134Ev:
	mov.l	.L8, r1
	jmp	@r1
	mov	#134, r2		/* Executed before jmp */

	.globl _ZN14nsXPTCStubBase7Stub135Ev
	.type _ZN14nsXPTCStubBase7Stub135Ev  @function
	.align 1
_ZN14nsXPTCStubBase7Stub135Ev:
	mov.l	.L8, r1
	jmp	@r1
	mov	#135, r2		/* Executed before jmp */

	.globl _ZN14nsXPTCStubBase7Stub136Ev
	.type _ZN14nsXPTCStubBase7Stub136Ev  @function
	.align 1
_ZN14nsXPTCStubBase7Stub136Ev:
	mov.l	.L8, r1
	jmp	@r1
	mov	#136, r2		/* Executed before jmp */

	.globl _ZN14nsXPTCStubBase7Stub137Ev
	.type _ZN14nsXPTCStubBase7Stub137Ev  @function
	.align 1
_ZN14nsXPTCStubBase7Stub137Ev:
	mov.l	.L8, r1
	jmp	@r1
	mov	#137, r2		/* Executed before jmp */

	.globl _ZN14nsXPTCStubBase7Stub138Ev
	.type _ZN14nsXPTCStubBase7Stub138Ev  @function
	.align 1
_ZN14nsXPTCStubBase7Stub138Ev:
	mov.l	.L8, r1
	jmp	@r1
	mov	#138, r2		/* Executed before jmp */

	.globl _ZN14nsXPTCStubBase7Stub139Ev
	.type _ZN14nsXPTCStubBase7Stub139Ev  @function
	.align 1
_ZN14nsXPTCStubBase7Stub139Ev:
	mov.l	.L8, r1
	jmp	@r1
	mov	#139, r2		/* Executed before jmp */

	.globl _ZN14nsXPTCStubBase7Stub140Ev
	.type _ZN14nsXPTCStubBase7Stub140Ev  @function
	.align 1
_ZN14nsXPTCStubBase7Stub140Ev:
	mov.l	.L8, r1
	jmp	@r1
	mov	#140, r2		/* Executed before jmp */

	.globl _ZN14nsXPTCStubBase7Stub141Ev
	.type _ZN14nsXPTCStubBase7Stub141Ev  @function
	.align 1
_ZN14nsXPTCStubBase7Stub141Ev:
	mov.l	.L8, r1
	jmp	@r1
	mov	#141, r2		/* Executed before jmp */

	.align 2
.L8:
	.long	SharedStub

	.globl _ZN14nsXPTCStubBase7Stub142Ev
	.type _ZN14nsXPTCStubBase7Stub142Ev  @function
	.align 1
_ZN14nsXPTCStubBase7Stub142Ev:
	mov.l	.L9, r1
	jmp	@r1
	mov	#142, r2		/* Executed before jmp */

	.globl _ZN14nsXPTCStubBase7Stub143Ev
	.type _ZN14nsXPTCStubBase7Stub143Ev  @function
	.align 1
_ZN14nsXPTCStubBase7Stub143Ev:
	mov.l	.L9, r1
	jmp	@r1
	mov	#143, r2		/* Executed before jmp */

	.globl _ZN14nsXPTCStubBase7Stub144Ev
	.type _ZN14nsXPTCStubBase7Stub144Ev  @function
	.align 1
_ZN14nsXPTCStubBase7Stub144Ev:
	mov.l	.L9, r1
	jmp	@r1
	mov	#144, r2		/* Executed before jmp */

	.globl _ZN14nsXPTCStubBase7Stub145Ev
	.type _ZN14nsXPTCStubBase7Stub145Ev  @function
	.align 1
_ZN14nsXPTCStubBase7Stub145Ev:
	mov.l	.L9, r1
	jmp	@r1
	mov	#145, r2		/* Executed before jmp */

	.globl _ZN14nsXPTCStubBase7Stub146Ev
	.type _ZN14nsXPTCStubBase7Stub146Ev  @function
	.align 1
_ZN14nsXPTCStubBase7Stub146Ev:
	mov.l	.L9, r1
	jmp	@r1
	mov	#146, r2		/* Executed before jmp */

	.globl _ZN14nsXPTCStubBase7Stub147Ev
	.type _ZN14nsXPTCStubBase7Stub147Ev  @function
	.align 1
_ZN14nsXPTCStubBase7Stub147Ev:
	mov.l	.L9, r1
	jmp	@r1
	mov	#147, r2		/* Executed before jmp */

	.globl _ZN14nsXPTCStubBase7Stub148Ev
	.type _ZN14nsXPTCStubBase7Stub148Ev  @function
	.align 1
_ZN14nsXPTCStubBase7Stub148Ev:
	mov.l	.L9, r1
	jmp	@r1
	mov	#148, r2		/* Executed before jmp */

	.globl _ZN14nsXPTCStubBase7Stub149Ev
	.type _ZN14nsXPTCStubBase7Stub149Ev  @function
	.align 1
_ZN14nsXPTCStubBase7Stub149Ev:
	mov.l	.L9, r1
	jmp	@r1
	mov	#149, r2		/* Executed before jmp */

	.globl _ZN14nsXPTCStubBase7Stub150Ev
	.type _ZN14nsXPTCStubBase7Stub150Ev  @function
	.align 1
_ZN14nsXPTCStubBase7Stub150Ev:
	mov.l	.L9, r1
	jmp	@r1
	mov	#150, r2		/* Executed before jmp */

	.globl _ZN14nsXPTCStubBase7Stub151Ev
	.type _ZN14nsXPTCStubBase7Stub151Ev  @function
	.align 1
_ZN14nsXPTCStubBase7Stub151Ev:
	mov.l	.L9, r1
	jmp	@r1
	mov	#151, r2		/* Executed before jmp */

	.globl _ZN14nsXPTCStubBase7Stub152Ev
	.type _ZN14nsXPTCStubBase7Stub152Ev  @function
	.align 1
_ZN14nsXPTCStubBase7Stub152Ev:
	mov.l	.L9, r1
	jmp	@r1
	mov	#152, r2		/* Executed before jmp */

	.globl _ZN14nsXPTCStubBase7Stub153Ev
	.type _ZN14nsXPTCStubBase7Stub153Ev  @function
	.align 1
_ZN14nsXPTCStubBase7Stub153Ev:
	mov.l	.L9, r1
	jmp	@r1
	mov	#153, r2		/* Executed before jmp */

	.globl _ZN14nsXPTCStubBase7Stub154Ev
	.type _ZN14nsXPTCStubBase7Stub154Ev  @function
	.align 1
_ZN14nsXPTCStubBase7Stub154Ev:
	mov.l	.L9, r1
	jmp	@r1
	mov	#154, r2		/* Executed before jmp */

	.globl _ZN14nsXPTCStubBase7Stub155Ev
	.type _ZN14nsXPTCStubBase7Stub155Ev  @function
	.align 1
_ZN14nsXPTCStubBase7Stub155Ev:
	mov.l	.L9, r1
	jmp	@r1
	mov	#155, r2		/* Executed before jmp */

	.globl _ZN14nsXPTCStubBase7Stub156Ev
	.type _ZN14nsXPTCStubBase7Stub156Ev  @function
	.align 1
_ZN14nsXPTCStubBase7Stub156Ev:
	mov.l	.L9, r1
	jmp	@r1
	mov	#156, r2		/* Executed before jmp */

	.globl _ZN14nsXPTCStubBase7Stub157Ev
	.type _ZN14nsXPTCStubBase7Stub157Ev  @function
	.align 1
_ZN14nsXPTCStubBase7Stub157Ev:
	mov.l	.L9, r1
	jmp	@r1
	mov	#157, r2		/* Executed before jmp */

	.globl _ZN14nsXPTCStubBase7Stub158Ev
	.type _ZN14nsXPTCStubBase7Stub158Ev  @function
	.align 1
_ZN14nsXPTCStubBase7Stub158Ev:
	mov.l	.L9, r1
	jmp	@r1
	mov	#158, r2		/* Executed before jmp */

	.globl _ZN14nsXPTCStubBase7Stub159Ev
	.type _ZN14nsXPTCStubBase7Stub159Ev  @function
	.align 1
_ZN14nsXPTCStubBase7Stub159Ev:
	mov.l	.L9, r1
	jmp	@r1
	mov	#159, r2		/* Executed before jmp */

	.globl _ZN14nsXPTCStubBase7Stub160Ev
	.type _ZN14nsXPTCStubBase7Stub160Ev  @function
	.align 1
_ZN14nsXPTCStubBase7Stub160Ev:
	mov.l	.L9, r1
	jmp	@r1
	mov	#160, r2		/* Executed before jmp */

	.globl _ZN14nsXPTCStubBase7Stub161Ev
	.type _ZN14nsXPTCStubBase7Stub161Ev  @function
	.align 1
_ZN14nsXPTCStubBase7Stub161Ev:
	mov.l	.L9, r1
	jmp	@r1
	mov	#161, r2		/* Executed before jmp */

	.align 2
.L9:
	.long	SharedStub

	.globl _ZN14nsXPTCStubBase7Stub162Ev
	.type _ZN14nsXPTCStubBase7Stub162Ev  @function
	.align 1
_ZN14nsXPTCStubBase7Stub162Ev:
	mov.l	.L10, r1
	jmp	@r1
	mov	#162, r2		/* Executed before jmp */

	.globl _ZN14nsXPTCStubBase7Stub163Ev
	.type _ZN14nsXPTCStubBase7Stub163Ev  @function
	.align 1
_ZN14nsXPTCStubBase7Stub163Ev:
	mov.l	.L10, r1
	jmp	@r1
	mov	#163, r2		/* Executed before jmp */

	.globl _ZN14nsXPTCStubBase7Stub164Ev
	.type _ZN14nsXPTCStubBase7Stub164Ev  @function
	.align 1
_ZN14nsXPTCStubBase7Stub164Ev:
	mov.l	.L10, r1
	jmp	@r1
	mov	#164, r2		/* Executed before jmp */

	.globl _ZN14nsXPTCStubBase7Stub165Ev
	.type _ZN14nsXPTCStubBase7Stub165Ev  @function
	.align 1
_ZN14nsXPTCStubBase7Stub165Ev:
	mov.l	.L10, r1
	jmp	@r1
	mov	#165, r2		/* Executed before jmp */

	.globl _ZN14nsXPTCStubBase7Stub166Ev
	.type _ZN14nsXPTCStubBase7Stub166Ev  @function
	.align 1
_ZN14nsXPTCStubBase7Stub166Ev:
	mov.l	.L10, r1
	jmp	@r1
	mov	#166, r2		/* Executed before jmp */

	.globl _ZN14nsXPTCStubBase7Stub167Ev
	.type _ZN14nsXPTCStubBase7Stub167Ev  @function
	.align 1
_ZN14nsXPTCStubBase7Stub167Ev:
	mov.l	.L10, r1
	jmp	@r1
	mov	#167, r2		/* Executed before jmp */

	.globl _ZN14nsXPTCStubBase7Stub168Ev
	.type _ZN14nsXPTCStubBase7Stub168Ev  @function
	.align 1
_ZN14nsXPTCStubBase7Stub168Ev:
	mov.l	.L10, r1
	jmp	@r1
	mov	#168, r2		/* Executed before jmp */

	.globl _ZN14nsXPTCStubBase7Stub169Ev
	.type _ZN14nsXPTCStubBase7Stub169Ev  @function
	.align 1
_ZN14nsXPTCStubBase7Stub169Ev:
	mov.l	.L10, r1
	jmp	@r1
	mov	#169, r2		/* Executed before jmp */

	.globl _ZN14nsXPTCStubBase7Stub170Ev
	.type _ZN14nsXPTCStubBase7Stub170Ev  @function
	.align 1
_ZN14nsXPTCStubBase7Stub170Ev:
	mov.l	.L10, r1
	jmp	@r1
	mov	#170, r2		/* Executed before jmp */

	.globl _ZN14nsXPTCStubBase7Stub171Ev
	.type _ZN14nsXPTCStubBase7Stub171Ev  @function
	.align 1
_ZN14nsXPTCStubBase7Stub171Ev:
	mov.l	.L10, r1
	jmp	@r1
	mov	#171, r2		/* Executed before jmp */

	.globl _ZN14nsXPTCStubBase7Stub172Ev
	.type _ZN14nsXPTCStubBase7Stub172Ev  @function
	.align 1
_ZN14nsXPTCStubBase7Stub172Ev:
	mov.l	.L10, r1
	jmp	@r1
	mov	#172, r2		/* Executed before jmp */

	.globl _ZN14nsXPTCStubBase7Stub173Ev
	.type _ZN14nsXPTCStubBase7Stub173Ev  @function
	.align 1
_ZN14nsXPTCStubBase7Stub173Ev:
	mov.l	.L10, r1
	jmp	@r1
	mov	#173, r2		/* Executed before jmp */

	.globl _ZN14nsXPTCStubBase7Stub174Ev
	.type _ZN14nsXPTCStubBase7Stub174Ev  @function
	.align 1
_ZN14nsXPTCStubBase7Stub174Ev:
	mov.l	.L10, r1
	jmp	@r1
	mov	#174, r2		/* Executed before jmp */

	.globl _ZN14nsXPTCStubBase7Stub175Ev
	.type _ZN14nsXPTCStubBase7Stub175Ev  @function
	.align 1
_ZN14nsXPTCStubBase7Stub175Ev:
	mov.l	.L10, r1
	jmp	@r1
	mov	#175, r2		/* Executed before jmp */

	.globl _ZN14nsXPTCStubBase7Stub176Ev
	.type _ZN14nsXPTCStubBase7Stub176Ev  @function
	.align 1
_ZN14nsXPTCStubBase7Stub176Ev:
	mov.l	.L10, r1
	jmp	@r1
	mov	#176, r2		/* Executed before jmp */

	.globl _ZN14nsXPTCStubBase7Stub177Ev
	.type _ZN14nsXPTCStubBase7Stub177Ev  @function
	.align 1
_ZN14nsXPTCStubBase7Stub177Ev:
	mov.l	.L10, r1
	jmp	@r1
	mov	#177, r2		/* Executed before jmp */

	.globl _ZN14nsXPTCStubBase7Stub178Ev
	.type _ZN14nsXPTCStubBase7Stub178Ev  @function
	.align 1
_ZN14nsXPTCStubBase7Stub178Ev:
	mov.l	.L10, r1
	jmp	@r1
	mov	#178, r2		/* Executed before jmp */

	.globl _ZN14nsXPTCStubBase7Stub179Ev
	.type _ZN14nsXPTCStubBase7Stub179Ev  @function
	.align 1
_ZN14nsXPTCStubBase7Stub179Ev:
	mov.l	.L10, r1
	jmp	@r1
	mov	#179, r2		/* Executed before jmp */

	.globl _ZN14nsXPTCStubBase7Stub180Ev
	.type _ZN14nsXPTCStubBase7Stub180Ev  @function
	.align 1
_ZN14nsXPTCStubBase7Stub180Ev:
	mov.l	.L10, r1
	jmp	@r1
	mov	#180, r2		/* Executed before jmp */

	.globl _ZN14nsXPTCStubBase7Stub181Ev
	.type _ZN14nsXPTCStubBase7Stub181Ev  @function
	.align 1
_ZN14nsXPTCStubBase7Stub181Ev:
	mov.l	.L10, r1
	jmp	@r1
	mov	#181, r2		/* Executed before jmp */

	.align 2
.L10:
	.long	SharedStub

	.globl _ZN14nsXPTCStubBase7Stub182Ev
	.type _ZN14nsXPTCStubBase7Stub182Ev  @function
	.align 1
_ZN14nsXPTCStubBase7Stub182Ev:
	mov.l	.L11, r1
	jmp	@r1
	mov	#182, r2		/* Executed before jmp */

	.globl _ZN14nsXPTCStubBase7Stub183Ev
	.type _ZN14nsXPTCStubBase7Stub183Ev  @function
	.align 1
_ZN14nsXPTCStubBase7Stub183Ev:
	mov.l	.L11, r1
	jmp	@r1
	mov	#183, r2		/* Executed before jmp */

	.globl _ZN14nsXPTCStubBase7Stub184Ev
	.type _ZN14nsXPTCStubBase7Stub184Ev  @function
	.align 1
_ZN14nsXPTCStubBase7Stub184Ev:
	mov.l	.L11, r1
	jmp	@r1
	mov	#184, r2		/* Executed before jmp */

	.globl _ZN14nsXPTCStubBase7Stub185Ev
	.type _ZN14nsXPTCStubBase7Stub185Ev  @function
	.align 1
_ZN14nsXPTCStubBase7Stub185Ev:
	mov.l	.L11, r1
	jmp	@r1
	mov	#185, r2		/* Executed before jmp */

	.globl _ZN14nsXPTCStubBase7Stub186Ev
	.type _ZN14nsXPTCStubBase7Stub186Ev  @function
	.align 1
_ZN14nsXPTCStubBase7Stub186Ev:
	mov.l	.L11, r1
	jmp	@r1
	mov	#186, r2		/* Executed before jmp */

	.globl _ZN14nsXPTCStubBase7Stub187Ev
	.type _ZN14nsXPTCStubBase7Stub187Ev  @function
	.align 1
_ZN14nsXPTCStubBase7Stub187Ev:
	mov.l	.L11, r1
	jmp	@r1
	mov	#187, r2		/* Executed before jmp */

	.globl _ZN14nsXPTCStubBase7Stub188Ev
	.type _ZN14nsXPTCStubBase7Stub188Ev  @function
	.align 1
_ZN14nsXPTCStubBase7Stub188Ev:
	mov.l	.L11, r1
	jmp	@r1
	mov	#188, r2		/* Executed before jmp */

	.globl _ZN14nsXPTCStubBase7Stub189Ev
	.type _ZN14nsXPTCStubBase7Stub189Ev  @function
	.align 1
_ZN14nsXPTCStubBase7Stub189Ev:
	mov.l	.L11, r1
	jmp	@r1
	mov	#189, r2		/* Executed before jmp */

	.globl _ZN14nsXPTCStubBase7Stub190Ev
	.type _ZN14nsXPTCStubBase7Stub190Ev  @function
	.align 1
_ZN14nsXPTCStubBase7Stub190Ev:
	mov.l	.L11, r1
	jmp	@r1
	mov	#190, r2		/* Executed before jmp */

	.globl _ZN14nsXPTCStubBase7Stub191Ev
	.type _ZN14nsXPTCStubBase7Stub191Ev  @function
	.align 1
_ZN14nsXPTCStubBase7Stub191Ev:
	mov.l	.L11, r1
	jmp	@r1
	mov	#191, r2		/* Executed before jmp */

	.globl _ZN14nsXPTCStubBase7Stub192Ev
	.type _ZN14nsXPTCStubBase7Stub192Ev  @function
	.align 1
_ZN14nsXPTCStubBase7Stub192Ev:
	mov.l	.L11, r1
	jmp	@r1
	mov	#192, r2		/* Executed before jmp */

	.globl _ZN14nsXPTCStubBase7Stub193Ev
	.type _ZN14nsXPTCStubBase7Stub193Ev  @function
	.align 1
_ZN14nsXPTCStubBase7Stub193Ev:
	mov.l	.L11, r1
	jmp	@r1
	mov	#193, r2		/* Executed before jmp */

	.globl _ZN14nsXPTCStubBase7Stub194Ev
	.type _ZN14nsXPTCStubBase7Stub194Ev  @function
	.align 1
_ZN14nsXPTCStubBase7Stub194Ev:
	mov.l	.L11, r1
	jmp	@r1
	mov	#194, r2		/* Executed before jmp */

	.globl _ZN14nsXPTCStubBase7Stub195Ev
	.type _ZN14nsXPTCStubBase7Stub195Ev  @function
	.align 1
_ZN14nsXPTCStubBase7Stub195Ev:
	mov.l	.L11, r1
	jmp	@r1
	mov	#195, r2		/* Executed before jmp */

	.globl _ZN14nsXPTCStubBase7Stub196Ev
	.type _ZN14nsXPTCStubBase7Stub196Ev  @function
	.align 1
_ZN14nsXPTCStubBase7Stub196Ev:
	mov.l	.L11, r1
	jmp	@r1
	mov	#196, r2		/* Executed before jmp */

	.globl _ZN14nsXPTCStubBase7Stub197Ev
	.type _ZN14nsXPTCStubBase7Stub197Ev  @function
	.align 1
_ZN14nsXPTCStubBase7Stub197Ev:
	mov.l	.L11, r1
	jmp	@r1
	mov	#197, r2		/* Executed before jmp */

	.globl _ZN14nsXPTCStubBase7Stub198Ev
	.type _ZN14nsXPTCStubBase7Stub198Ev  @function
	.align 1
_ZN14nsXPTCStubBase7Stub198Ev:
	mov.l	.L11, r1
	jmp	@r1
	mov	#198, r2		/* Executed before jmp */

	.globl _ZN14nsXPTCStubBase7Stub199Ev
	.type _ZN14nsXPTCStubBase7Stub199Ev  @function
	.align 1
_ZN14nsXPTCStubBase7Stub199Ev:
	mov.l	.L11, r1
	jmp	@r1
	mov	#199, r2		/* Executed before jmp */

	.globl _ZN14nsXPTCStubBase7Stub200Ev
	.type _ZN14nsXPTCStubBase7Stub200Ev  @function
	.align 1
_ZN14nsXPTCStubBase7Stub200Ev:
	mov.l	.L11, r1
	jmp	@r1
	mov	#200, r2		/* Executed before jmp */

	.globl _ZN14nsXPTCStubBase7Stub201Ev
	.type _ZN14nsXPTCStubBase7Stub201Ev  @function
	.align 1
_ZN14nsXPTCStubBase7Stub201Ev:
	mov.l	.L11, r1
	jmp	@r1
	mov	#201, r2		/* Executed before jmp */

	.align 2
.L11:
	.long	SharedStub

	.globl _ZN14nsXPTCStubBase7Stub202Ev
	.type _ZN14nsXPTCStubBase7Stub202Ev  @function
	.align 1
_ZN14nsXPTCStubBase7Stub202Ev:
	mov.l	.L12, r1
	jmp	@r1
	mov	#202, r2		/* Executed before jmp */

	.globl _ZN14nsXPTCStubBase7Stub203Ev
	.type _ZN14nsXPTCStubBase7Stub203Ev  @function
	.align 1
_ZN14nsXPTCStubBase7Stub203Ev:
	mov.l	.L12, r1
	jmp	@r1
	mov	#203, r2		/* Executed before jmp */

	.globl _ZN14nsXPTCStubBase7Stub204Ev
	.type _ZN14nsXPTCStubBase7Stub204Ev  @function
	.align 1
_ZN14nsXPTCStubBase7Stub204Ev:
	mov.l	.L12, r1
	jmp	@r1
	mov	#204, r2		/* Executed before jmp */

	.globl _ZN14nsXPTCStubBase7Stub205Ev
	.type _ZN14nsXPTCStubBase7Stub205Ev  @function
	.align 1
_ZN14nsXPTCStubBase7Stub205Ev:
	mov.l	.L12, r1
	jmp	@r1
	mov	#205, r2		/* Executed before jmp */

	.globl _ZN14nsXPTCStubBase7Stub206Ev
	.type _ZN14nsXPTCStubBase7Stub206Ev  @function
	.align 1
_ZN14nsXPTCStubBase7Stub206Ev:
	mov.l	.L12, r1
	jmp	@r1
	mov	#206, r2		/* Executed before jmp */

	.globl _ZN14nsXPTCStubBase7Stub207Ev
	.type _ZN14nsXPTCStubBase7Stub207Ev  @function
	.align 1
_ZN14nsXPTCStubBase7Stub207Ev:
	mov.l	.L12, r1
	jmp	@r1
	mov	#207, r2		/* Executed before jmp */

	.globl _ZN14nsXPTCStubBase7Stub208Ev
	.type _ZN14nsXPTCStubBase7Stub208Ev  @function
	.align 1
_ZN14nsXPTCStubBase7Stub208Ev:
	mov.l	.L12, r1
	jmp	@r1
	mov	#208, r2		/* Executed before jmp */

	.globl _ZN14nsXPTCStubBase7Stub209Ev
	.type _ZN14nsXPTCStubBase7Stub209Ev  @function
	.align 1
_ZN14nsXPTCStubBase7Stub209Ev:
	mov.l	.L12, r1
	jmp	@r1
	mov	#209, r2		/* Executed before jmp */

	.globl _ZN14nsXPTCStubBase7Stub210Ev
	.type _ZN14nsXPTCStubBase7Stub210Ev  @function
	.align 1
_ZN14nsXPTCStubBase7Stub210Ev:
	mov.l	.L12, r1
	jmp	@r1
	mov	#210, r2		/* Executed before jmp */

	.globl _ZN14nsXPTCStubBase7Stub211Ev
	.type _ZN14nsXPTCStubBase7Stub211Ev  @function
	.align 1
_ZN14nsXPTCStubBase7Stub211Ev:
	mov.l	.L12, r1
	jmp	@r1
	mov	#211, r2		/* Executed before jmp */

	.globl _ZN14nsXPTCStubBase7Stub212Ev
	.type _ZN14nsXPTCStubBase7Stub212Ev  @function
	.align 1
_ZN14nsXPTCStubBase7Stub212Ev:
	mov.l	.L12, r1
	jmp	@r1
	mov	#212, r2		/* Executed before jmp */

	.globl _ZN14nsXPTCStubBase7Stub213Ev
	.type _ZN14nsXPTCStubBase7Stub213Ev  @function
	.align 1
_ZN14nsXPTCStubBase7Stub213Ev:
	mov.l	.L12, r1
	jmp	@r1
	mov	#213, r2		/* Executed before jmp */

	.globl _ZN14nsXPTCStubBase7Stub214Ev
	.type _ZN14nsXPTCStubBase7Stub214Ev  @function
	.align 1
_ZN14nsXPTCStubBase7Stub214Ev:
	mov.l	.L12, r1
	jmp	@r1
	mov	#214, r2		/* Executed before jmp */

	.globl _ZN14nsXPTCStubBase7Stub215Ev
	.type _ZN14nsXPTCStubBase7Stub215Ev  @function
	.align 1
_ZN14nsXPTCStubBase7Stub215Ev:
	mov.l	.L12, r1
	jmp	@r1
	mov	#215, r2		/* Executed before jmp */

	.globl _ZN14nsXPTCStubBase7Stub216Ev
	.type _ZN14nsXPTCStubBase7Stub216Ev  @function
	.align 1
_ZN14nsXPTCStubBase7Stub216Ev:
	mov.l	.L12, r1
	jmp	@r1
	mov	#216, r2		/* Executed before jmp */

	.globl _ZN14nsXPTCStubBase7Stub217Ev
	.type _ZN14nsXPTCStubBase7Stub217Ev  @function
	.align 1
_ZN14nsXPTCStubBase7Stub217Ev:
	mov.l	.L12, r1
	jmp	@r1
	mov	#217, r2		/* Executed before jmp */

	.globl _ZN14nsXPTCStubBase7Stub218Ev
	.type _ZN14nsXPTCStubBase7Stub218Ev  @function
	.align 1
_ZN14nsXPTCStubBase7Stub218Ev:
	mov.l	.L12, r1
	jmp	@r1
	mov	#218, r2		/* Executed before jmp */

	.globl _ZN14nsXPTCStubBase7Stub219Ev
	.type _ZN14nsXPTCStubBase7Stub219Ev  @function
	.align 1
_ZN14nsXPTCStubBase7Stub219Ev:
	mov.l	.L12, r1
	jmp	@r1
	mov	#219, r2		/* Executed before jmp */

	.globl _ZN14nsXPTCStubBase7Stub220Ev
	.type _ZN14nsXPTCStubBase7Stub220Ev  @function
	.align 1
_ZN14nsXPTCStubBase7Stub220Ev:
	mov.l	.L12, r1
	jmp	@r1
	mov	#220, r2		/* Executed before jmp */

	.globl _ZN14nsXPTCStubBase7Stub221Ev
	.type _ZN14nsXPTCStubBase7Stub221Ev  @function
	.align 1
_ZN14nsXPTCStubBase7Stub221Ev:
	mov.l	.L12, r1
	jmp	@r1
	mov	#221, r2		/* Executed before jmp */

	.align 2
.L12:
	.long	SharedStub

	.globl _ZN14nsXPTCStubBase7Stub222Ev
	.type _ZN14nsXPTCStubBase7Stub222Ev  @function
	.align 1
_ZN14nsXPTCStubBase7Stub222Ev:
	mov.l	.L13, r1
	jmp	@r1
	mov	#222, r2		/* Executed before jmp */

	.globl _ZN14nsXPTCStubBase7Stub223Ev
	.type _ZN14nsXPTCStubBase7Stub223Ev  @function
	.align 1
_ZN14nsXPTCStubBase7Stub223Ev:
	mov.l	.L13, r1
	jmp	@r1
	mov	#223, r2		/* Executed before jmp */

	.globl _ZN14nsXPTCStubBase7Stub224Ev
	.type _ZN14nsXPTCStubBase7Stub224Ev  @function
	.align 1
_ZN14nsXPTCStubBase7Stub224Ev:
	mov.l	.L13, r1
	jmp	@r1
	mov	#224, r2		/* Executed before jmp */

	.globl _ZN14nsXPTCStubBase7Stub225Ev
	.type _ZN14nsXPTCStubBase7Stub225Ev  @function
	.align 1
_ZN14nsXPTCStubBase7Stub225Ev:
	mov.l	.L13, r1
	jmp	@r1
	mov	#225, r2		/* Executed before jmp */

	.globl _ZN14nsXPTCStubBase7Stub226Ev
	.type _ZN14nsXPTCStubBase7Stub226Ev  @function
	.align 1
_ZN14nsXPTCStubBase7Stub226Ev:
	mov.l	.L13, r1
	jmp	@r1
	mov	#226, r2		/* Executed before jmp */

	.globl _ZN14nsXPTCStubBase7Stub227Ev
	.type _ZN14nsXPTCStubBase7Stub227Ev  @function
	.align 1
_ZN14nsXPTCStubBase7Stub227Ev:
	mov.l	.L13, r1
	jmp	@r1
	mov	#227, r2		/* Executed before jmp */

	.globl _ZN14nsXPTCStubBase7Stub228Ev
	.type _ZN14nsXPTCStubBase7Stub228Ev  @function
	.align 1
_ZN14nsXPTCStubBase7Stub228Ev:
	mov.l	.L13, r1
	jmp	@r1
	mov	#228, r2		/* Executed before jmp */

	.globl _ZN14nsXPTCStubBase7Stub229Ev
	.type _ZN14nsXPTCStubBase7Stub229Ev  @function
	.align 1
_ZN14nsXPTCStubBase7Stub229Ev:
	mov.l	.L13, r1
	jmp	@r1
	mov	#229, r2		/* Executed before jmp */

	.globl _ZN14nsXPTCStubBase7Stub230Ev
	.type _ZN14nsXPTCStubBase7Stub230Ev  @function
	.align 1
_ZN14nsXPTCStubBase7Stub230Ev:
	mov.l	.L13, r1
	jmp	@r1
	mov	#230, r2		/* Executed before jmp */

	.globl _ZN14nsXPTCStubBase7Stub231Ev
	.type _ZN14nsXPTCStubBase7Stub231Ev  @function
	.align 1
_ZN14nsXPTCStubBase7Stub231Ev:
	mov.l	.L13, r1
	jmp	@r1
	mov	#231, r2		/* Executed before jmp */

	.globl _ZN14nsXPTCStubBase7Stub232Ev
	.type _ZN14nsXPTCStubBase7Stub232Ev  @function
	.align 1
_ZN14nsXPTCStubBase7Stub232Ev:
	mov.l	.L13, r1
	jmp	@r1
	mov	#232, r2		/* Executed before jmp */

	.globl _ZN14nsXPTCStubBase7Stub233Ev
	.type _ZN14nsXPTCStubBase7Stub233Ev  @function
	.align 1
_ZN14nsXPTCStubBase7Stub233Ev:
	mov.l	.L13, r1
	jmp	@r1
	mov	#233, r2		/* Executed before jmp */

	.globl _ZN14nsXPTCStubBase7Stub234Ev
	.type _ZN14nsXPTCStubBase7Stub234Ev  @function
	.align 1
_ZN14nsXPTCStubBase7Stub234Ev:
	mov.l	.L13, r1
	jmp	@r1
	mov	#234, r2		/* Executed before jmp */

	.globl _ZN14nsXPTCStubBase7Stub235Ev
	.type _ZN14nsXPTCStubBase7Stub235Ev  @function
	.align 1
_ZN14nsXPTCStubBase7Stub235Ev:
	mov.l	.L13, r1
	jmp	@r1
	mov	#235, r2		/* Executed before jmp */

	.globl _ZN14nsXPTCStubBase7Stub236Ev
	.type _ZN14nsXPTCStubBase7Stub236Ev  @function
	.align 1
_ZN14nsXPTCStubBase7Stub236Ev:
	mov.l	.L13, r1
	jmp	@r1
	mov	#236, r2		/* Executed before jmp */

	.globl _ZN14nsXPTCStubBase7Stub237Ev
	.type _ZN14nsXPTCStubBase7Stub237Ev  @function
	.align 1
_ZN14nsXPTCStubBase7Stub237Ev:
	mov.l	.L13, r1
	jmp	@r1
	mov	#237, r2		/* Executed before jmp */

	.globl _ZN14nsXPTCStubBase7Stub238Ev
	.type _ZN14nsXPTCStubBase7Stub238Ev  @function
	.align 1
_ZN14nsXPTCStubBase7Stub238Ev:
	mov.l	.L13, r1
	jmp	@r1
	mov	#238, r2		/* Executed before jmp */

	.globl _ZN14nsXPTCStubBase7Stub239Ev
	.type _ZN14nsXPTCStubBase7Stub239Ev  @function
	.align 1
_ZN14nsXPTCStubBase7Stub239Ev:
	mov.l	.L13, r1
	jmp	@r1
	mov	#239, r2		/* Executed before jmp */

	.globl _ZN14nsXPTCStubBase7Stub240Ev
	.type _ZN14nsXPTCStubBase7Stub240Ev  @function
	.align 1
_ZN14nsXPTCStubBase7Stub240Ev:
	mov.l	.L13, r1
	jmp	@r1
	mov	#240, r2		/* Executed before jmp */

	.globl _ZN14nsXPTCStubBase7Stub241Ev
	.type _ZN14nsXPTCStubBase7Stub241Ev  @function
	.align 1
_ZN14nsXPTCStubBase7Stub241Ev:
	mov.l	.L13, r1
	jmp	@r1
	mov	#241, r2		/* Executed before jmp */

	.align 2
.L13:
	.long	SharedStub

	.globl _ZN14nsXPTCStubBase7Stub242Ev
	.type _ZN14nsXPTCStubBase7Stub242Ev  @function
	.align 1
_ZN14nsXPTCStubBase7Stub242Ev:
	mov.l	.L14, r1
	jmp	@r1
	mov	#242, r2		/* Executed before jmp */

	.globl _ZN14nsXPTCStubBase7Stub243Ev
	.type _ZN14nsXPTCStubBase7Stub243Ev  @function
	.align 1
_ZN14nsXPTCStubBase7Stub243Ev:
	mov.l	.L14, r1
	jmp	@r1
	mov	#243, r2		/* Executed before jmp */

	.globl _ZN14nsXPTCStubBase7Stub244Ev
	.type _ZN14nsXPTCStubBase7Stub244Ev  @function
	.align 1
_ZN14nsXPTCStubBase7Stub244Ev:
	mov.l	.L14, r1
	jmp	@r1
	mov	#244, r2		/* Executed before jmp */

	.globl _ZN14nsXPTCStubBase7Stub245Ev
	.type _ZN14nsXPTCStubBase7Stub245Ev  @function
	.align 1
_ZN14nsXPTCStubBase7Stub245Ev:
	mov.l	.L14, r1
	jmp	@r1
	mov	#245, r2		/* Executed before jmp */

	.globl _ZN14nsXPTCStubBase7Stub246Ev
	.type _ZN14nsXPTCStubBase7Stub246Ev  @function
	.align 1
_ZN14nsXPTCStubBase7Stub246Ev:
	mov.l	.L14, r1
	jmp	@r1
	mov	#246, r2		/* Executed before jmp */

	.globl _ZN14nsXPTCStubBase7Stub247Ev
	.type _ZN14nsXPTCStubBase7Stub247Ev  @function
	.align 1
_ZN14nsXPTCStubBase7Stub247Ev:
	mov.l	.L14, r1
	jmp	@r1
	mov	#247, r2		/* Executed before jmp */

	.globl _ZN14nsXPTCStubBase7Stub248Ev
	.type _ZN14nsXPTCStubBase7Stub248Ev  @function
	.align 1
_ZN14nsXPTCStubBase7Stub248Ev:
	mov.l	.L14, r1
	jmp	@r1
	mov	#248, r2		/* Executed before jmp */

	.globl _ZN14nsXPTCStubBase7Stub249Ev
	.type _ZN14nsXPTCStubBase7Stub249Ev  @function
	.align 1
_ZN14nsXPTCStubBase7Stub249Ev:
	mov.l	.L14, r1
	jmp	@r1
	mov	#249, r2		/* Executed before jmp */

	.align 2
.L14:
	.long	SharedStub
