?GetNextSibling@nsFrame@@UBGIPAPAVnsIFrame@@@Z ; 5002976
?GetStyleData@nsFrame@@UBGIW4nsStyleStructID@@AAPBUnsStyleStruct@@@Z ; 4305077
?GetView@nsFrame@@UBGIPAVnsIPresContext@@PAPAVnsIView@@@Z ; 3217179
?GetFrameForPointUsing@nsContainerFrame@@IAEIPAVnsIPresContext@@ABUnsPoint@@PAVnsIAtom@@W4nsFramePaintLayer@@HPAPAVnsIFrame@@@Z ; 2202138
?GetFrame@nsBoxFrame@@UAGIPAPAVnsIFrame@@@Z ; 2113768
?GetParent@nsFrame@@UBGIPAPAVnsIFrame@@@Z ; 2112057
?GetFrameForPoint@ViewportFrame@@UAGIPAVnsIPresContext@@ABUnsPoint@@W4nsFramePaintLayer@@PAPAVnsIFrame@@@Z ; 1807172
?GetFrameState@nsFrame@@UAGIPAI@Z ; 1539423
?GetRect@nsFrame@@UBGIAAUnsRect@@@Z ; 1507093
?AddRef@nsTextInputListener@@UAGKXZ ; 1170762
?Release@PresShell@@UAGKXZ ; 1170746
?GetShell@nsPresContext@@UAGIPAPAVnsIPresShell@@@Z ; 995184
?FirstChild@nsContainerFrame@@UBGIPAVnsIPresContext@@PAVnsIAtom@@PAPAVnsIFrame@@@Z ; 964584
?GetOrigin@nsFrame@@UBGIAAUnsPoint@@@Z ; 957958
?assign_assuming_AddRef@nsCOMPtr_base@@IAEXPAVnsISupports@@@Z ; 934687
?SearchTree@nsDST@@AAEIPAXIPAPAX@Z ; 827938
?Search@nsDST@@QAEIPAXIPAPAX@Z ; 825447
?GetAdditionalChildListName@nsFrame@@UBGIHPAPAVnsIAtom@@@Z ; 799149
?PositionChildViews@nsContainerFrame@@SAXPAVnsIPresContext@@PAVnsIFrame@@@Z ; 788527
?GetNextBox@nsBox@@UAGIPAPAVnsIBox@@@Z ; 777355
?normalize_forward@?$nsReadingIterator@G@@QAEXXZ ; 686339
?BeginReading@?$basic_nsAReadableString@G@@QBEAAV?$nsReadingIterator@G@@AAV2@@Z ; 683883
?AddRef@nsRepeatService@@UAGKXZ ; 575164
??YnsMargin@@QAEAAU0@ABU0@@Z ; 561279
?GetFrame@nsLeafBoxFrame@@UAGIPAPAVnsIFrame@@@Z ; 517720
?FirstChild@nsBlockFrame@@UBGIPAVnsIPresContext@@PAVnsIAtom@@PAPAVnsIFrame@@@Z ; 515863
?GetCompatibilityMode@nsPresContext@@UAGIPAW4nsCompatibility@@@Z ; 511718
?GetBounds@nsBox@@UAGIAAUnsRect@@@Z ; 508048
?GetEventStateManager@nsPresContext@@UAGIPAPAVnsIEventStateManager@@@Z ; 485582
?FirstChild@nsFrame@@UBGIPAVnsIPresContext@@PAVnsIAtom@@PAPAVnsIFrame@@@Z ; 478399
?GetAdditionalChildListName@nsBlockFrame@@UBGIHPAPAVnsIAtom@@@Z ; 457647
?GetFrameForPoint@nsTableRowFrame@@UAGIPAVnsIPresContext@@ABUnsPoint@@W4nsFramePaintLayer@@PAPAVnsIFrame@@@Z ; 420949
?AddMargin@nsBox@@SAXAAUnsSize@@ABUnsMargin@@@Z ; 411560
?PaintChild@nsBoxFrame@@MAEXPAVnsIPresContext@@AAVnsIRenderingContext@@ABUnsRect@@PAVnsIFrame@@W4nsFramePaintLayer@@@Z ; 398889
?GetFrameForPoint@nsFrame@@UAGIPAVnsIPresContext@@ABUnsPoint@@W4nsFramePaintLayer@@PAPAVnsIFrame@@@Z ; 396162
?GetContent@nsFrame@@UBGIPAPAVnsIContent@@@Z ; 380994
?Release@FrameManager@@UAGKXZ ; 346176
?GetFrameManager@PresShell@@UBGIPAPAVnsIFrameManager@@@Z ; 346121
?GetLanguage@nsPresContext@@UAGIPAPAVnsILanguageAtom@@@Z ; 344091
?Compare@@YAHABV?$basic_nsAReadableString@G@@0@Z ; 340673
?GetBorder@nsBox@@UAGIAAUnsMargin@@@Z ; 338439
?GetPropertyListFor@FrameManager@@ABEPAUPropertyList@1@PAVnsIAtom@@@Z ; 329865
?GetPrimaryFrameFor@FrameManager@@UAGIPAVnsIContent@@PAPAVnsIFrame@@@Z ; 326625
?GetFrameProperty@FrameManager@@UAGIPAVnsIFrame@@PAVnsIAtom@@IPAPAX@Z ; 325041
?GetMargin@nsBox@@UAGIAAUnsMargin@@@Z ; 321983
?IsSameImageRequest@nsFrameImageLoader@@UAGIABVnsString@@PBIPBUnsSize@@PAH@Z ; 319741
?GetChildFrame@nsHTMLReflowCommand@@UBGIAAPAVnsIFrame@@@Z ; 316251
?SizeTo@nsFrame@@UAGIPAVnsIPresContext@@HH@Z ; 287768
?AddRef@PresShellViewEventListener@@UAGKXZ ; 279356
?MoveTo@nsFrame@@UAGIPAVnsIPresContext@@HH@Z ; 270879
?GetFirstInFlow@nsSplittableFrame@@QBEPAVnsIFrame@@XZ ; 270793
?PaintChild@nsContainerFrame@@MAEXPAVnsIPresContext@@AAVnsIRenderingContext@@ABUnsRect@@PAVnsIFrame@@W4nsFramePaintLayer@@@Z ; 256918
?Release@nsPresContext@@UAGKXZ ; 254559
?DoesNeedRecalc@nsBox@@UAEHABUnsSize@@@Z ; 237078
?HashCode@nsISupportsKey@@UBEIXZ ; 236157
?IsCollapsed@nsBox@@UAGIAAVnsBoxLayoutState@@AAH@Z ; 232069
?AddCSSCollapsed@nsIBox@@SAHAAVnsBoxLayoutState@@PAV1@AAH@Z ; 232069
??0nsFrameItems@@QAE@PAVnsIFrame@@@Z ; 231490
?FindNonTransparentBackground@nsStyleUtil@@SAPBUnsStyleColor@@PAVnsIStyleContext@@H@Z ; 228702
?GetPresContext@PresShell@@UAGIPAPAVnsIPresContext@@@Z ; 226276
?Paint@nsFrame@@UAGIPAVnsIPresContext@@AAVnsIRenderingContext@@ABUnsRect@@W4nsFramePaintLayer@@@Z ; 226097
?GetFrameForPoint@nsContainerFrame@@UAGIPAVnsIPresContext@@ABUnsPoint@@W4nsFramePaintLayer@@PAPAVnsIFrame@@@Z ; 222534
?GetNextInFlow@nsSplittableFrame@@UBGIPAPAVnsIFrame@@@Z ; 220147
?GetPageHeight@GalleyContext@@UAGIPAH@Z ; 210041
?SetRect@nsFrame@@UAGIPAVnsIPresContext@@ABUnsRect@@@Z ; 205519
?HasFloaters@nsLineBox@@QBEHXZ ; 201030
?AddMargin@nsBox@@SAXPAVnsIBox@@AAUnsSize@@@Z ; 197198
?GetMapCellAt@nsCellMap@@IAEPAVCellData@@AAVnsTableCellMap@@HHH@Z ; 197049
?GetFrameType@nsBlockFrame@@UBGIPAPAVnsIAtom@@@Z ; 196523
?Release@nsHTMLReflowCommand@@UAGKXZ ; 195792
?Translate@nsSpaceManager@@UAGIHH@Z ; 193534
?GetBorderAndPadding@nsBox@@UAGIAAUnsMargin@@@Z ; 193494
?AddMargin@nsBoxLayout@@UAEXPAVnsIBox@@AAUnsSize@@@Z ; 190443
?IsVisibleForPainting@nsFrame@@UAGIPAVnsIPresContext@@AAVnsIRenderingContext@@HPAH@Z ; 186633
?GetPadding@nsBox@@UAGIAAUnsMargin@@@Z ; 185394
?GetChildBox@nsBox@@UAGIPAPAVnsIBox@@@Z ; 184537
?CombinedAreaIntersects@nsLineBox@@QAEHABUnsRect@@@Z ; 184349
?FindPrimaryFrameFor@nsCSSFrameConstructor@@UAGIPAVnsIPresContext@@PAVnsIFrameManager@@PAVnsIContent@@PAPAVnsIFrame@@PAUnsFindFrameHint@@@Z ; 180427
?IsPercentageUnitSides@nsLineLayout@@SAHPBVnsStyleSides@@@Z ; 175085
?GetScaledPixelsToTwips@nsPresContext@@UBGIPAM@Z ; 172401
?GetCellMap@nsTableFrame@@UBEPAVnsTableCellMap@@XZ ; 168782
?GetCombinedArea@nsLineBox@@QAEXPAUnsRect@@@Z ; 166940
?GetStyleContext@nsFrame@@UBGIPAPAVnsIStyleContext@@@Z ; 165611
?QueryInterface@nsFrame@@UAGIABUnsID@@PAPAX@Z ; 159254
?Release@nsMonumentLayout@@UAGKXZ ; 157349
?AddRef@nsGridLayout@@UAGKXZ ; 157349
?Paint@nsBoxFrame@@UAGIPAVnsIPresContext@@AAVnsIRenderingContext@@ABUnsRect@@W4nsFramePaintLayer@@@Z ; 157115
?ComputeVerticalValue@nsHTMLReflowState@@IAEXHW4nsStyleUnit@@ABVnsStyleCoord@@AAH@Z ; 154481
?GetMode@nsPluginInstanceOwner@@UAGIPAW4nsPluginMode@@@Z ; 153340
?GetNextWord@nsTextTransformer@@QAEPAGHPAH000HH@Z ; 151694
?ComputeHorizontalValue@nsHTMLReflowState@@IAEXHW4nsStyleUnit@@ABVnsStyleCoord@@AAH@Z ; 151351
?PaintChildren@nsBoxFrame@@MAEXPAVnsIPresContext@@AAVnsIRenderingContext@@ABUnsRect@@W4nsFramePaintLayer@@@Z ; 151187
?GetFrameType@nsTableCellFrame@@UBGIPAPAVnsIAtom@@@Z ; 150842
?GetFrameType@nsTextFrame@@UBGIPAPAVnsIAtom@@@Z ; 149460
??0PerFrameData@nsLineLayout@@QAE@XZ ; 147063
?GetPrimaryFrameFor@PresShell@@UBGIPAVnsIContent@@PAPAVnsIFrame@@@Z ; 146256
?GetFrameType@nsTableRowFrame@@UBGIPAPAVnsIAtom@@@Z ; 140332
?GetContainingBlockReflowState@nsHTMLReflowState@@SAPBU1@PBU1@@Z ; 139448
?Init@nsHTMLReflowState@@IAEXPAVnsIPresContext@@HH@Z ; 138224
?DetermineFrameType@nsHTMLReflowState@@KAIPAVnsIFrame@@PBUnsStylePosition@@PBUnsStyleDisplay@@@Z ; 138224
?InitConstraints@nsHTMLReflowState@@IAEXPAVnsIPresContext@@HH@Z ; 138224
?ComputeMinMaxValues@nsHTMLReflowState@@IAEXHHPBU1@@Z ; 135860
?ComputeMargin@nsHTMLReflowState@@IAEXHPBU1@@Z ; 135860
?ComputePadding@nsHTMLReflowState@@IAEXHPBU1@@Z ; 135860
?GetBorderCollapseStyle@nsTableFrame@@UAEEXZ ; 132423
?Focus@nsMenuListener@@UAEIPAVnsIDOMEvent@@@Z ; 131687
?DoesNeedRecalc@nsBox@@UAEHH@Z ; 130452
?SetTransformedTextIsAscii@nsTextTransformer@@QAEXH@Z ; 129761
??0nsBandTrapezoid@@QAE@XZ ; 126984
?IsHorizontal@nsSprocketLayout@@MBEHPAVnsIBox@@@Z ; 125970
?PaintBorder@nsCSSRendering@@SAXPAVnsIPresContext@@AAVnsIRenderingContext@@PAVnsIFrame@@ABUnsRect@@3ABUnsStyleBorder@@PAVnsIStyleContext@@HPAU5@HH@Z ; 123122
?GetInset@nsBoxFrame@@UAGIAAUnsMargin@@@Z ; 120762
?FindFrameWithContent@nsCSSFrameConstructor@@IAEPAVnsIFrame@@PAVnsIPresContext@@PAV2@PAVnsIContent@@2PAUnsFindFrameHint@@@Z ; 119672
?GetDebugBoxAt@nsBox@@UAGIABUnsPoint@@PAPAVnsIBox@@@Z ; 118046
?PaintBackground@nsCSSRendering@@SAXPAVnsIPresContext@@AAVnsIRenderingContext@@PAVnsIFrame@@ABUnsRect@@3ABUnsStyleColor@@ABUnsStyleBorder@@HH@Z ; 118020
?RemovePropertyForFrame@PropertyList@FrameManager@@QAEHPAVnsIPresContext@@PAVnsIFrame@@@Z ; 117807
??0nsHTMLReflowMetrics@@QAE@PAUnsSize@@I@Z ; 117735
?GetOffsetFromView@nsFrame@@UBGIPAVnsIPresContext@@AAUnsPoint@@PAPAVnsIView@@@Z ; 117590
?DidReflow@nsFrame@@UAGIPAVnsIPresContext@@H@Z ; 116991
?SetFrameState@nsFrame@@UAGII@Z ; 116390
?FirstChild@nsAbsoluteContainingBlock@@QBEIPBVnsIFrame@@PAVnsIAtom@@PAPAV2@@Z ; 114808
?PaintChildren@nsContainerFrame@@MAEXPAVnsIPresContext@@AAVnsIRenderingContext@@ABUnsRect@@W4nsFramePaintLayer@@@Z ; 114227
?GetCursor@nsFrame@@UAGIPAVnsIPresContext@@AAUnsPoint@@AAH@Z ; 114211
?WillReflow@nsFrame@@UAGIPAVnsIPresContext@@@Z ; 113638
?GetMedium@GalleyContext@@UAGIPAPAVnsIAtom@@@Z ; 112539
?GetPixelsToTwips@nsPresContext@@UBGIPAM@Z ; 112515
?GetColIndex@nsTableCellFrame@@UBEIAAH@Z ; 107926
?AddInset@nsBox@@SAXPAVnsIBox@@AAUnsSize@@@Z ; 107333
?GetLayoutFlags@nsBoxLayoutState@@UAEXAAI@Z ; 107144
?AddBorderAndPadding@nsBox@@SAXPAVnsIBox@@AAUnsSize@@@Z ; 107029
?GetTarget@nsHTMLReflowCommand@@UBGIAAPAVnsIFrame@@@Z ; 105397
?PaintOutline@nsCSSRendering@@SAXPAVnsIPresContext@@AAVnsIRenderingContext@@PAVnsIFrame@@ABUnsRect@@3ABUnsStyleBorder@@ABUnsStyleOutline@@PAVnsIStyleContext@@HPAU5@@Z ; 105127
?GetFrameForPoint@nsBlockFrame@@UAGIPAVnsIPresContext@@ABUnsPoint@@W4nsFramePaintLayer@@PAPAVnsIFrame@@@Z ; 103667
?GetFrameType@nsTableOuterFrame@@UBGIPAPAVnsIAtom@@@Z ; 102777
?GetFrameState@nsSprocketLayout@@MAEXPAVnsIBox@@AAI@Z ; 99126
?GetBorderAndPadding@nsTitledBoxFrame@@UAGIAAUnsMargin@@@Z ; 98878
??3nsBoxSize@@SAXPAXI@Z ; 96216
?GetFrameType@nsInlineFrame@@UBGIPAPAVnsIAtom@@@Z ; 95349
?InitializeClasses@LayoutScriptNameSet@@UAGIPAVnsIScriptContext@@@Z ; 94343
??0nsPseudoFrameData@@QAE@XZ ; 93562
?GetNextFrame@nsTableRowGroupFrame@@UAEXPAVnsIFrame@@PAPAV2@@Z ; 90036
?GetFrameType@nsAreaFrame@@UBGIPAPAVnsIAtom@@@Z ; 89617
?GetLayoutFlags@nsBox@@MAEXAAI@Z ; 86842
?GetChildListName@nsHTMLReflowCommand@@UBGIAAPAVnsIAtom@@@Z ; 86569
?Reset@nsPseudoFrameData@@QAEXXZ ; 85659
?CanPlaceFloaterNow@nsLineLayout@@QBEHXZ ; 84684
?GetLookAndFeel@nsPresContext@@UAGIPAPAVnsILookAndFeel@@@Z ; 80299
?GetTableFrame@nsTableFrame@@SGIPAVnsIFrame@@AAPAV1@@Z ; 80149
?IsDirty@nsBox@@UAGIAAH@Z ; 79860
?Allocate@StackArena@@QAEIIPAPAX@Z ; 79749
?AllocateStackMemory@nsBoxLayoutState@@QAEIIPAPAX@Z ; 79749
?AllocateStackMemory@PresShell@@UAGIIPAPAX@Z ; 79749
??2nsBoxSize@@SAPAXIAAVnsBoxLayoutState@@@Z ; 79749
?AdjustFrameSize@nsTextFrame@@UAGIHAAH@Z ; 79511
?GetPrevInFlow@nsSplittableFrame@@UBGIPAPAVnsIFrame@@@Z ; 77872
?GetAscent@nsBoxFrame@@UAGIAAVnsBoxLayoutState@@AAH@Z ; 77857
?ComputeContainingBlockRectangle@nsHTMLReflowState@@QAEXPAVnsIPresContext@@PBU1@AAH2@Z ; 77377
?GetDisplayNonTextSelection@PresShell@@UAGIPAH@Z ; 76692
?SizeNeedsRecalc@nsBox@@UAEXAAUnsSize@@@Z ; 76129
?AddCoord@nsSprocketLayout@@MAEXAAHH@Z ; 75495
?InStrictMode@nsLineLayout@@QAEHXZ ; 74783
?DrawSide@nsCSSRendering@@KAXAAVnsIRenderingContext@@HEIIABUnsRect@@1HHPAU3@@Z ; 74713
?MakeSide@nsCSSRendering@@KAHQAUnsPoint@@AAVnsIRenderingContext@@HABUnsRect@@2HHMH@Z ; 74517
?GetFrameType@nsTableFrame@@UBGIPAPAVnsIAtom@@@Z ; 74085
?PropagateDebug@nsBoxFrame@@MAEXAAVnsBoxLayoutState@@@Z ; 73789
?GetFrameType@nsGfxScrollFrame@@UBGIPAPAVnsIAtom@@@Z ; 72956
??1nsAutoIndexBuffer@@QAE@XZ ; 72319
?GetMaxSize@nsBoxFrame@@UAGIAAVnsBoxLayoutState@@AAUnsSize@@@Z ; 71684
?DrawLine@nsCSSRendering@@KAXAAVnsIRenderingContext@@HHHHPAUnsRect@@@Z ; 71629
?GetPrefSize@nsBoxFrame@@UAGIAAVnsBoxLayoutState@@AAUnsSize@@@Z ; 71270
?GetCurrentEventFrame@PresShell@@AAEPAVnsIFrame@@XZ ; 70663
?Paint@nsTableRowFrame@@UAGIPAVnsIPresContext@@AAVnsIRenderingContext@@ABUnsRect@@W4nsFramePaintLayer@@@Z ; 70374
?PaintChildren@nsTableRowFrame@@UAEXPAVnsIPresContext@@AAVnsIRenderingContext@@ABUnsRect@@W4nsFramePaintLayer@@@Z ; 70374
?CalcQuirkContainingBlockHeight@@YAHABUnsHTMLReflowState@@@Z ; 69953
?GetCellAt@nsCellMap@@QAEPAVCellData@@AAVnsTableCellMap@@HH@Z ; 67655
?AddInset@nsBox@@UAEXAAUnsSize@@@Z ; 67104
?GetMinSize@nsBoxFrame@@UAGIAAVnsBoxLayoutState@@AAUnsSize@@@Z ; 66966
?AddBorderAndPadding@nsBox@@UAEXAAUnsSize@@@Z ; 66800
?SetStyleContext@nsFrame@@UAGIPAVnsIPresContext@@PAVnsIStyleContext@@@Z ; 66662
?GetFrameForPoint@nsTableOuterFrame@@UAGIPAVnsIPresContext@@ABUnsPoint@@W4nsFramePaintLayer@@PAPAVnsIFrame@@@Z ; 66499
?ScanNormalWhiteSpace_F@nsTextTransformer@@IAEHXZ ; 65704
?QueryInterface@nsBoxFrame@@UAGIABUnsID@@PAPAX@Z ; 65360
??1nsFloaterCacheList@@QAE@XZ ; 64033
?IsPercentageBase@nsFrame@@UBGIAAH@Z ; 63501
??4nsBandTrapezoid@@QAEXABUnsRect@@@Z ; 63367
?YMost@nsSpaceManager@@UBGIAAH@Z ; 62931
?ComputeAvailSpaceRect@nsBlockBandData@@IAEXXZ ; 62332
?GetBandData@nsBlockBandData@@IAEIH@Z ; 62332
?GetBandData@nsSpaceManager@@UBGIHABUnsSize@@AAUnsBandData@@@Z ; 62332
?GetRect@nsBandTrapezoid@@QBEXAAUnsRect@@@Z ; 62330
?GetViewManager@PresShell@@UAGIPAPAVnsIViewManager@@@Z ; 62163
?GetAvailableSpace@nsBlockBandData@@QAEIHAAUnsRect@@@Z ; 61611
?GetAvailableSpace@nsBlockReflowState@@QAEXXZ ; 60677
??0nsAutoTextBuffer@@QAE@XZ ; 60595
?GetRowIndex@nsTableRowFrame@@UBEHXZ ; 60318
?GetPrevSiblingFrame@nsHTMLReflowCommand@@UBGIAAPAVnsIFrame@@@Z ; 59589
?BoundsCheck@nsBox@@SAXAAUnsSize@@00@Z ; 59405
??0nsHTMLReflowState@@QAE@PAVnsIPresContext@@ABU0@PAVnsIFrame@@ABUnsSize@@HH@Z ; 59034
?GetFrameForPoint@nsBoxFrame@@UAGIPAVnsIPresContext@@ABUnsPoint@@W4nsFramePaintLayer@@PAPAVnsIFrame@@@Z ; 58933
?GetContentRect@nsBox@@UAGIAAUnsRect@@@Z ; 58403
?NewPerFrameData@nsLineLayout@@IAEIPAPAUPerFrameData@1@@Z ; 58370
?ApplyLeftMargin@nsLineLayout@@IAEXPAUPerFrameData@1@AAUnsHTMLReflowState@@@Z ; 58259
?ReflowFrame@nsLineLayout@@QAEIPAVnsIFrame@@PAPAV2@AAIPAUnsHTMLReflowMetrics@@AAH@Z ; 58259
?CanPlaceFrame@nsLineLayout@@IAEHPAUPerFrameData@1@ABUnsHTMLReflowState@@HAAUnsHTMLReflowMetrics@@AAI@Z ; 58104
?Implementation@?$basic_nsAReadableString@G@@UBEPBXXZ ; 58067
?QueryInterface@PresShell@@UAGIABUnsID@@PAPAX@Z ; 57635
?PlaceFrame@nsLineLayout@@IAEXPAUPerFrameData@1@AAUnsHTMLReflowMetrics@@@Z ; 57589
?GetRowIndex@nsTableCellFrame@@UBEIAAH@Z ; 56697
?GetEffectiveRowSpan@nsTableCellMap@@QAEHHH@Z ; 56596
?GetRowSpan@nsCellMap@@IAEHAAVnsTableCellMap@@HHHAAH@Z ; 56596
?QueryInterface@nsBlockFrame@@UAGIABUnsID@@PAPAX@Z ; 56386
?ComputeBlockBoxData@nsHTMLReflowState@@IAEXPAVnsIPresContext@@PBU1@W4nsStyleUnit@@2HH@Z ; 56275
?QueryInterface@nsMonumentLayout@@UAGIABUnsID@@PAPAX@Z ; 55990
?SetBounds@nsBox@@UAGIAAVnsBoxLayoutState@@ABUnsRect@@@Z ; 55502
?FinishReflowChild@nsContainerFrame@@SAIPAVnsIFrame@@PAVnsIPresContext@@AAUnsHTMLReflowMetrics@@HHI@Z ; 55224
?UseComputedHeight@nsHTMLReflowState@@SAHXZ ; 55187
?IndexOf@nsLineBox@@QBEHPAVnsIFrame@@@Z ; 54091
?AddCSSPrefSize@nsIBox@@SAHAAVnsBoxLayoutState@@PAV1@AAUnsSize@@@Z ; 53961
?GetDefaultFontDeprecated@nsPresContext@@UAEABUnsFont@@XZ ; 53568
?GetDefaultFixedFontDeprecated@nsPresContext@@UAEABUnsFont@@XZ ; 53568
?ResolveStyleContextFor@nsPresContext@@UAGIPAVnsIContent@@PAVnsIStyleContext@@HPAPAV3@@Z ; 53343
?Paint@nsBlockFrame@@UAGIPAVnsIPresContext@@AAVnsIRenderingContext@@ABUnsRect@@W4nsFramePaintLayer@@@Z ; 52916
?Paint@nsLeafFrame@@UAGIPAVnsIPresContext@@AAVnsIRenderingContext@@ABUnsRect@@W4nsFramePaintLayer@@@Z ; 52717
?GetFrameType@nsTableRowGroupFrame@@UBGIPAPAVnsIAtom@@@Z ; 52543
?PaintChildren@nsBlockFrame@@MAEXPAVnsIPresContext@@AAVnsIRenderingContext@@ABUnsRect@@W4nsFramePaintLayer@@@Z ; 52331
?GetLayoutReason@nsBoxLayoutState@@UAE?AW4eBoxLayoutReason@1@XZ ; 52215
?ScanNormalAsciiText_F@nsTextTransformer@@IAEHPAH0@Z ; 51945
?GetOption@nsListControlFrame@@SAPAVnsIDOMHTMLOptionElement@@AAVnsIDOMHTMLCollection@@H@Z ; 51839
?SetActive@nsMenuPopupFrame@@UAGIH@Z ; 51433
?GetVAlign@nsBoxFrame@@UAGIAAW4Valignment@nsIBox@@@Z ; 51270
?GetHAlign@nsBoxFrame@@UAGIAAW4Halignment@nsIBox@@@Z ; 51270
?GetFlex@nsBoxFrame@@UAGIAAVnsBoxLayoutState@@AAH@Z ; 50477
?GetOptionAsContent@nsListControlFrame@@SAPAVnsIContent@@PAVnsIDOMHTMLCollection@@H@Z ; 50100
?CoordNeedsRecalc@nsBox@@UAEXAAH@Z ; 50018
?GetDefaultBackgroundImageAttachment@nsPresContext@@UAGIPAE@Z ; 49648
?GetDefaultBackgroundImageRepeat@nsPresContext@@UAGIPAE@Z ; 49648
?GetDefaultBackgroundImageOffset@nsPresContext@@UAGIPAH0@Z ; 49648
?GetDefaultBackgroundColor@nsPresContext@@UAGIPAI@Z ; 49648
?GetDefaultBackgroundImage@nsPresContext@@UAGIAAVnsString@@@Z ; 49648
?GetLanguageSpecificTransformType@nsPresContext@@UAGIPAW4nsLanguageSpecificTransformType@@@Z ; 48777
??1nsTextTransformer@@QAE@XZ ; 48777
??0nsTextTransformer@@QAE@PAVnsILineBreaker@@PAVnsIWordBreaker@@PAVnsIPresContext@@@Z ; 48777
?IsContentSelected@nsListControlFrame@@IAEHPAVnsIContent@@@Z ; 48664
?SetLargestSize@nsSprocketLayout@@MAEXAAUnsSize@@ABU2@H@Z ; 48591
?AddLargestSize@nsSprocketLayout@@MAEXAAUnsSize@@ABU2@H@Z ; 48591
?AllocateFrame@PresShell@@UAGIIPAPAX@Z ; 48555
?AllocateFrame@FrameArena@@QAEIIPAPAX@Z ; 48555
??1TextStyle@nsTextFrame@@QAE@XZ ; 46515
??0TextStyle@nsTextFrame@@QAE@PAVnsIPresContext@@AAVnsIRenderingContext@@PAVnsIStyleContext@@@Z ; 46515
??0nsHTMLReflowState@@QAE@PAVnsIPresContext@@ABU0@PAVnsIFrame@@ABUnsSize@@@Z ; 46502
?HasDirtyChildren@nsBox@@UAGIAAH@Z ; 46494
?AddCSSMaxSize@nsIBox@@SAHAAVnsBoxLayoutState@@PAV1@AAUnsSize@@@Z ; 45387
?GetCursor@nsBoxFrame@@UAGIPAVnsIPresContext@@AAUnsPoint@@AAH@Z ; 44222
?TranslateEventCoords@nsBoxFrameInner@@QAEXPAVnsIPresContext@@ABUnsPoint@@AAU3@@Z ; 44222
?WillCauseReflow@PresShell@@IAEIXZ ; 44074
?DidCauseReflow@PresShell@@IAEIXZ ; 44074
?GetSize@nsFrame@@UBGIAAUnsSize@@@Z ; 43987
?GetColFrame@nsTableFrame@@QAEPAVnsTableColFrame@@H@Z ; 43214
?Invalidate@nsFrame@@QBEXPAVnsIPresContext@@ABUnsRect@@H@Z ; 43210
?Paint@nsHTMLContainerFrame@@UAGIPAVnsIPresContext@@AAVnsIRenderingContext@@ABUnsRect@@W4nsFramePaintLayer@@@Z ; 43095
?IsPercentageAwareReplacedElement@nsLineLayout@@SAHPAVnsIPresContext@@PAVnsIFrame@@@Z ; 42956
?AddCSSMinSize@nsIBox@@SAHAAVnsBoxLayoutState@@PAV1@AAUnsSize@@@Z ; 42934
?GetTranslation@nsSpaceManager@@UBGIAAH0@Z ; 42747
?FirstChild@nsTableFrame@@UBGIPAVnsIPresContext@@PAVnsIAtom@@PAPAVnsIFrame@@@Z ; 42458
?FirstChild@nsTableOuterFrame@@UBGIPAVnsIPresContext@@PAVnsIAtom@@PAPAVnsIFrame@@@Z ; 42403
?GetWidth@nsTableColFrame@@QAEHI@Z ; 42063
?GetEffectiveColSpan@nsCellMap@@IAEHAAVnsTableCellMap@@HHAAH@Z ; 41910
?Clear@nsBoxSize@@QAEXXZ ; 41456
?GetCollapseOffset@nsTableCellFrame@@QAEXPAVnsIPresContext@@AAUnsPoint@@@Z ; 41001
?Paint@nsTableCellFrame@@UAGIPAVnsIPresContext@@AAVnsIRenderingContext@@ABUnsRect@@W4nsFramePaintLayer@@@Z ; 41001
?Init@nsTextTransformer@@QAEIPAVnsIFrame@@PAVnsIContent@@HH@Z ; 40982
?FirstChild@nsPopupSetFrame@@UBGIPAVnsIPresContext@@PAVnsIAtom@@PAPAVnsIFrame@@@Z ; 40881
?AttributeChanged@PresShell@@UAGIPAVnsIDocument@@PAVnsIContent@@HPAVnsIAtom@@H@Z ; 40624
?AttributeChanged@nsCSSFrameConstructor@@UAGIPAVnsIPresContext@@PAVnsIContent@@HPAVnsIAtom@@H@Z ; 40624
??0nsBoxSize@@QAE@XZ ; 40614
??0nsComputedBoxSize@@QAE@XZ ; 40443
?Clear@nsComputedBoxSize@@QAEXXZ ; 40443
?GetEntryFor@UndisplayedMap@@IAEPAPAUPLHashEntry@@PAVnsIContent@@@Z ; 39917
?RestoreFrameStateFor@FrameManager@@UAGIPAVnsIPresContext@@PAVnsIFrame@@PAVnsILayoutHistoryState@@W4SpecialStateID@nsIStatefulFrame@@@Z ; 39898
?RestoreFrameState@FrameManager@@UAGIPAVnsIPresContext@@PAVnsIFrame@@PAVnsILayoutHistoryState@@@Z ; 39861
?ProbePseudoStyleContextFor@nsPresContext@@UAGIPAVnsIContent@@PAVnsIAtom@@PAVnsIStyleContext@@HPAPAV4@@Z ; 39293
?SetLayoutFlags@nsBoxLayoutState@@UAEXABI@Z ; 39157
?FirstChild@nsMenuFrame@@UBGIPAVnsIPresContext@@PAVnsIAtom@@PAPAVnsIFrame@@@Z ; 39034
?GetFrameType@CanvasFrame@@UBGIPAPAVnsIAtom@@@Z ; 38967
?GetEffectiveRowSpan@nsTableFrame@@UBEHABVnsTableCellFrame@@@Z ; 38908
?FreeFrame@PresShell@@UAGIIPAX@Z ; 38781
?FreeFrame@FrameArena@@QAEIIPAX@Z ; 38781
?CancelReflowCommand@PresShell@@UAGIPAVnsIFrame@@PAW4ReflowType@nsIReflowCommand@@@Z ; 38654
?ReflowInlineFrame@nsBlockFrame@@IAEIAAVnsBlockReflowState@@AAVnsLineLayout@@PAVnsLineBox@@PAVnsIFrame@@PAE@Z ; 38138
?QueryInterface@nsXULTreeSliceFrame@@UAGIABUnsID@@PAPAX@Z ; 38128
?GetSelectionController@nsFrame@@UAGIPAVnsIPresContext@@PAPAVnsISelectionController@@@Z ; 37887
?ComputeChildsNextPosition@nsSprocketLayout@@MAEXPAVnsIBox@@0AAH111ABUnsRect@@2HH@Z ; 37852
?IsPercentageAwareFrame@@YAHPAVnsIPresContext@@PAVnsIFrame@@@Z ; 37759
?IsBlockLevel@nsStyleDisplay@@QBEHXZ ; 37682
?SetCombinedArea@nsLineBox@@QAEXABUnsRect@@@Z ; 37330
?MaybeFreeData@nsLineBox@@IAEXXZ ; 37016
?FreeSpan@nsLineLayout@@IAEXPAUPerSpanData@1@@Z ; 36961
?NewPerSpanData@nsLineLayout@@IAEIPAPAUPerSpanData@1@@Z ; 36961
?VerticalAlignFrames@nsLineLayout@@IAEXPAUPerSpanData@1@@Z ; 36801
?RelativePositionFrames@nsLineLayout@@IAEXPAUPerSpanData@1@AAUnsRect@@@Z ; 36795
?GetIsContextMenu@nsMenuPopupFrame@@UAGIAAH@Z ; 36660
?GetFirstNode@UndisplayedMap@@QAEPAVUndisplayedNode@@PAVnsIContent@@@Z ; 36587
?Allocate@nsBoxLayoutState@@SAPAXIPAVnsIPresShell@@@Z ; 36560
??3nsFrame@@SAXPAXI@Z ; 36559
?AddBorderAndPadding@nsBoxLayout@@UAEXPAVnsIBox@@AAUnsSize@@@Z ; 36260
?AddInset@nsBoxLayout@@UAEXPAVnsIBox@@AAUnsSize@@@Z ; 36260
?CalcLineHeight@nsHTMLReflowState@@SAHPAVnsIPresContext@@PAVnsIRenderingContext@@PAVnsIFrame@@@Z ; 35876
?ReflowChild@nsContainerFrame@@QAEIPAVnsIFrame@@PAVnsIPresContext@@AAUnsHTMLReflowMetrics@@ABUnsHTMLReflowState@@HHIAAI@Z ; 35815
?StopAllLoadImagesFor@nsPresContext@@UAGIPAVnsIFrame@@PAX@Z ; 35516
?GetMinWidth@nsTableColFrame@@QAEHXZ ; 35369
?GetCellInfoAt@nsTableFrame@@QAEPAVnsTableCellFrame@@HHPAH0@Z ; 35027
?GetCellInfoAt@nsTableCellMap@@QAEPAVnsTableCellFrame@@HHPAH0@Z ; 35027
?GetCellInfoAt@nsCellMap@@QAEPAVnsTableCellFrame@@AAVnsTableCellMap@@HHPAH1@Z ; 35027
?IsFrameTreeTooDeep@nsFrame@@QAEHABUnsHTMLReflowState@@AAUnsHTMLReflowMetrics@@@Z ; 34935
?PostPlaceLine@nsBlockFrame@@IAEXAAVnsBlockReflowState@@PAVnsLineBox@@ABUnsSize@@@Z ; 34230
?ReflowLine@nsBlockFrame@@IAEIAAVnsBlockReflowState@@PAVnsLineBox@@PAHH@Z ; 34230
?ComputeCollapsedTopMargin@nsBlockReflowContext@@SAHPAVnsIPresContext@@AAUnsHTMLReflowState@@@Z ; 34154
?Reflow@nsTextFrame@@UAGIPAVnsIPresContext@@AAUnsHTMLReflowMetrics@@ABUnsHTMLReflowState@@AAI@Z ; 33872
?SetLeaveAsAscii@nsTextTransformer@@QAEXH@Z ; 33869
?LineIsBreakable@nsLineLayout@@QBEHXZ ; 33869
?MeasureText@nsTextFrame@@QAEIPAVnsIPresContext@@ABUnsHTMLReflowState@@AAVnsTextTransformer@@PAVnsILineBreaker@@AAUTextStyle@1@AAUTextReflowData@1@@Z ; 33869
?GetClientRect@nsBox@@UAGIAAUnsRect@@@Z ; 33863
?Init@nsFrame@@UAGIPAVnsIPresContext@@PAVnsIContent@@PAVnsIFrame@@PAVnsIStyleContext@@2@Z ; 33704
??0nsFrame@@IAE@XZ ; 33704
??1nsFrame@@MAE@XZ ; 33703
?RemoveAllPropertiesFor@FrameManager@@AAEXPAVnsIPresContext@@PAVnsIFrame@@@Z ; 33703
?NotifyDestroyingFrame@PresShell@@UAGIPAVnsIFrame@@@Z ; 33703
?DequeuePostedEventFor@FrameManager@@AAEXPAVnsIFrame@@@Z ; 33703
?NotifyDestroyingFrame@FrameManager@@UAGIPAVnsIFrame@@@Z ; 33703
?FindPostedEventFor@FrameManager@@AAEPAPAUCantRenderReplacedElementEvent@@PAVnsIFrame@@@Z ; 33703
?Destroy@nsFrame@@UAGIPAVnsIPresContext@@@Z ; 33703
?GetCellSpacingY@nsTableFrame@@UAEHXZ ; 33645
?GetSkipSides@nsTableCellFrame@@MBEHXZ ; 33442
?Paint@nsTextFrame@@UAGIPAVnsIPresContext@@AAVnsIRenderingContext@@ABUnsRect@@W4nsFramePaintLayer@@@Z ; 33213
?GetAdditionalStyleContext@nsFrame@@UBGIHPAPAVnsIStyleContext@@@Z ; 33190
?ReResolveStyleContext@FrameManager@@AAEXPAVnsIPresContext@@PAVnsIFrame@@PAVnsIStyleContext@@PAVnsIContent@@HPAVnsIAtom@@AAVnsStyleChangeList@@HAAH@Z ; 33077
?GetDisplaySelection@PresShell@@UAGIPAF@Z ; 32041
?Release@nsSpaceManager@@UAGKXZ ; 31816
?SyncLayout@nsBox@@UAEIAAVnsBoxLayoutState@@@Z ; 31402
?SetInitialChildList@nsFormControlFrame@@UAGIPAVnsIPresContext@@PAVnsIAtom@@PAVnsIFrame@@@Z ; 31076
?CaptureFrameStateFor@FrameManager@@UAGIPAVnsIPresContext@@PAVnsIFrame@@PAVnsILayoutHistoryState@@W4SpecialStateID@nsIStatefulFrame@@@Z ; 30366
?CaptureFrameState@FrameManager@@UAGIPAVnsIPresContext@@PAVnsIFrame@@PAVnsILayoutHistoryState@@@Z ; 30341
??0nsHTMLReflowState@@QAE@PAVnsIPresContext@@ABU0@PAVnsIFrame@@ABUnsSize@@W4nsReflowReason@@@Z ; 30324
?TrimTrailingWhiteSpaceIn@nsLineLayout@@IAEHPAUPerSpanData@1@PAH@Z ; 30108
?RemoveFrame@nsFrameImageLoader@@UAGIPAX@Z ; 29782
?SafeToDestroy@nsFrameImageLoader@@UAGIPAH@Z ; 29650
?DestroyFrames@nsFrameList@@QAEXPAVnsIPresContext@@@Z ; 29464
?InitAndRestoreFrame@nsCSSFrameConstructor@@IAEIPAVnsIPresContext@@AAVnsFrameConstructorState@@PAVnsIContent@@PAVnsIFrame@@PAVnsIStyleContext@@33@Z ; 29255
?NextChild@ChildIterator@@QAEXPAPAVnsIContent@@@Z ; 28617
?GetContentForEvent@nsFrame@@UAGIPAVnsIPresContext@@PAUnsEvent@@PAPAVnsIContent@@@Z ; 28452
?GetDeviceContext@nsPresContext@@UBGIPAPAVnsIDeviceContext@@@Z ; 28427
?GetParentStyleContextProvider@nsFrame@@UAGIPAVnsIPresContext@@PAPAVnsIFrame@@AAW4nsContextProviderRelationship@@@Z ; 28313
?DigDeep@nsLayoutIterator@@UAEHPAPAVnsIBoxLayout@@H@Z ; 27522
?EndLayout@nsBox@@MAGIAAVnsBoxLayoutState@@@Z ; 27458
?Layout@nsBox@@UAGIAAVnsBoxLayoutState@@@Z ; 27458
?GetImage@nsFrameImageLoader@@UAGIPAPAVnsIImage@@@Z ; 27195
?IsSelectable@nsFrame@@UBGIPAHPAE@Z ; 27171
?GetAdditionalChildListName@nsTableFrame@@UBGIHPAPAVnsIAtom@@@Z ; 26928
?SetSmallestSize@nsSprocketLayout@@MAEXAAUnsSize@@ABU2@H@Z ; 26904
?AddSmallestSize@nsSprocketLayout@@MAEXAAUnsSize@@ABU2@H@Z ; 26904
?GetAdditionalChildListName@nsTableOuterFrame@@UBGIHPAPAVnsIAtom@@@Z ; 26858
?GetNext@nsHTMLReflowCommand@@UAGIAAPAVnsIFrame@@H@Z ; 26496
?AddChild@nsFrameItems@@QAEXPAVnsIFrame@@@Z ; 26407
?GetCellBorder@nsTableCellFrame@@AAEXAAUnsMargin@@PAVnsTableFrame@@@Z ; 26276
?LastChild@nsLineBox@@QBEPAVnsIFrame@@XZ ; 25191
?RecoverStateFrom@nsBlockReflowState@@QAEXPAVnsLineBox@@HHPAUnsRect@@@Z ; 25023
?RecoverStateFrom@nsBlockFrame@@IAEXAAVnsBlockReflowState@@PAVnsLineBox@@HPAUnsRect@@@Z ; 25023
?SlideLine@nsBlockFrame@@IAEXAAVnsBlockReflowState@@PAVnsLineBox@@H@Z ; 25023
?GetNextLayout@nsLayoutIterator@@UAEHPAPAVnsIBoxLayout@@H@Z ; 24722
?Next@nsTableIterator@@QAEPAVnsIFrame@@XZ ; 24664
??4nsPseudoFrames@@QAEAAU0@ABU0@@Z ; 24474
?HandlePostedReflowCallbacks@PresShell@@IAEXXZ ; 24288
?HandlePostedDOMEvents@PresShell@@IAEXXZ ; 24288
?HandlePostedAttributeChanges@PresShell@@IAEXXZ ; 24288
?ProcessReflowCommands@PresShell@@IAEIH@Z ; 24202
?IsSafeToFlush@PresShell@@UAGIAAH@Z ; 24186
?GetNumCellsOriginatingInCol@nsTableCellMap@@QBEHH@Z ; 24156
?GetNumCellsOriginatingInCol@nsTableFrame@@QBEHH@Z ; 24156
?GetCellSpacingX@nsTableFrame@@UAEHXZ ; 24128
?NeedsRecalc@nsBoxFrame@@UAGIXZ ; 23504
?GetFlex@nsBox@@UAGIAAVnsBoxLayoutState@@AAH@Z ; 23466
?AddSegment@TextRun@@QAEXHHH@Z ; 23254
?GetDefaultFlex@nsSprocketLayout@@MAEHAAH@Z ; 23229
?AddCSSFlex@nsIBox@@SAHAAVnsBoxLayoutState@@PAV1@AAH@Z ; 23229
?GetVerticalMarginBorderPadding@@YAHPBUnsHTMLReflowState@@@Z ; 23134
?GetAnonymousContentFor@PresShell@@UAGIPAVnsIContent@@PAPAVnsISupportsArray@@@Z ; 23120
?AppendFloaters@nsLineBox@@QAEXAAVnsFloaterCacheFreeList@@@Z ; 23070
?HorizontalAlignFrames@nsLineLayout@@QAEHAAUnsRect@@HH@Z ; 23066
?PlaceLine@nsBlockFrame@@IAEIAAVnsBlockReflowState@@AAVnsLineLayout@@PAVnsLineBox@@PAHH@Z ; 23066
?FreeFloaters@nsLineBox@@QAEXAAVnsFloaterCacheFreeList@@@Z ; 23066
?ReflowInlineFrames@nsBlockFrame@@IAEIAAVnsBlockReflowState@@PAVnsLineBox@@PAHHH@Z ; 23066
?BeginLineReflow@nsLineLayout@@QAEXHHHHHH@Z ; 23066
?RelativePositionFrames@nsLineLayout@@QAEXAAUnsRect@@@Z ; 23066
?TrimTrailingWhiteSpace@nsLineLayout@@QAEHXZ ; 23066
?EndLineReflow@nsLineLayout@@QAEXXZ ; 23066
??1nsLineLayout@@QAE@XZ ; 23066
?VerticalAlignFrames@nsLineLayout@@QAEXPAVnsLineBox@@AAUnsSize@@AAH@Z ; 23066
?DoReflowInlineFrames@nsBlockFrame@@IAEIAAVnsBlockReflowState@@AAVnsLineLayout@@PAVnsLineBox@@PAHPAEHH@Z ; 23066
??0nsLineLayout@@QAE@PAVnsIPresContext@@PAVnsISpaceManager@@PBUnsHTMLReflowState@@H@Z ; 23066
?CreateAnonymousFrames@nsCSSFrameConstructor@@IAEIPAVnsIPresShell@@PAVnsIPresContext@@PAVnsIAtom@@AAVnsFrameConstructorState@@PAVnsIContent@@PAVnsIFrame@@AAUnsFrameItems@@@Z ; 23056
?ConstructFrameInternal@nsCSSFrameConstructor@@IAEIPAVnsIPresShell@@PAVnsIPresContext@@AAVnsFrameConstructorState@@PAVnsIContent@@PAVnsIFrame@@PAVnsIAtom@@HPAVnsIStyleContext@@AAUnsFrameItems@@H@Z ; 23049
?FlushPendingNotifications@PresShell@@UAGIXZ ; 23032
?HasVerticalAlignBaseline@nsTableCellFrame@@QAEHXZ ; 23007
?GetParentWithView@nsFrame@@UBGIPAVnsIPresContext@@PAPAVnsIFrame@@@Z ; 22781
?AttributeChanged@nsFrame@@UAGIPAVnsIPresContext@@PAVnsIContent@@HPAVnsIAtom@@H@Z ; 22726
?Clear@nsStyleChangeList@@QAEXXZ ; 22718
?ResolveStyleContext@nsCSSFrameConstructor@@IAEIPAVnsIPresContext@@PAVnsIFrame@@PAVnsIContent@@PAVnsIAtom@@PAPAVnsIStyleContext@@@Z ; 22659
?SetNextSibling@nsFrame@@UAGIPAVnsIFrame@@@Z ; 22627
?DoReflowInlineFramesAuto@nsBlockFrame@@IAEIAAVnsBlockReflowState@@PAVnsLineBox@@PAHPAEHH@Z ; 22608
?SyncLayout@nsBoxFrame@@UAEIAAVnsBoxLayoutState@@@Z ; 22548
?GetImage@nsHTMLImageLoader@@QAEPAVnsIImage@@XZ ; 22534
?ConstructFrame@nsCSSFrameConstructor@@IAEIPAVnsIPresShell@@PAVnsIPresContext@@AAVnsFrameConstructorState@@PAVnsIContent@@PAVnsIFrame@@AAUnsFrameItems@@@Z ; 22383
?GetTopBlockChild@nsBlockFrame@@QAEPAVnsIFrame@@XZ ; 22007
?CreateGeneratedContentFrame@nsCSSFrameConstructor@@IAEHPAVnsIPresShell@@PAVnsIPresContext@@AAVnsFrameConstructorState@@PAVnsIFrame@@PAVnsIContent@@PAVnsIStyleContext@@PAVnsIAtom@@HPAPAV5@@Z ; 21869
?ConstructFrameByTag@nsCSSFrameConstructor@@IAEIPAVnsIPresShell@@PAVnsIPresContext@@AAVnsFrameConstructorState@@PAVnsIContent@@PAVnsIFrame@@PAVnsIAtom@@HPAVnsIStyleContext@@AAUnsFrameItems@@PAH@Z ; 21764
?QueryInterface@nsTableFrame@@UAGIABUnsID@@PAPAX@Z ; 21399
?CalcTextSize@nsTextBoxFrame@@MAEXAAVnsBoxLayoutState@@@Z ; 21292
?AttributeChanged@nsBoxFrame@@UAGIPAVnsIPresContext@@PAVnsIContent@@HPAVnsIAtom@@H@Z ; 21269
?Init@nsBlockBandData@@QAEIPAVnsISpaceManager@@ABUnsSize@@@Z ; 21164
??0nsBlockBandData@@QAE@XZ ; 21164
?ReflowDirtyLines@nsBlockFrame@@IAEIAAVnsBlockReflowState@@@Z ; 21164
??0nsBlockReflowState@@QAE@ABUnsHTMLReflowState@@PAVnsIPresContext@@PAVnsBlockFrame@@ABUnsHTMLReflowMetrics@@H@Z ; 21164
??1nsBlockBandData@@QAE@XZ ; 21164
??1nsBlockReflowState@@QAE@XZ ; 21164
?GetFrameType@nsImageFrame@@UBGIPAPAVnsIAtom@@@Z ; 21113
?Reflow@nsBlockFrame@@UAGIPAVnsIPresContext@@AAUnsHTMLReflowMetrics@@ABUnsHTMLReflowState@@AAI@Z ; 21072
?IsAutoLayout@nsTableFrame@@UAEHXZ ; 21070
?ComputeFinalSize@nsBlockFrame@@MAEXABUnsHTMLReflowState@@AAVnsBlockReflowState@@AAUnsHTMLReflowMetrics@@@Z ; 21040
?BuildFloaterList@nsBlockFrame@@IAEXXZ ; 20978
?CreateViewForFrame@nsHTMLContainerFrame@@SAIPAVnsIPresContext@@PAVnsIFrame@@PAVnsIStyleContext@@1H@Z ; 20830
?DisplaySelection@nsFrame@@IAEFPAVnsIPresContext@@H@Z ; 20670
?BeginLayout@nsBoxFrame@@UAGIAAVnsBoxLayoutState@@@Z ; 20459
?ReflowInlineFrame@nsInlineFrame@@IAEIPAVnsIPresContext@@ABUnsHTMLReflowState@@AAUInlineReflowState@1@PAVnsIFrame@@AAI@Z ; 20121
??0nsISupportsKey@@QAE@PAVnsISupports@@@Z ; 20097
??1nsISupportsKey@@UAE@XZ ; 20097
?GetColumnWidth@nsTableFrame@@UAEHH@Z ; 20075
?AttributeChanged@nsGfxScrollFrameInner@@UAGIPAVnsIDocument@@PAVnsIContent@@HPAVnsIAtom@@H@Z ; 19850
?GetMaxSize@nsBox@@UAGIAAVnsBoxLayoutState@@AAUnsSize@@@Z ; 19688
?ShouldApplyTopMargin@nsBlockFrame@@IAEHAAVnsBlockReflowState@@PAVnsLineBox@@@Z ; 19657
?ComputeBlockAvailSpace@nsBlockReflowState@@QAEXPAVnsIFrame@@IPBUnsStyleDisplay@@AAUnsRect@@@Z ; 19657
?GetParent@nsBoxSizeListNodeImpl@@UAEPAVnsBoxSizeList@@XZ ; 19636
?GetImageMap@nsImageFrame@@IAEPAVnsImageMap@@PAVnsIPresContext@@@Z ; 19450
?GetFrameType@BRFrame@@UBGIPAPAVnsIAtom@@@Z ; 19420
?Paint@nsImageFrame@@UAGIPAVnsIPresContext@@AAVnsIRenderingContext@@ABUnsRect@@W4nsFramePaintLayer@@@Z ; 19152
?IsLeftToRight@nsTableIterator@@QAEHXZ ; 18907
?GetFirstFrame@nsTableRowGroupFrame@@UAEPAVnsIFrame@@XZ ; 18860
?SetTallestCell@nsTableRowFrame@@QAEXHHHPAVnsTableFrame@@PAVnsTableCellFrame@@@Z ; 18493
?Destroy@nsContainerFrame@@UAGIPAVnsIPresContext@@@Z ; 18313
??1nsContainerFrame@@MAE@XZ ; 18313
??0nsContainerFrame@@IAE@XZ ; 18313
?Init@nsSplittableFrame@@UAGIPAVnsIPresContext@@PAVnsIContent@@PAVnsIFrame@@PAVnsIStyleContext@@2@Z ; 18313
?CalculateCellActualSize@nsTableRowFrame@@QAEIPAVnsIFrame@@AAH1H@Z ; 18194
?VerticallyAlignChild@nsTableCellFrame@@UAEXPAVnsIPresContext@@ABUnsHTMLReflowState@@H@Z ; 17907
?GetPadding@nsTableFrame@@SA?AUnsMargin@@ABUnsHTMLReflowState@@PBVnsTableCellFrame@@@Z ; 17907
?GetEffectiveColSpan@nsTableCellMap@@QAEHHH@Z ; 17789
?GetEffectiveColSpan@nsTableFrame@@UBEHABVnsTableCellFrame@@@Z ; 17789
?GetEffectiveRowSpan@nsTableFrame@@UBEHHABVnsTableCellFrame@@@Z ; 17688
?MakeBevelColor@nsCSSRendering@@KAIHEIIH@Z ; 17644
?DoLayout@nsContainerBox@@UAGIAAVnsBoxLayoutState@@@Z ; 17484
?DoLayout@nsBoxFrame@@UAGIAAVnsBoxLayoutState@@@Z ; 17484
?PaintFloaters@nsBlockFrame@@IAEXPAVnsIPresContext@@AAVnsIRenderingContext@@ABUnsRect@@@Z ; 17321
?AllocLeafNode@NodeArena@nsDST@@QAEPAXXZ ; 17224
?FreeNode@NodeArena@nsDST@@QAEXPAVLeafNode@2@@Z ; 17213
?PullFrame@nsBlockFrame@@IAEIAAVnsBlockReflowState@@PAVnsLineBox@@HAAPAVnsIFrame@@@Z ; 17194
??0nsAbsoluteItems@@QAE@PAVnsIFrame@@@Z ; 17139
?AlignBlockHorizontally@nsBlockReflowContext@@QAEXHAAUnsBlockHorizontalAlign@@@Z ; 16906
?ResolvePseudoStyleWithComparator@nsPresContext@@UAGIPAVnsIContent@@PAVnsIAtom@@PAVnsIStyleContext@@HPAVnsICSSPseudoComparator@@PAPAV4@@Z ; 16349
?ResolvePseudoStyleContextFor@nsPresContext@@UAGIPAVnsIContent@@PAVnsIAtom@@PAVnsIStyleContext@@HPAPAV4@@Z ; 16349
?Release@nsBoxObject@@UAGKXZ ; 16251
?MidPointDivide@QBCurve@@QAEXPAV1@0@Z ; 16216
?GetParentMonument@nsMonumentLayout@@UAGIPAVnsIBox@@AAV?$nsCOMPtr@VnsIBox@@@@PAPAVnsIMonument@@@Z ; 16068
?PrepareResizeReflow@nsBlockFrame@@IAEIAAVnsBlockReflowState@@@Z ; 15981
?GetDesiredAscent@nsTableCellFrame@@UAEHXZ ; 15939
?DrainOverflowLines@nsBlockFrame@@IAEHPAVnsIPresContext@@@Z ; 15925
?GetOverflowLines@nsBlockFrame@@IBEPAVnsLineBox@@PAVnsIPresContext@@H@Z ; 15925
?RelayoutDirtyChild@nsBox@@UAGIAAVnsBoxLayoutState@@PAVnsIBox@@@Z ; 15859
?GetOverflowFrames@nsContainerFrame@@IBEPAVnsIFrame@@PAVnsIPresContext@@H@Z ; 15614
?Redraw@nsBox@@UAGIAAVnsBoxLayoutState@@PBUnsRect@@H@Z ; 15578
?GetDisablePainting@nsBoxLayoutState@@UAEHXZ ; 15578
?GetPrefSize@nsImageBoxFrame@@UAGIAAVnsBoxLayoutState@@AAUnsSize@@@Z ; 15571
?GetColCount@nsTableFrame@@UAEHXZ ; 15516
?GetFrameType@ViewportFrame@@UBGIPAPAVnsIAtom@@@Z ; 15416
?SetWidth@nsTableColFrame@@QAEXIH@Z ; 15345
?Paint@nsContainerFrame@@UAGIPAVnsIPresContext@@AAVnsIRenderingContext@@ABUnsRect@@W4nsFramePaintLayer@@@Z ; 15207
?SubDivide@QBCurve@@QAEXPAVnsIRenderingContext@@QAUnsPoint@@PAH@Z ; 14896
?Layout@nsSprocketLayout@@UAGIPAVnsIBox@@AAVnsBoxLayoutState@@@Z ; 14827
?Add@nsBoxSize@@QAEXABUnsMargin@@H@Z ; 14746
?GetDesiredSize@nsTableCellFrame@@UAE?AUnsSize@@XZ ; 14643
??0ChildIterator@@QAE@PAVnsIContent@@@Z ; 14495
??1ChildIterator@@QAE@XZ ; 14495
?GetContentOf@nsBoxFrame@@UAEIPAPAVnsIContent@@@Z ; 14435
?PopCurrentEventInfo@PresShell@@AAEXXZ ; 14420
?PushCurrentEventInfo@PresShell@@AAEXPAVnsIFrame@@PAVnsIContent@@@Z ; 14420
?HandleEventInternal@PresShell@@AAEIPAUnsEvent@@PAVnsIView@@IPAW4nsEventStatus@@@Z ; 14290
?ReflowBlock@nsBlockReflowContext@@QAEIPAVnsIFrame@@ABUnsRect@@HHHAAUnsMargin@@AAI@Z ; 14280
??0nsBlockReflowContext@@QAE@PAVnsIPresContext@@ABUnsHTMLReflowState@@HH@Z ; 14280
?DoReflowBlock@nsBlockReflowContext@@IAEIAAUnsHTMLReflowState@@W4nsReflowReason@@PAVnsIFrame@@ABUnsRect@@HHHAAUnsMargin@@AAI@Z ; 14280
?Insert@nsDST@@QAEIPAX0PAPAX@Z ; 14175
?GetAscent@nsContainerBox@@UAGIAAVnsBoxLayoutState@@AAH@Z ; 14033
?PositionFrameView@nsContainerFrame@@SAXPAVnsIPresContext@@PAVnsIFrame@@PAVnsIView@@@Z ; 13911
?ReflowFrames@nsInlineFrame@@IAEIPAVnsIPresContext@@ABUnsHTMLReflowState@@AAUInlineReflowState@1@AAUnsHTMLReflowMetrics@@AAI@Z ; 13895
?Reflow@nsInlineFrame@@UAGIPAVnsIPresContext@@AAUnsHTMLReflowMetrics@@ABUnsHTMLReflowState@@AAI@Z ; 13895
?EndSpan@nsLineLayout@@QAEXPAVnsIFrame@@AAUnsSize@@PAU3@@Z ; 13895
?BeginSpan@nsLineLayout@@QAEIPAVnsIFrame@@PBUnsHTMLReflowState@@HH@Z ; 13895
?SetCarriedOutBottomMargin@nsLineBox@@QAEXH@Z ; 13857
?ReflowBlockFrame@nsBlockFrame@@IAEIAAVnsBlockReflowState@@PAVnsLineBox@@PAH@Z ; 13857
?PlaceBlock@nsBlockReflowContext@@QAEHHABUnsMargin@@PAHAAUnsRect@@2@Z ; 13857
?HandleEvent@PresShell@@UAGIPAVnsIView@@PAUnsGUIEvent@@PAW4nsEventStatus@@HAAH@Z ; 13856
?PlaceTopBottomFrames@nsLineLayout@@IAEXPAUPerSpanData@1@HH@Z ; 13729
?GetPriorAvailWidth@nsTableCellFrame@@UAEHXZ ; 13678
?GetHeightOfRowsSpannedBelowFirst@@YAHAAVnsTableCellFrame@@AAVnsTableFrame@@@Z ; 13516
?ComputeChildSizes@nsSprocketLayout@@MAEXPAVnsIBox@@AAVnsBoxLayoutState@@AAHPAVnsBoxSize@@AAPAVnsComputedBoxSize@@@Z ; 13492
?PushStackMemory@nsBoxLayoutState@@QAEIXZ ; 13418
?Push@StackArena@@QAEIXZ ; 13418
?PopStackMemory@PresShell@@UAGIXZ ; 13418
?PopStackMemory@nsBoxLayoutState@@QAEIXZ ; 13418
?Pop@StackArena@@QAEIXZ ; 13418
?PopulateBoxSizes@nsSprocketLayout@@MAEXPAVnsIBox@@AAVnsBoxLayoutState@@AAPAVnsBoxSize@@AAPAVnsComputedBoxSize@@AAH44@Z ; 13418
?PushStackMemory@PresShell@@UAGIXZ ; 13418
??0nsPseudoFrames@@QAE@XZ ; 13366
?GetAscent@nsSprocketLayout@@UAGIPAVnsIBox@@AAVnsBoxLayoutState@@AAH@Z ; 13268
?ClearFrameInfo@nsSpaceManager@@IAEXXZ ; 13024
?Clear@BandList@nsSpaceManager@@QAEXXZ ; 13024
?GetMinSize@nsContainerBox@@UAGIAAVnsBoxLayoutState@@AAUnsSize@@@Z ; 12935
?GetPrefSize@nsContainerBox@@UAGIAAVnsBoxLayoutState@@AAUnsSize@@@Z ; 12931
?GetMaxSize@nsContainerBox@@UAGIAAVnsBoxLayoutState@@AAUnsSize@@@Z ; 12881
?GetSkipSides@nsInlineFrame@@MBEHXZ ; 12769
?HandleEvent@nsFrame@@UAGIPAVnsIPresContext@@PAUnsGUIEvent@@PAW4nsEventStatus@@@Z ; 12665
?IsSplittable@nsBlockFrame@@UBGIAAI@Z ; 12379
?TreatFrameAsBlock@nsLineLayout@@SAHPAVnsIFrame@@@Z ; 12243
?IsOnlyWhiteSpace@@YAHPAVnsIContent@@@Z ; 12242
?Reset@nsPseudoFrames@@QAEXPAU1@@Z ; 12237
?UpdateAttributes@nsTextBoxFrame@@UAEXPAVnsIPresContext@@PAVnsIAtom@@AAH2@Z ; 12166
?GetMaxSize@nsSprocketLayout@@UAGIPAVnsIBox@@AAVnsBoxLayoutState@@AAUnsSize@@@Z ; 12115
?GetPrefSize@nsSprocketLayout@@UAGIPAVnsIBox@@AAVnsBoxLayoutState@@AAUnsSize@@@Z ; 11942
?PlaceChild@nsTableRowFrame@@IAEXPAVnsIPresContext@@AAURowReflowState@@PAVnsIFrame@@AAUnsHTMLReflowMetrics@@HHPAUnsSize@@4@Z ; 11852
?SetPrimaryFrameFor@FrameManager@@UAGIPAVnsIContent@@PAVnsIFrame@@@Z ; 11821
?StartLoadImage@nsPresContext@@UAGIABVnsString@@PBIPBUnsSize@@PAVnsIFrame@@P6AIPAVnsIPresContext@@PAVnsIFrameImageLoader@@3PAXI@Z66PAPAV6@@Z ; 11815
??0nsAutoIndexBuffer@@QAE@XZ ; 11724
?SetParent@nsFrame@@UAGIPBVnsIFrame@@@Z ; 11677
?GrowTo@nsAutoIndexBuffer@@QAEIH@Z ; 11651
?GetContainer@nsPresContext@@UAGIPAPAVnsISupports@@@Z ; 11541
?AttributeChanged@nsTextBoxFrame@@UAGIPAVnsIPresContext@@PAVnsIContent@@HPAVnsIAtom@@H@Z ; 11418
?ProcessRestyledFrames@nsCSSFrameConstructor@@UAGIAAVnsStyleChangeList@@PAVnsIPresContext@@@Z ; 11353
??1nsStyleChangeList@@QAE@XZ ; 11353
??0nsStyleChangeList@@QAE@XZ ; 11353
??0nsBoxLayoutState@@QAE@PAVnsIPresContext@@@Z ; 11274
??1BandRect@nsSpaceManager@@QAE@XZ ; 11251
??0BandRect@nsSpaceManager@@QAE@HHHHPAVnsIFrame@@@Z ; 11251
?GetCellAt@nsTableCellMap@@QAEPAVCellData@@HH@Z ; 11248
?PaintTextDecorations@nsTextFrame@@QAEXAAVnsIRenderingContext@@PAVnsIStyleContext@@AAUTextStyle@1@HHHPAGPAUSelectionDetails@@IIPBH@Z ; 11131
?IsVisibleForPainting@nsTextFrame@@UAGIPAVnsIPresContext@@AAVnsIRenderingContext@@HPAH@Z ; 11131
?IsRenderingOnlySelection@nsPresContext@@UAGIPAH@Z ; 11131
?GetTextInfoForPainting@nsTextFrame@@QAEIPAVnsIPresContext@@AAVnsIRenderingContext@@PAPAVnsIPresShell@@PAPAVnsISelectionController@@AAH44AAFPAPAVnsILineBreaker@@@Z ; 11131
?AppendChange@nsStyleChangeList@@QAEIPAVnsIFrame@@PAVnsIContent@@H@Z ; 11128
?SyncFrameViewAfterReflow@nsContainerFrame@@SAXPAVnsIPresContext@@PAVnsIFrame@@PAVnsIView@@PBUnsRect@@I@Z ; 11113
?IsIncrementalDamageConstrained@nsBlockFrame@@IBEHABVnsBlockReflowState@@@Z ; 11059
?GetCellFrame@nsCellMap@@QBEPAVnsTableCellFrame@@HHAAVCellData@@H@Z ; 11002
?GetWindow@nsFrame@@UBGIPAVnsIPresContext@@PAPAVnsIWidget@@@Z ; 10994
?Notify@nsFrameImageLoader@@UAEXPAVnsIImageRequest@@PAVnsIImage@@W4nsImageNotification@@HHPAX@Z ; 10967
?Paint@nsImageBoxFrame@@UAGIPAVnsIPresContext@@AAVnsIRenderingContext@@ABUnsRect@@W4nsFramePaintLayer@@@Z ; 10770
??1nsLineBox@@AAE@XZ ; 10706
?NS_NewLineBox@@YAPAVnsLineBox@@PAVnsIPresShell@@PAVnsIFrame@@HH@Z ; 10706
??2nsLineBox@@CAPAXIPAVnsIPresShell@@@Z ; 10706
??0nsLineBox@@AAE@PAVnsIFrame@@HH@Z ; 10706
?Cleanup@nsLineBox@@IAEXXZ ; 10706
??0nsSpaceManager@@QAE@PAVnsIFrame@@@Z ; 10652
??0BandList@nsSpaceManager@@QAE@XZ ; 10652
?ChangeAt@nsStyleChangeList@@QBEIHAAPAVnsIFrame@@AAPAVnsIContent@@AAH@Z ; 10652
??_EnsSpaceManager@@MAEPAXI@Z ; 10652
??1nsSpaceManager@@MAE@XZ ; 10652
?Paint@nsTableFrame@@UAGIPAVnsIPresContext@@AAVnsIRenderingContext@@ABUnsRect@@W4nsFramePaintLayer@@@Z ; 10605
?Paint@nsTableOuterFrame@@UAGIPAVnsIPresContext@@AAVnsIRenderingContext@@ABUnsRect@@W4nsFramePaintLayer@@@Z ; 10605
?Paint@nsTableRowGroupFrame@@UAGIPAVnsIPresContext@@AAVnsIRenderingContext@@ABUnsRect@@W4nsFramePaintLayer@@@Z ; 10593
?PaintChildren@nsTableRowGroupFrame@@UAEXPAVnsIPresContext@@AAVnsIRenderingContext@@ABUnsRect@@W4nsFramePaintLayer@@@Z ; 10593
?AddFrame@nsFrameImageLoader@@UAGIPAVnsIFrame@@P6AIPAVnsIPresContext@@PAVnsIFrameImageLoader@@0PAXI@Z33@Z ; 10590
?GetNextMonument@nsMonumentIterator@@UAEHPAPAVnsIMonument@@H@Z ; 10573
?ConstructXULFrame@nsCSSFrameConstructor@@IAEIPAVnsIPresShell@@PAVnsIPresContext@@AAVnsFrameConstructorState@@PAVnsIContent@@PAVnsIFrame@@PAVnsIAtom@@HPAVnsIStyleContext@@AAUnsFrameItems@@HAAH@Z ; 10522
?QueryInterface@nsSpaceManager@@UAGIABUnsID@@PAPAX@Z ; 10404
?GetMinSize@nsSprocketLayout@@UAGIPAVnsIBox@@AAVnsBoxLayoutState@@AAUnsSize@@@Z ; 10381
?ContentInserted@nsGfxScrollFrameInner@@UAGIPAVnsIDocument@@PAVnsIContent@@1H@Z ; 10327
?GetPass1MaxElementSize@nsTableCellFrame@@UBE?AUnsSize@@XZ ; 10327
?RenumberLists@nsBlockFrame@@IAEXPAVnsIPresContext@@@Z ; 10280
?FrameStartsCounterScope@nsBlockFrame@@IAEHPAVnsIFrame@@@Z ; 10280
?SetInitialChildList@nsContainerFrame@@UAGIPAVnsIPresContext@@PAVnsIAtom@@PAVnsIFrame@@@Z ; 10274
?AttributeAffectsStyle@FrameManager@@UAGIPAVnsIAtom@@PAVnsIContent@@AAH@Z ; 10196
?PaintImage@nsImageBoxFrame@@MAGIPAVnsIPresContext@@AAVnsIRenderingContext@@ABUnsRect@@W4nsFramePaintLayer@@@Z ; 10092
?GetTableBorder@nsTableFrame@@QAEXAAUnsMargin@@@Z ; 10031
?IsTableRelated@@YAHPAVnsIAtom@@H@Z ; 9973
??0nsTextFrame@@QAE@XZ ; 9919
??1nsTextFrame@@MAE@XZ ; 9919
?GetTwipsToPixels@nsPresContext@@UBGIPAM@Z ; 9710
?GetDesWidth@nsTableColFrame@@QAEHXZ ; 9663
?QueryInterface@nsInlineFrame@@UAGIABUnsID@@PAPAX@Z ; 9497
?GetFrameSelection@PresShell@@UAGIPAPAVnsIFrameSelection@@@Z ; 9430
?MarkDirty@nsBox@@UAGIAAVnsBoxLayoutState@@@Z ; 9428
?QueryInterface@nsBoxLayout@@UAGIABUnsID@@PAPAX@Z ; 9342
?CalculateCellAvailableWidth@nsTableRowFrame@@IAEHPAVnsTableFrame@@PAVnsIFrame@@HHH@Z ; 9292
?Paint@nsTextBoxFrame@@UAGIPAVnsIPresContext@@AAVnsIRenderingContext@@ABUnsRect@@W4nsFramePaintLayer@@@Z ; 9222
?FindNextText@nsLineLayout@@QAEPAVnsIFrame@@PAVnsIPresContext@@PAV2@@Z ; 9060
?EraseCaret@nsCaret@@UAGIXZ ; 9029
?Init@nsTableIterator@@IAEXPAVnsIFrame@@W4nsTableIteration@@@Z ; 9006
?First@nsTableIterator@@QAEPAVnsIFrame@@XZ ; 9006
?GetPctWidth@nsTableColFrame@@QAEHXZ ; 8999
?GetTallestCell@nsTableRowFrame@@QBEHXZ ; 8958
?NS_NewTextFrame@@YAIPAVnsIPresShell@@PAPAVnsIFrame@@@Z ; 8934
??_EnsTextFrame@@MAEPAXI@Z ; 8934
?PaintChildren@nsStackFrame@@UAEXPAVnsIPresContext@@AAVnsIRenderingContext@@ABUnsRect@@W4nsFramePaintLayer@@@Z ; 8892
?Paint@PresShell@@UAGIPAVnsIView@@AAVnsIRenderingContext@@ABUnsRect@@@Z ; 8889
?TrimTrailingWhiteSpace@nsTextFrame@@UAGIPAVnsIPresContext@@AAVnsIRenderingContext@@AAH@Z ; 8872
?GetFrameForPoint@nsLeafBoxFrame@@UAGIPAVnsIPresContext@@ABUnsPoint@@W4nsFramePaintLayer@@PAPAVnsIFrame@@@Z ; 8813
??1nsFrameConstructorSaveState@@QAE@XZ ; 8638
??0nsFrameConstructorSaveState@@QAE@XZ ; 8638
?FindLineFor@nsBlockFrame@@QAEPAVnsLineBox@@PAVnsIFrame@@PAPAV2@PAH@Z ; 8427
?FixUp@nsTableCellReflowState@@QAEXABUnsSize@@@Z ; 8379
?SetDesiredSize@nsTableCellFrame@@UAEXABUnsHTMLReflowMetrics@@@Z ; 8369
?SetPriorAvailWidth@nsTableCellFrame@@UAEXH@Z ; 8369
?Reflow@nsTableCellFrame@@UAGIPAVnsIPresContext@@AAUnsHTMLReflowMetrics@@ABUnsHTMLReflowState@@AAI@Z ; 8369
?GetFrameForPoint@nsHTMLButtonControlFrame@@UAGIPAVnsIPresContext@@ABUnsPoint@@W4nsFramePaintLayer@@PAPAVnsIFrame@@@Z ; 8277
?GetFixWidth@nsTableColFrame@@QAEHXZ ; 8270
?GetPrefSize@nsTextBoxFrame@@UAGIAAVnsBoxLayoutState@@AAUnsSize@@@Z ; 8255
?NeedsReflow@nsTableFrame@@UAEHABUnsHTMLReflowState@@@Z ; 8122
?Paint@nsTableColFrame@@UAGIPAVnsIPresContext@@AAVnsIRenderingContext@@ABUnsRect@@W4nsFramePaintLayer@@@Z ; 8098
?PaintAsciiText@nsTextFrame@@QAEXPAVnsIPresContext@@AAVnsIRenderingContext@@PAVnsIStyleContext@@AAUTextStyle@1@HH@Z ; 8058
?DamageRepairFrames@nsFrameImageLoader@@IAEXPBUnsRect@@@Z ; 7987
??0nsTableIterator@@QAE@PAVnsIPresContext@@AAVnsIFrame@@W4nsTableIteration@@@Z ; 7929
?FirstChild@nsComboboxControlFrame@@UBGIPAVnsIPresContext@@PAVnsIAtom@@PAPAVnsIFrame@@@Z ; 7927
?GetAdditionalChildListName@nsComboboxControlFrame@@UBGIHPAPAVnsIAtom@@@Z ; 7925
?IsFirstPassValid@nsTableFrame@@MBEHXZ ; 7880
?ShouldRollupOnMouseWheelEvent@nsComboboxControlFrame@@UAGIPAH@Z ; 7858
?GetMinSize@nsImageBoxFrame@@UAGIAAVnsBoxLayoutState@@AAUnsSize@@@Z ; 7796
?TableProcessChild@nsCSSFrameConstructor@@IAEIPAVnsIPresShell@@PAVnsIPresContext@@AAVnsFrameConstructorState@@AAVnsIContent@@PAVnsIFrame@@PAVnsIAtom@@PAVnsIStyleContext@@AAUnsTableCreator@@AAUnsFrameItems@@AAPAV6@@Z ; 7794
?IsColumnWidthsValid@nsTableFrame@@MBEHXZ ; 7761
?StartLoadImage@nsHTMLImageLoader@@IAEIPAVnsIPresContext@@@Z ; 7625
?GetMinSize@nsTextBoxFrame@@UAGIAAVnsBoxLayoutState@@AAUnsSize@@@Z ; 7602
?ConvertToTwoNode@nsDST@@AAEPAVTwoNode@1@PAPAVLeafNode@1@@Z ; 7581
?AllocTwoNode@NodeArena@nsDST@@QAEPAXXZ ; 7581
?FreeNode@NodeArena@nsDST@@QAEXPAVTwoNode@2@@Z ; 7572
?PullFrame@nsBlockFrame@@IAEIAAVnsBlockReflowState@@PAVnsLineBox@@PAPAV3@HHAAPAVnsIFrame@@AAH@Z ; 7553
?SetColumnWidth@nsTableFrame@@UAEXHH@Z ; 7511
?ResetTallestCell@nsTableRowFrame@@QAEXH@Z ; 7293
?HandleDrag@nsFrame@@UAGIPAVnsIPresContext@@PAUnsGUIEvent@@PAW4nsEventStatus@@@Z ; 7185
?GetImageSource@nsImageBoxFrame@@IAEXAAVnsString@@@Z ; 7143
?GetMaximumSize@nsListControlFrame@@UAGIAAUnsSize@@@Z ; 7036
?SetCollapseOffsetY@nsTableCellFrame@@QAEXPAVnsIPresContext@@H@Z ; 7034
?SetCollapseOffsetX@nsTableCellFrame@@QAEXPAVnsIPresContext@@H@Z ; 7034
?FixAutoMargins@@YAXHAAUnsHTMLReflowState@@@Z ; 6884
?ZeroAutoMargin@nsTableOuterFrame@@SAXAAUnsHTMLReflowState@@AAUnsMargin@@@Z ; 6884
?InitAccessKey@nsMenuBarListener@@KAXXZ ; 6839
?OrderRowGroups@nsTableFrame@@QAEXAAVnsVoidArray@@AAIPAPAVnsIFrame@@@Z ; 6805
?ProcessChildren@nsCSSFrameConstructor@@IAEIPAVnsIPresShell@@PAVnsIPresContext@@AAVnsFrameConstructorState@@PAVnsIContent@@PAVnsIFrame@@HAAUnsFrameItems@@HPAUnsTableCreator@@@Z ; 6799
?GetInnerArea@nsImageFrame@@IBEXPAVnsIPresContext@@AAUnsRect@@@Z ; 6753
?GetMenuAccessKey@nsMenuBarListener@@SAIPAH@Z ; 6604
?SplitLine@nsBlockFrame@@IAEIAAVnsBlockReflowState@@AAVnsLineLayout@@PAVnsLineBox@@PAVnsIFrame@@@Z ; 6582
?GetCurrentSpanCount@nsLineLayout@@QBEHXZ ; 6582
?GetDesiredSize@nsHTMLImageLoader@@QAEHPAVnsIPresContext@@PBUnsHTMLReflowState@@AAUnsHTMLReflowMetrics@@@Z ; 6526
?Release@nsFormControlFrame@@EAGKXZ ; 6414
?Reset@nsHTMLValue@@QAEXXZ ; 6411
?UpdateImage@nsImageBoxFrame@@UAEXPAVnsIPresContext@@AAH@Z ; 6396
?QueryInterface@nsSplitterFrame@@UAGIABUnsID@@PAPAX@Z ; 6376
?QueryInterface@nsTableCellFrame@@UAGIABUnsID@@PAPAX@Z ; 6324
?GetOtherMonumentsAt@nsMonumentLayout@@UAGIPAVnsIBox@@HPAPAVnsBoxSizeList@@PAV1@@Z ; 6321
?QueryInterface@nsLeafBoxFrame@@UAGIABUnsID@@PAPAX@Z ; 6284
?GetOtherTemple@nsMonumentLayout@@UAGIPAVnsIBox@@PAPAVnsTempleLayout@@PAPAV2@PAV1@@Z ; 6252
?IsTableRelated@@YAHEH@Z ; 6249
?ConstructFrameByDisplayType@nsCSSFrameConstructor@@IAEIPAVnsIPresShell@@PAVnsIPresContext@@AAVnsFrameConstructorState@@PBUnsStyleDisplay@@PAVnsIContent@@PAVnsIFrame@@PAVnsIStyleContext@@AAUnsFrameItems@@@Z ; 6192
?GetMonumentList@nsMonumentLayout@@UAGIPAVnsIBox@@AAVnsBoxLayoutState@@PAPAVnsBoxSizeList@@@Z ; 6172
?HaveFirstLetterStyle@nsCSSFrameConstructor@@KAHPAVnsIPresContext@@PAVnsIContent@@PAVnsIStyleContext@@@Z ; 6150
?NeedsRecalc@nsTextBoxFrame@@UAGIXZ ; 6144
?GetFrameForPoint@nsButtonBoxFrame@@UAGIPAVnsIPresContext@@ABUnsPoint@@W4nsFramePaintLayer@@PAPAVnsIFrame@@@Z ; 6144
?GetSelect@nsListControlFrame@@SAPAVnsIDOMHTMLSelectElement@@PAVnsIContent@@@Z ; 6129
?GetImageLoadStatus@nsFrameImageLoader@@UAGIPAI@Z ; 6119
??0nsTableCellReflowState@@QAE@PAVnsIPresContext@@ABUnsHTMLReflowState@@PAVnsIFrame@@ABUnsSize@@W4nsReflowReason@@@Z ; 6118
?PlaceChild@nsTableRowGroupFrame@@IAEXPAVnsIPresContext@@AAURowGroupReflowState@@PAVnsIFrame@@AAUnsHTMLReflowMetrics@@HHPAUnsSize@@AAU6@@Z ; 6116
?Reflow@nsTableRowFrame@@UAGIPAVnsIPresContext@@AAUnsHTMLReflowMetrics@@ABUnsHTMLReflowState@@AAI@Z ; 6116
?GetLoadImageFailed@nsHTMLImageLoader@@QBEHXZ ; 6113
?GetCaptionSide@nsTableOuterFrame@@IAEEXZ ; 6111
?GetOptions@nsListControlFrame@@SAPAVnsIDOMHTMLCollection@@PAVnsIContent@@PAVnsIDOMHTMLSelectElement@@@Z ; 6081
?LayoutChildAt@nsContainerBox@@SAIAAVnsBoxLayoutState@@PAVnsIBox@@ABUnsRect@@@Z ; 5975
?RecoverVerticalMargins@nsBlockReflowState@@QAEXPAVnsLineBox@@HPAH1@Z ; 5800
?GetCarriedOutBottomMargin@nsLineBox@@QBEHXZ ; 5800
?GetMaximumWidth@nsTableCellFrame@@UBEHXZ ; 5778
?GetOrientation@nsBox@@UAGIAAH@Z ; 5775
?AddFrames@nsBlockFrame@@IAEIPAVnsIPresContext@@PAVnsIFrame@@1@Z ; 5765
?PaintChild@nsStackFrame@@UAEXPAVnsIPresContext@@AAVnsIRenderingContext@@ABUnsRect@@PAVnsIFrame@@W4nsFramePaintLayer@@@Z ; 5755
?HaveFirstLineStyle@nsCSSFrameConstructor@@KAHPAVnsIPresContext@@PAVnsIContent@@PAVnsIStyleContext@@@Z ; 5740
?HaveSpecialBlockStyle@nsCSSFrameConstructor@@KAXPAVnsIPresContext@@PAVnsIContent@@PAVnsIStyleContext@@PAH3@Z ; 5740
?CastToObelisk@nsObeliskLayout@@UAGIPAPAV1@@Z ; 5651
?DidSetStyleContext@nsImageBoxFrame@@UAGIPAVnsIPresContext@@@Z ; 5643
?SetLayoutManager@nsContainerBox@@UAGIPAVnsIBoxLayout@@@Z ; 5642
?GetPresShell@nsBoxLayoutState@@UAEIPAPAVnsIPresShell@@@Z ; 5627
?ContentChanged@nsGfxScrollFrameInner@@UAGIPAVnsIDocument@@PAVnsIContent@@PAVnsISupports@@@Z ; 5574
?GetIntegerAttribute@nsGfxScrollFrameInner@@QAEHPAVnsIBox@@PAVnsIAtom@@H@Z ; 5542
?SetAttribute@nsGfxScrollFrameInner@@QAEHPAVnsIBox@@PAVnsIAtom@@HH@Z ; 5542
?GetGroupFrame@nsTreeLayout@@IAEPAVnsXULTreeGroupFrame@@PAVnsIBox@@@Z ; 5489
?CalculateBlockSideMargins@nsHTMLReflowState@@QAEXHH@Z ; 5457
?GetAscent@nsTextBoxFrame@@UAGIAAVnsBoxLayoutState@@AAH@Z ; 5435
?CreateNextInFlow@nsHTMLContainerFrame@@SAIPAVnsIPresContext@@PAVnsIFrame@@1AAPAV3@@Z ; 5414
?Add@nsBoxSize@@QAEXABUnsSize@@00HHH@Z ; 5378
?ContinueReflow@nsTableRowGroupFrame@@UAEHPAVnsIFrame@@PAVnsIPresContext@@HH@Z ; 5351
?GetFrameForPoint@nsMenuFrame@@UAGIPAVnsIPresContext@@ABUnsPoint@@W4nsFramePaintLayer@@PAPAVnsIFrame@@@Z ; 5308
?SetInitialChildList@nsBlockFrame@@UAGIPAVnsIPresContext@@PAVnsIAtom@@PAVnsIFrame@@@Z ; 5297
?UpdateAccessTitle@nsTextBoxFrame@@IAEXXZ ; 5272
?Init@nsBlockFrame@@UAGIPAVnsIPresContext@@PAVnsIContent@@PAVnsIFrame@@PAVnsIStyleContext@@2@Z ; 5250
?GetFirstLetterStyle@nsBlockFrame@@IAEPAVnsIStyleContext@@PAVnsIPresContext@@@Z ; 5250
??1nsBlockFrame@@MAE@XZ ; 5250
??0nsBlockFrame@@IAE@XZ ; 5250
?DestroyFrames@nsAbsoluteContainingBlock@@QAEXPAVnsIFrame@@PAVnsIPresContext@@@Z ; 5250
?DeleteLineList@nsLineBox@@SAXPAVnsIPresContext@@PAV1@@Z ; 5250
?Destroy@nsBlockFrame@@UAGIPAVnsIPresContext@@@Z ; 5250
?GetAscent@nsImageBoxFrame@@UAGIAAVnsBoxLayoutState@@AAH@Z ; 5248
??_EnsSelectsAreaFrame@@UAEPAXI@Z ; 5171
?PrepareInitialReflow@nsBlockFrame@@IAEIAAVnsBlockReflowState@@@Z ; 5165
?RowIsSpannedInto@nsCellMap@@QAEHAAVnsTableCellMap@@H@Z ; 5146
?RowIsSpannedInto@nsTableCellMap@@QAEHH@Z ; 5146
?RowIsSpannedInto@nsTableFrame@@QAEHH@Z ; 5146
?Draw@DefaultArea@@UAEXPAVnsIPresContext@@AAVnsIRenderingContext@@@Z ; 5139
?AddBordersAndPadding@nsLeafFrame@@IAEXPAVnsIPresContext@@ABUnsHTMLReflowState@@AAUnsHTMLReflowMetrics@@AAUnsMargin@@@Z ; 5125
?MapBorderPadding@nsTableCellFrame@@IAEXPAVnsIPresContext@@@Z ; 5117
?MapVAlignAttribute@nsTableCellFrame@@IAEXPAVnsIPresContext@@PAVnsTableFrame@@@Z ; 5117
?GetCellPadding@nsTableFrame@@UAEHXZ ; 5117
?MapHTMLBorderStyle@nsTableCellFrame@@IAEXPAVnsIPresContext@@AAUnsStyleBorder@@PAVnsTableFrame@@@Z ; 5117
?DidSetStyleContext@nsTableCellFrame@@MAGIPAVnsIPresContext@@@Z ; 5117
?GetLength@nsFrameList@@QBEHXZ ; 5098
?GetDesiredSize@nsImageFrame@@MAEXPAVnsIPresContext@@ABUnsHTMLReflowState@@AAUnsHTMLReflowMetrics@@@Z ; 5078
?Reflow@nsImageFrame@@UAGIPAVnsIPresContext@@AAUnsHTMLReflowMetrics@@ABUnsHTMLReflowState@@AAI@Z ; 5078
??0nsBoxLayoutState@@QAE@PAVnsIPresShell@@@Z ; 5067
?ClearChildren@nsContainerBox@@UAEXAAVnsBoxLayoutState@@@Z ; 5067
?SanityCheck@nsContainerBox@@UAEXAAVnsFrameList@@@Z ; 5056
?Release@PresShellViewEventListener@@UAGKXZ ; 5051
?PushFloaterContainingBlock@nsFrameConstructorState@@QAEXPAVnsIFrame@@AAVnsFrameConstructorSaveState@@HH@Z ; 5039
??0nsLayoutIterator@@QAE@PAVnsIBox@@@Z ; 5020
?GetRowGroupFrame@nsTableFrame@@QAEPAVnsTableRowGroupFrame@@PAVnsIFrame@@PAVnsIAtom@@@Z ; 5002
?ContentInserted@nsCSSFrameConstructor@@UAGIPAVnsIPresContext@@PAVnsIContent@@1HPAVnsILayoutHistoryState@@@Z ; 4942
?GetStyleWidth@nsTableColFrame@@QBE?AVnsStyleCoord@@XZ ; 4907
?NS_NewBlockFrame@@YAIPAVnsIPresShell@@PAPAVnsIFrame@@I@Z ; 4870
?CalcSideFor@@YAHPBVnsIFrame@@ABVnsStyleCoord@@EEPBHH@Z ; 4836
?QueryInterface@PresShellViewEventListener@@UAGIABUnsID@@PAPAX@Z ; 4830
?IncrementalReflow@nsAbsoluteContainingBlock@@QAEIPAVnsIFrame@@PAVnsIPresContext@@ABUnsHTMLReflowState@@HHAAHAAUnsRect@@@Z ; 4825
?SetFrameProperty@FrameManager@@UAGIPAVnsIFrame@@PAVnsIAtom@@PAXP6AXPAVnsIPresContext@@012@Z@Z ; 4824
?SetPass1MaxElementSize@nsTableCellFrame@@UAEXHABUnsSize@@@Z ; 4821
?SetMaximumWidth@nsTableCellFrame@@UAEXH@Z ; 4821
??_GCanvasFrame@@UAEPAXI@Z ; 4818
?BuildBoxSizeList@nsMonumentLayout@@UAGIPAVnsIBox@@AAVnsBoxLayoutState@@AAPAVnsBoxSize@@2H@Z ; 4815
?CalcBorderBoxHeight@nsTableFrame@@QAEHPAVnsIPresContext@@ABUnsHTMLReflowState@@@Z ; 4784
?NS_NewInlineFrame@@YAIPAVnsIPresShell@@PAPAVnsIFrame@@@Z ; 4771
??0nsInlineFrame@@IAE@XZ ; 4771
?SetDebug@nsBoxFrame@@UAGIAAVnsBoxLayoutState@@H@Z ; 4750
??GnsMargin@@QBE?AU0@ABU0@@Z ; 4740
?ContentRemoved@nsCSSFrameConstructor@@UAGIPAVnsIPresContext@@PAVnsIContent@@1H@Z ; 4727
?ComputeStyleChangeFor@FrameManager@@UAGIPAVnsIPresContext@@PAVnsIFrame@@HPAVnsIAtom@@AAVnsStyleChangeList@@HAAH@Z ; 4714
??0nsBox@@QAE@PAVnsIPresShell@@@Z ; 4675
?GetReadableFragment@?$basic_nsLiteralString@G@@MBEPBGAAU?$nsReadableFragment@G@@W4nsFragmentRequest@@I@Z ; 4614
?MarkLineDirty@nsBlockFrame@@IAEIPAVnsLineBox@@0@Z ; 4613
?GetMaxElementSize@nsBoxLayoutState@@UAEXPAPAUnsSize@@@Z ; 4609
?SetParentBox@nsBox@@UAGIPAVnsIBox@@@Z ; 4566
?GetParentFrame@nsCSSFrameConstructor@@IAEIPAVnsIPresShell@@PAVnsIPresContext@@AAUnsTableCreator@@AAVnsIFrame@@PAVnsIAtom@@AAVnsFrameConstructorState@@AAPAV5@AAH@Z ; 4558
?IsScrollable@nsCSSFrameConstructor@@IAEHPAVnsIPresContext@@PBUnsStyleDisplay@@@Z ; 4555
?BeginUpdate@PresShell@@UAGIPAVnsIDocument@@@Z ; 4456
?EndUpdate@PresShell@@UAGIPAVnsIDocument@@@Z ; 4456
?GetMaxCellAscent@nsTableRowFrame@@QBEHXZ ; 4453
?CaptureStateForFramesOf@nsCSSFrameConstructor@@IAEIPAVnsIPresContext@@PAVnsIContent@@PAVnsILayoutHistoryState@@@Z ; 4449
?GetOptionContent@nsListControlFrame@@IAEPAVnsIContent@@H@Z ; 4448
?GetOwner@DummyLayoutRequest@@UAGIPAPAVnsISupports@@@Z ; 4432
?GetFrameFor@nsCSSFrameConstructor@@IAEPAVnsIFrame@@PAVnsIPresShell@@PAVnsIPresContext@@PAVnsIContent@@@Z ; 4431
?RecreateFramesForContent@nsCSSFrameConstructor@@IAEIPAVnsIPresContext@@PAVnsIContent@@@Z ; 4410
?ClearUndisplayedContentIn@FrameManager@@UAGIPAVnsIContent@@0@Z ; 4396
?FreeTree@nsDST@@AAEXPAVLeafNode@1@@Z ; 4395
?GetContentForEvent@nsImageFrame@@UAGIPAVnsIPresContext@@PAUnsEvent@@PAPAVnsIContent@@@Z ; 4370
?QueryInterface@nsScrollbarFrame@@UAGIABUnsID@@PAPAX@Z ; 4367
?GetPrefSize@nsBox@@UAGIAAVnsBoxLayoutState@@AAUnsSize@@@Z ; 4266
?AddRef@DummyLayoutRequest@@UAGKXZ ; 4236
?GetPrevInFlow@nsContinuingTextFrame@@UBGIPAPAVnsIFrame@@@Z ; 4187
?DidResize@nsTableRowFrame@@UAEXPAVnsIPresContext@@ABUnsHTMLReflowState@@@Z ; 4164
?CalcBorderBoxWidth@nsTableFrame@@QAEHABUnsHTMLReflowState@@@Z ; 4158
?MarkChildrenStyleChange@nsBox@@UAGIXZ ; 4132
?GetSkipSides@nsHTMLButtonControlFrame@@MBEHXZ ; 4121
?GetFrameType@nsRootBoxFrame@@UBGIPAPAVnsIAtom@@@Z ; 4078
??0nsHTMLReflowState@@QAE@ABU0@@Z ; 4050
?Reflow@BRFrame@@UAGIPAVnsIPresContext@@AAUnsHTMLReflowMetrics@@ABUnsHTMLReflowState@@AAI@Z ; 4039
?IsCollapsed@nsBoxToBlockAdaptor@@UAGIAAVnsBoxLayoutState@@AAH@Z ; 3970
?GetScrolledSize@nsGfxScrollFrameInner@@UBGIPAVnsIPresContext@@PAH1@Z ; 3969
?SetStyleChangeFlag@nsBox@@MAEXH@Z ; 3967
?CanAllocate@@YAHHHPAVnsTableColFrame@@@Z ; 3951
?HandleEvent@nsBlockFrame@@UAGIPAVnsIPresContext@@PAUnsGUIEvent@@PAW4nsEventStatus@@@Z ; 3950
?GetColInfoAt@nsTableCellMap@@QAEPAUnsColInfo@@H@Z ; 3935
??0CellData@@QAE@PAVnsTableCellFrame@@@Z ; 3931
?SetMapCellAt@nsCellMap@@IAEXAAVnsTableCellMap@@AAVCellData@@HHH@Z ; 3931
?PrepareUnicodeText@nsTextFrame@@QAEHAAVnsTextTransformer@@PAUnsAutoIndexBuffer@@PAVnsAutoTextBuffer@@PAH@Z ; 3929
?GetFrameForPoint@nsXULTreeCellFrame@@UAGIPAVnsIPresContext@@ABUnsPoint@@W4nsFramePaintLayer@@PAPAVnsIFrame@@@Z ; 3917
?LayoutBox@nsGfxScrollFrameInner@@QAEIAAVnsBoxLayoutState@@PAVnsIBox@@ABUnsRect@@@Z ; 3880
?GetNextFrameForReflow@nsTableRowGroupFrame@@MAEXPAVnsIPresContext@@PAVnsIFrame@@PAPAV3@@Z ; 3859
?Reflow@nsTableOuterFrame@@UAGIPAVnsIPresContext@@AAUnsHTMLReflowMetrics@@ABUnsHTMLReflowState@@AAI@Z ; 3842
?QueryInterface@nsMenuBarListener@@UAGIABUnsID@@PAPAX@Z ; 3805
?Release@nsMenuBarListener@@UAGKXZ ; 3767
?CreateContinuationFor@nsBlockFrame@@MAEIAAVnsBlockReflowState@@PAVnsLineBox@@PAVnsIFrame@@AAH@Z ; 3766
??0RowGroupReflowState@@QAE@PAVnsIPresContext@@ABUnsHTMLReflowState@@PAVnsTableFrame@@@Z ; 3757
?Reflow@nsTableRowGroupFrame@@UAGIPAVnsIPresContext@@AAUnsHTMLReflowMetrics@@ABUnsHTMLReflowState@@AAI@Z ; 3757
?PrepareChildIncrementalReflow@nsBlockFrame@@IAEIAAVnsBlockReflowState@@@Z ; 3707
?ComputeDesiredHeight@nsTableFrame@@IAEHPAVnsIPresContext@@ABUnsHTMLReflowState@@H@Z ; 3707
?GetRowCount@nsTableCellMap@@QBEHXZ ; 3689
?ConstructTableForeignFrame@nsCSSFrameConstructor@@IAEIPAVnsIPresShell@@PAVnsIPresContext@@AAVnsFrameConstructorState@@PAVnsIContent@@PAVnsIFrame@@PAVnsIStyleContext@@AAUnsTableCreator@@AAUnsFrameItems@@AAPAV6@AAH@Z ; 3663
?MustGeneratePseudoParent@nsCSSFrameConstructor@@IAEHPAVnsIPresContext@@PAVnsIFrame@@PAVnsIAtom@@PAVnsIContent@@PAVnsIStyleContext@@@Z ; 3656
?QueryInterface@nsScrollBoxFrame@@UAGIABUnsID@@PAPAX@Z ; 3609
?UpdateReflowMetrics@nsTableOuterFrame@@IAEXEAAUnsHTMLReflowMetrics@@ABUnsMargin@@1111@Z ; 3588
?GetInnerOrigin@nsTableOuterFrame@@MAGIPAVnsIPresContext@@IABUnsSize@@1ABUnsMargin@@1AAU4@AAUnsPoint@@@Z ; 3588
?Reflow@nsTableFrame@@UAGIPAVnsIPresContext@@AAUnsHTMLReflowMetrics@@ABUnsHTMLReflowState@@AAI@Z ; 3588
?SetColumnDimensions@nsTableFrame@@IAEXPAVnsIPresContext@@HABUnsMargin@@@Z ; 3588
?GetChildAvailWidth@nsTableOuterFrame@@IAEHPAVnsIPresContext@@PAVnsIFrame@@ABUnsHTMLReflowState@@HAAUnsMargin@@3@Z ; 3588
?SetDesiredSize@nsTableOuterFrame@@IAEXEABUnsMargin@@0AAH1@Z ; 3588
?OuterReflowChild@nsTableOuterFrame@@MAGIPAVnsIPresContext@@PAVnsIFrame@@ABUnsHTMLReflowState@@AAUnsHTMLReflowMetrics@@PAHAAUnsSize@@AAUnsMargin@@66W4nsReflowReason@@AAI@Z ; 3588
?GetContainingBlockSize@@YA?AUnsSize@@ABUnsHTMLReflowState@@@Z ; 3588
?Paint@nsTableColGroupFrame@@UAGIPAVnsIPresContext@@AAVnsIRenderingContext@@ABUnsRect@@W4nsFramePaintLayer@@@Z ; 3533
?GetTableMinWidth@BasicTableLayoutStrategy@@UBEHXZ ; 3462
?ProcessInlineChildren@nsCSSFrameConstructor@@IAEIPAVnsIPresShell@@PAVnsIPresContext@@AAVnsFrameConstructorState@@PAVnsIContent@@PAVnsIFrame@@HAAUnsFrameItems@@PAH@Z ; 3433
?ConstructInline@nsCSSFrameConstructor@@IAEIPAVnsIPresShell@@PAVnsIPresContext@@AAVnsFrameConstructorState@@PBUnsStyleDisplay@@PAVnsIContent@@PAVnsIFrame@@PAVnsIStyleContext@@H5PAPAV7@7@Z ; 3433
?CastToTemple@nsMonumentLayout@@UAGIPAPAVnsTempleLayout@@@Z ; 3416
??0InnerTableReflowState@@QAE@PAVnsIPresContext@@ABUnsHTMLReflowState@@ABUnsMargin@@@Z ; 3346
?PropogateReflowDamage@nsBlockFrame@@IAEXAAVnsBlockReflowState@@PAVnsLineBox@@ABUnsRect@@H@Z ; 3333
?GetFrameType@nsTableColFrame@@UBGIPAPAVnsIAtom@@@Z ; 3330
?LastChild@nsFrameList@@QBEPAVnsIFrame@@XZ ; 3321
?ConvertToLeafNode@nsDST@@AAEPAVLeafNode@1@PAPAVTwoNode@1@@Z ; 3310
?SetType@nsTableColFrame@@QAEXW4nsTableColType@@@Z ; 3298
?ComputeDesiredWidth@nsTableFrame@@IBEHABUnsHTMLReflowState@@@Z ; 3296
?GetMarginPadding@@YAXPAVnsIPresContext@@ABUnsHTMLReflowState@@PAVnsIFrame@@AAUnsMargin@@33@Z ; 3296
?QueryInterface@nsGfxScrollFrame@@UAGIABUnsID@@PAPAX@Z ; 3207
?ComputeWordFragmentWidth@nsTextFrame@@QAEHPAVnsIPresContext@@PAVnsILineBreaker@@AAVnsLineLayout@@ABUnsHTMLReflowState@@PAVnsIFrame@@PAVnsIContent@@PAVnsITextContent@@PAHPBGAAII@Z ; 3184
?QueryInterface@nsFrameImageLoader@@UAGIABUnsID@@PAPAX@Z ; 3164
?GetPrefSize@nsXULTreeSliceFrame@@UAGIAAVnsBoxLayoutState@@AAUnsSize@@@Z ; 3163
?Paint@nsGfxScrollFrame@@UAGIPAVnsIPresContext@@AAVnsIRenderingContext@@ABUnsRect@@W4nsFramePaintLayer@@@Z ; 3153
?GetScrollableView@nsGfxScrollFrameInner@@QAEPAVnsIScrollableView@@PAVnsIPresContext@@@Z ; 3109
?GetParentWithTag@nsScrollbarButtonFrame@@SAIPAVnsIAtom@@PAVnsIFrame@@AAPAV3@@Z ; 3108
?GetScrollbar@nsSliderFrame@@AAEPAVnsIBox@@XZ ; 3083
?PaintTitle@nsTextBoxFrame@@MAGIPAVnsIPresContext@@AAVnsIRenderingContext@@ABUnsRect@@2@Z ; 3082
?Release@nsGfxTextControlFrame2@@UAGKXZ ; 3071
?ImageLoadCB@nsHTMLImageLoader@@KAIPAVnsIPresContext@@PAVnsIFrameImageLoader@@PAVnsIFrame@@PAXI@Z ; 3056
?Update@nsHTMLImageLoader@@IAEXPAVnsIPresContext@@PAVnsIFrame@@I@Z ; 3056
?GrowRow@nsCellMap@@IAEXAAVnsVoidArray@@H@Z ; 3039
?RoundToPixel@nsTableFrame@@SAHHM@Z ; 3016
?ComputeTotalWordWidth@nsTextFrame@@QAEHPAVnsIPresContext@@PAVnsILineBreaker@@AAVnsLineLayout@@ABUnsHTMLReflowState@@PAVnsIFrame@@HPAGII@Z ; 3014
?GetOtherTemple@nsGridLayout@@UAGIPAVnsIBox@@PAPAVnsTempleLayout@@PAPAV2@PAVnsMonumentLayout@@@Z ; 3012
?ReflowBeforeRowLayout@nsTableRowGroupFrame@@MAGIPAVnsIPresContext@@AAUnsHTMLReflowMetrics@@AAURowGroupReflowState@@AAIW4nsReflowReason@@@Z ; 2990
?LayoutTitle@nsTextBoxFrame@@MAEXPAVnsIPresContext@@AAVnsIRenderingContext@@ABUnsRect@@@Z ; 2985
?MoveOverflowToChildList@nsTableFrame@@IAEHPAVnsIPresContext@@@Z ; 2980
?PaintUnicodeText@nsTextFrame@@QAEXPAVnsIPresContext@@AAVnsIRenderingContext@@PAVnsIStyleContext@@AAUTextStyle@1@HH@Z ; 2979
?CalculateUnderline@nsTextBoxFrame@@MAEXAAVnsIRenderingContext@@@Z ; 2964
?GetColWidth@@YAHPAVnsTableColFrame@@H@Z ; 2956
?RemoveLeftMostLeafNode@nsDST@@AAEPAVLeafNode@1@PAPAVTwoNode@1@@Z ; 2936
?FillPolygon@nsCSSRendering@@KAXAAVnsIRenderingContext@@QBUnsPoint@@HPAUnsRect@@@Z ; 2888
?RecycleFreedMemory@nsBoxLayoutState@@SAXPAVnsIPresShell@@PAX@Z ; 2856
??3nsBoxToBlockAdaptor@@SAXPAXI@Z ; 2856
??2nsBoxFrameInner@@SAPAXIPAVnsIPresShell@@@Z ; 2856
??1nsLeafFrame@@MAE@XZ ; 2840
?CreateBoxList@nsContainerBox@@UAEHAAVnsBoxLayoutState@@PAVnsIFrame@@AAPAVnsIBox@@2@Z ; 2792
?Paint@nsSliderFrame@@UAGIPAVnsIPresContext@@AAVnsIRenderingContext@@ABUnsRect@@W4nsFramePaintLayer@@@Z ; 2763
?LocateFrame@nsXULTreeGroupFrame@@IAEXPAVnsIFrame@@PAPAV2@@Z ; 2750
?Paint@nsXULTreeGroupFrame@@UAGIPAVnsIPresContext@@AAVnsIRenderingContext@@ABUnsRect@@W4nsFramePaintLayer@@@Z ; 2739
?RemoveFloatersFromSpaceManager@nsLineBox@@QAEXPAVnsISpaceManager@@@Z ; 2693
?HasStyleChange@nsBoxFrame@@MAEHXZ ; 2691
?ResizeReflow@nsTableRowFrame@@MAGIPAVnsIPresContext@@AAUnsHTMLReflowMetrics@@AAURowReflowState@@AAIH@Z ; 2685
?ContinueReflow@nsXULTreeGroupFrame@@QAEHH@Z ; 2661
?QueryInterface@nsImageFrame@@UAGIABUnsID@@PAPAX@Z ; 2660
?GetPrefSize@nsMenuFrame@@UAGIAAVnsBoxLayoutState@@AAUnsSize@@@Z ; 2659
?GetBoxForFrame@nsBoxFrameInner@@QAEPAVnsIBox@@PAVnsIFrame@@AAH@Z ; 2652
?SetURL@nsHTMLImageLoader@@IAEXABVnsString@@@Z ; 2621
?BuildBoxSizeList@nsTempleLayout@@UAGIPAVnsIBox@@AAVnsBoxLayoutState@@AAPAVnsBoxSize@@2H@Z ; 2609
?GetInitialHAlignment@nsBoxFrame@@MAEHAAW4Halignment@nsIBox@@@Z ; 2608
??1nsBoxFrame@@UAE@XZ ; 2608
??0nsContainerBox@@QAE@PAVnsIPresShell@@@Z ; 2608
?GetInitialAutoStretch@nsBoxFrame@@MAEHAAH@Z ; 2608
?GetInitialDebug@nsBoxFrameInner@@QAEHAAH@Z ; 2608
?Init@nsBoxFrame@@UAGIPAVnsIPresContext@@PAVnsIContent@@PAVnsIFrame@@PAVnsIStyleContext@@2@Z ; 2608
?GetInitialVAlignment@nsBoxFrame@@MAEHAAW4Valignment@nsIBox@@@Z ; 2608
?GetInitialEqualSize@nsBoxFrame@@MAEHAAH@Z ; 2608
??0nsBoxFrame@@QAE@PAVnsIPresShell@@HPAVnsIBoxLayout@@H@Z ; 2608
?CacheAttributes@nsBoxFrameInner@@QAEXXZ ; 2608
??1nsContainerBox@@UAE@XZ ; 2608
?Destroy@nsBoxFrame@@MAGIPAVnsIPresContext@@@Z ; 2608
?Recycle@nsBoxFrameInner@@QAEXPAVnsIPresShell@@@Z ; 2608
?GetOnScreenRowCount@nsXULTreeGroupFrame@@UAGIPAH@Z ; 2607
?GetInitialOrientation@nsBoxFrame@@MAEHAAH@Z ; 2583
?SetColIndex@nsTableCellFrame@@UAEIH@Z ; 2566
?GetRowSpan@nsTableCellFrame@@UAEHXZ ; 2566
?GetColSpan@nsTableCellFrame@@UAEHXZ ; 2566
?GetColSpanForNewCell@nsCellMap@@IAEHAAVnsTableCellFrame@@HHAAH@Z ; 2566
?InitCellFrame@nsTableCellFrame@@QAEXH@Z ; 2566
?GetRowSpanForNewCell@nsCellMap@@IAEHAAVnsTableCellFrame@@HAAH@Z ; 2566
?AppendCell@nsCellMap@@QAEHAAVnsTableCellMap@@AAVnsTableCellFrame@@HH@Z ; 2566
?Init@nsTableCellFrame@@UAGIPAVnsIPresContext@@PAVnsIContent@@PAVnsIFrame@@PAVnsIStyleContext@@2@Z ; 2560
?CreateTableCellFrame@nsTableCreator@@UAEIPAPAVnsIFrame@@@Z ; 2560
??0nsTableCellFrame@@QAE@XZ ; 2560
?NS_NewTableCellFrame@@YAIPAVnsIPresShell@@PAPAVnsIFrame@@@Z ; 2560
?CreateTableCellInnerFrame@nsTableCreator@@UAEIPAPAVnsIFrame@@@Z ; 2560
??_GnsTableCellFrame@@UAEPAXI@Z ; 2560
?ConstructTableCellFrame@nsCSSFrameConstructor@@IAEIPAVnsIPresShell@@PAVnsIPresContext@@AAVnsFrameConstructorState@@PAVnsIContent@@PAVnsIFrame@@PAVnsIStyleContext@@AAUnsTableCreator@@HAAUnsFrameItems@@AAPAV6@8AAH@Z ; 2560
??1nsTableCellFrame@@UAE@XZ ; 2560
??0nsBoxLayoutState@@QAE@PAVnsIPresContext@@ABUnsHTMLReflowState@@AAUnsHTMLReflowMetrics@@@Z ; 2538
?HandleReflow@nsBoxLayoutState@@UAEXPAVnsIBox@@@Z ; 2538
?DidReflow@nsLeafBoxFrame@@UAGIPAVnsIPresContext@@H@Z ; 2538
?advance@?$nsReadingIterator@G@@QAEAAV1@H@Z ; 2525
?GrowTo@nsAutoTextBuffer@@QAEIHH@Z ; 2516
?Reflow@nsBoxFrame@@UAGIPAVnsIPresContext@@AAUnsHTMLReflowMetrics@@ABUnsHTMLReflowState@@AAI@Z ; 2500
?GetNextTreeBox@nsXULTreeGroupFrame@@QAEPAVnsIBox@@PAV2@PAH@Z ; 2499
?Remove@nsDST@@QAEIPAX@Z ; 2491
?UpdateSpaceManager@nsBlockFrame@@QAEIPAVnsIPresContext@@PAVnsISpaceManager@@@Z ; 2487
?NewLineBox@nsBlockReflowState@@QAEPAVnsLineBox@@PAVnsIFrame@@HH@Z ; 2482
?SplitLineTo@nsLineLayout@@QAEXH@Z ; 2482
?GetMinSize@nsBox@@UAGIAAVnsBoxLayoutState@@AAUnsSize@@@Z ; 2460
?InitChildren@nsContainerBox@@UAEXAAVnsBoxLayoutState@@PAVnsIFrame@@@Z ; 2459
?SetInitialChildList@nsBoxFrame@@UAGIPAVnsIPresContext@@PAVnsIAtom@@PAVnsIFrame@@@Z ; 2459
?GetFrameType@nsPlaceholderFrame@@UBGIPAPAVnsIAtom@@@Z ; 2437
?CharAt@?$basic_nsAReadableString@G@@QBEGI@Z ; 2420
?HideCaret@PresShellViewEventListener@@AAEIXZ ; 2415
?RestoreCaretVisibility@PresShellViewEventListener@@AAEIXZ ; 2415
??0nsMonumentIterator@@QAE@PAVnsIBox@@@Z ; 2411
?ClearAllUndisplayedContentIn@FrameManager@@UAGIPAVnsIContent@@@Z ; 2409
?RemoveNodesFor@UndisplayedMap@@QAEIPAVnsIContent@@@Z ; 2409
?DoLayout@nsTextBoxFrame@@UAGIAAVnsBoxLayoutState@@@Z ; 2405
?ClearRegions@nsSpaceManager@@UAGIXZ ; 2372
?Reflow@ViewportFrame@@UAGIPAVnsIPresContext@@AAUnsHTMLReflowMetrics@@ABUnsHTMLReflowState@@AAI@Z ; 2364
?IsContentSelectedByIndex@nsListControlFrame@@IAEHH@Z ; 2363
?ResetSizingInfo@nsTableColFrame@@QAEXXZ ; 2347
??_EnsHTMLReflowCommand@@UAEPAXI@Z ; 2344
?NS_NewHTMLReflowCommand@@YAIPAPAVnsIReflowCommand@@PAVnsIFrame@@W4ReflowType@1@1PAVnsIAtom@@@Z ; 2344
??0nsHTMLReflowCommand@@QAE@PAVnsIFrame@@W4ReflowType@nsIReflowCommand@@0PAVnsIAtom@@@Z ; 2344
?QueryInterface@nsHTMLReflowCommand@@UAGIABUnsID@@PAPAX@Z ; 2344
?AppendReflowCommand@PresShell@@UAGIPAVnsIReflowCommand@@@Z ; 2344
??1nsHTMLReflowCommand@@UAE@XZ ; 2344
?AlreadyInQueue@PresShell@@IAEHPAVnsIReflowCommand@@@Z ; 2344
?ContainsFrame@nsFrameList@@QBEHPBVnsIFrame@@@Z ; 2341
?ReflowCommandRemoved@PresShell@@IAEIPAVnsIReflowCommand@@@Z ; 2329
?ReflowCommandAdded@PresShell@@IAEIPAVnsIReflowCommand@@@Z ; 2329
?SetStyleChangeFlag@nsBoxFrame@@MAEXH@Z ; 2313
?AddLargestSize@nsBoxLayout@@UAEXAAUnsSize@@ABU2@@Z ; 2306
?Length@?$basic_nsLiteralString@G@@UBEIXZ ; 2302
?NotifyFrames@nsFrameImageLoader@@IAEXH@Z ; 2293
?CreateAndPostReflowCommand@nsFrame@@SAIPAVnsIPresShell@@PAVnsIFrame@@W4ReflowType@nsIReflowCommand@@1PAVnsIAtom@@3@Z ; 2293
?UnWind@nsBoxLayoutState@@AAEXPAVnsIReflowCommand@@PAVnsIBox@@@Z ; 2287
?Dispatch@nsHTMLReflowCommand@@UAGIPAVnsIPresContext@@AAUnsHTMLReflowMetrics@@ABUnsSize@@AAVnsIRenderingContext@@@Z ; 2284
??0nsHTMLReflowState@@QAE@PAVnsIPresContext@@PAVnsIFrame@@AAVnsIReflowCommand@@PAVnsIRenderingContext@@ABUnsSize@@@Z ; 2284
?BuildPath@nsHTMLReflowCommand@@IAEXXZ ; 2284
?ContentStatesChanged@nsCSSFrameConstructor@@UAGIPAVnsIPresContext@@PAVnsIContent@@1@Z ; 2283
?ContentStatesChanged@PresShell@@UAGIPAVnsIDocument@@PAVnsIContent@@1@Z ; 2283
?IR_TargetIsChild@nsTableFrame@@MAGIPAVnsIPresContext@@AAUnsHTMLReflowMetrics@@AAUInnerTableReflowState@@AAIPAVnsIFrame@@@Z ; 2269
?InvalidateDamage@nsTableOuterFrame@@IAEXPAVnsIPresContext@@EAAUnsSize@@HH@Z ; 2269
?IR_InnerTableReflow@nsTableOuterFrame@@MAGIPAVnsIPresContext@@AAUnsHTMLReflowMetrics@@ABUnsHTMLReflowState@@AAI@Z ; 2269
?RecoverState@nsTableFrame@@IAEIAAUInnerTableReflowState@@PAVnsIFrame@@PAUnsSize@@@Z ; 2269
?IncrementalReflow@nsTableOuterFrame@@MAGIPAVnsIPresContext@@AAUnsHTMLReflowMetrics@@ABUnsHTMLReflowState@@AAI@Z ; 2269
?IncrementalReflow@nsTableFrame@@MAGIPAVnsIPresContext@@AAUnsHTMLReflowMetrics@@ABUnsHTMLReflowState@@AAI@Z ; 2269
?IR_TargetIsChild@nsTableOuterFrame@@MAGIPAVnsIPresContext@@AAUnsHTMLReflowMetrics@@ABUnsHTMLReflowState@@AAIPAVnsIFrame@@@Z ; 2269
?IR_TargetIsInnerTableFrame@nsTableOuterFrame@@MAGIPAVnsIPresContext@@AAUnsHTMLReflowMetrics@@ABUnsHTMLReflowState@@AAI@Z ; 2269
?IncrementalReflow@nsTableRowGroupFrame@@MAGIPAVnsIPresContext@@AAUnsHTMLReflowMetrics@@AAURowGroupReflowState@@AAI@Z ; 2269
?CalcTallestCell@nsTableRowFrame@@QAEXXZ ; 2268
?IncrementalReflow@nsTableRowFrame@@MAGIPAVnsIPresContext@@AAUnsHTMLReflowMetrics@@AAURowReflowState@@AAI@Z ; 2265
?ProcessBlockChildren@nsCSSFrameConstructor@@IAEIPAVnsIPresShell@@PAVnsIPresContext@@AAVnsFrameConstructorState@@PAVnsIContent@@PAVnsIFrame@@HAAUnsFrameItems@@H@Z ; 2265
?IR_TargetIsChild@nsTableRowGroupFrame@@MAGIPAVnsIPresContext@@AAUnsHTMLReflowMetrics@@AAURowGroupReflowState@@AAIPAVnsIFrame@@@Z ; 2265
?RecoverState@nsTableRowGroupFrame@@IAEIAAURowGroupReflowState@@PAVnsIFrame@@PAUnsSize@@@Z ; 2265
?ConstructBlock@nsCSSFrameConstructor@@IAEIPAVnsIPresShell@@PAVnsIPresContext@@AAVnsFrameConstructorState@@PBUnsStyleDisplay@@PAVnsIContent@@PAVnsIFrame@@PAVnsIStyleContext@@5@Z ; 2265
?IR_TargetIsChild@nsTableRowFrame@@MAGIPAVnsIPresContext@@AAUnsHTMLReflowMetrics@@AAURowReflowState@@AAIPAVnsIFrame@@@Z ; 2261
?RecoverState@nsTableRowFrame@@MAGIPAVnsIPresContext@@AAURowReflowState@@PAVnsIFrame@@PAUnsSize@@@Z ; 2261
??0nsTableCellReflowState@@QAE@PAVnsIPresContext@@ABUnsHTMLReflowState@@PAVnsIFrame@@ABUnsSize@@@Z ; 2261
?PostReflowEvent@PresShell@@IAEXXZ ; 2253
?IsDragInProgress@PresShell@@IBEHXZ ; 2252
?NS_NewSprocketLayout@@YAIPAVnsIPresShell@@AAV?$nsCOMPtr@VnsIBoxLayout@@@@@Z ; 2249
?Reflow@nsBoxToBlockAdaptor@@MAEIAAVnsBoxLayoutState@@PAVnsIPresContext@@AAUnsHTMLReflowMetrics@@ABUnsHTMLReflowState@@AAIHHHHH@Z ; 2248
?CreateContinuingFrame@nsCSSFrameConstructor@@UAGIPAVnsIPresShell@@PAVnsIPresContext@@PAVnsIFrame@@2PAPAV4@@Z ; 2238
?QueryInterface@nsListControlFrame@@UAGIABUnsID@@PAPAX@Z ; 2238
?IsSimpleRowFrame@nsTableRowGroupFrame@@IAEHPAVnsTableFrame@@PAVnsIFrame@@@Z ; 2219
?AdjustSiblingsAfterReflow@nsTableFrame@@MAGIPAVnsIPresContext@@AAUInnerTableReflowState@@PAVnsIFrame@@PAUnsSize@@H@Z ; 2219
?GetRowCount@nsTableFrame@@UBEHXZ ; 2197
?GetIntegerAttribute@nsSliderFrame@@SAHPAVnsIContent@@PAVnsIAtom@@H@Z ; 2185
?SetNext@nsBoxSizeListNodeImpl@@UAEXAAVnsBoxLayoutState@@PAVnsBoxSizeList@@@Z ; 2181
?GetFrameYMost@@YAHPAVnsIFrame@@@Z ; 2180
?GetLastRowSibling@@YAPAVnsIFrame@@PAV1@@Z ; 2180
?GetTextSize@nsTextBoxFrame@@MAEXPAVnsIPresContext@@AAVnsIRenderingContext@@ABVnsString@@AAUnsSize@@AAH@Z ; 2169
?NS_MakeAbsoluteURI@@YAIAAV?$basic_nsAWritableString@G@@ABV?$basic_nsAReadableString@G@@PAVnsIURI@@PAVnsIIOService@@@Z ; 2129
?GetNumLines@nsLineIterator@@UAGIPAH@Z ; 2120
?SetNextBox@nsBox@@UAGIPAVnsIBox@@@Z ; 2114
??0nsQueryReferent@@QAE@PAVnsIWeakReference@@PAI@Z ; 2074
?QueryInterface@nsXULTreeOuterGroupFrame@@UAGIABUnsID@@PAPAX@Z ; 2054
?GetPrefSize@nsBoxToBlockAdaptor@@UAGIAAVnsBoxLayoutState@@AAUnsSize@@@Z ; 2047
?DoLayout@nsImageBoxFrame@@UAGIAAVnsBoxLayoutState@@@Z ; 2041
?GetPresContext@nsFrameImageLoader@@UAGIPAPAVnsIPresContext@@@Z ; 2038
?GetFrameForPoint@nsStackFrame@@UAGIPAVnsIPresContext@@ABUnsPoint@@W4nsFramePaintLayer@@PAPAVnsIFrame@@@Z ; 2028
?RowHasSpanningCells@nsTableFrame@@QAEHH@Z ; 2019
?RowHasSpanningCells@nsCellMap@@QAEHAAVnsTableCellMap@@H@Z ; 2019
?RowHasSpanningCells@nsTableCellMap@@QAEHH@Z ; 2019
?TableProcessChildren@nsCSSFrameConstructor@@IAEIPAVnsIPresShell@@PAVnsIPresContext@@AAVnsFrameConstructorState@@PAVnsIContent@@PAVnsIFrame@@AAUnsTableCreator@@AAUnsFrameItems@@AAPAV6@@Z ; 1998
?Layout@nsStackLayout@@UAGIPAVnsIBox@@AAVnsBoxLayoutState@@@Z ; 1993
?UpdateMonuments@nsObeliskLayout@@MAEXPAVnsIBox@@AAVnsBoxLayoutState@@@Z ; 1974
?NeedsRecalc@nsImageBoxFrame@@UAGIXZ ; 1968
?GetAvailableHeight@nsXULTreeGroupFrame@@UAEHXZ ; 1964
?CreateRenderingContext@PresShell@@UAGIPAVnsIFrame@@PAPAVnsIRenderingContext@@@Z ; 1936
?GetNextObelisk@nsMonumentIterator@@UAEHPAPAVnsObeliskLayout@@H@Z ; 1925
?WillRefreshRegion@PresShellViewEventListener@@UAGIPAVnsIViewManager@@PAVnsIView@@PAVnsIRenderingContext@@PAVnsIRegion@@I@Z ; 1922
?DidRefreshRect@PresShellViewEventListener@@UAGIPAVnsIViewManager@@PAVnsIView@@PAVnsIRenderingContext@@PBUnsRect@@I@Z ; 1922
?GetCaretEnabled@PresShell@@UAGIPAH@Z ; 1909
?SetMaxElementSize@BasicTableLayoutStrategy@@UAEXPAUnsSize@@ABUnsMargin@@@Z ; 1892
?GetMonumentList@nsTempleLayout@@UAGIPAVnsIBox@@AAVnsBoxLayoutState@@PAPAVnsBoxSizeList@@@Z ; 1878
?ReflowDirtyChild@nsBlockFrame@@UAGIPAVnsIPresShell@@PAVnsIFrame@@@Z ; 1859
?DoLayout@nsBoxToBlockAdaptor@@UAGIAAVnsBoxLayoutState@@@Z ; 1855
?QueryInterface@nsFormFrame@@UAGIABUnsID@@PAPAX@Z ; 1849
?ClearFrameRefs@PresShell@@UAGIPAVnsIFrame@@@Z ; 1829
?ClearFrameRefs@nsCaret@@UAGIPAVnsIFrame@@@Z ; 1829
?SetNextInFlow@nsSplittableFrame@@UAGIPAVnsIFrame@@@Z ; 1821
??0nsLeafBoxFrame@@IAE@PAVnsIPresShell@@@Z ; 1819
?Init@nsLeafBoxFrame@@UAGIPAVnsIPresContext@@PAVnsIContent@@PAVnsIFrame@@PAVnsIStyleContext@@2@Z ; 1819
?GetMaxSize@nsBoxToBlockAdaptor@@UAGIAAVnsBoxLayoutState@@AAUnsSize@@@Z ; 1810
??0nsHTMLImageLoader@@QAE@XZ ; 1787
?Init@nsHTMLImageLoader@@QAEXPAVnsIFrame@@P6AIPAVnsIPresContext@@PAV1@0PAXI@Z3PAVnsIURI@@ABVnsString@@@Z ; 1787
?StopAllLoadImages@nsHTMLImageLoader@@QAEXPAVnsIPresContext@@@Z ; 1786
??1nsHTMLImageLoader@@QAE@XZ ; 1786
?GetBoxSize@nsBoxSizeListImpl@@UAE?AVnsBoxSize@@AAVnsBoxLayoutState@@H@Z ; 1785
?GetOuterFrame@nsTreeLayout@@IAEPAVnsXULTreeOuterGroupFrame@@PAVnsIBox@@@Z ; 1782
?GetAscent@nsBox@@UAGIAAVnsBoxLayoutState@@AAH@Z ; 1779
?DisplayAltFeedback@nsImageFrame@@IAEXPAVnsIPresContext@@AAVnsIRenderingContext@@H@Z ; 1772
?AddRemoveScrollbar@nsGfxScrollFrameInner@@QAEHAAVnsBoxLayoutState@@AAUnsRect@@HHH@Z ; 1745
?SetScrollbarVisibility@nsGfxScrollFrameInner@@QAEXPAVnsIBox@@H@Z ; 1741
?AddRemoveScrollbar@nsGfxScrollFrameInner@@QAEHAAH00HHH@Z ; 1739
?HasStyleChange@nsBox@@MAEHXZ ; 1710
?FirstChild@ViewportFrame@@UBGIPAVnsIPresContext@@PAVnsIAtom@@PAPAVnsIFrame@@@Z ; 1708
?GetSelection@PresShell@@UAGIFPAPAVnsISelection@@@Z ; 1692
?CacheImageSize@nsImageBoxFrame@@IAEXAAVnsBoxLayoutState@@@Z ; 1660
?GetImageSize@nsImageBoxFrame@@MAEXPAVnsIPresContext@@@Z ; 1660
??0ReflowEvent@@QAE@PAVnsIPresShell@@@Z ; 1656
?SetReflowEventStatus@PresShell@@IAEIH@Z ; 1655
?HandleEvent@ReflowEvent@@QAEXXZ ; 1655
?GetReflowBatchingStatus@PresShell@@UAGIPAH@Z ; 1655
?GetMinSize@nsBoxToBlockAdaptor@@UAGIAAVnsBoxLayoutState@@AAUnsSize@@@Z ; 1649
?GetCursor@nsTextFrame@@UAGIPAVnsIPresContext@@AAUnsPoint@@AAH@Z ; 1640
?SetSuggestedSize@nsHTMLButtonControlFrame@@UAGIHH@Z ; 1627
?IsAutoWidth@nsTableFrame@@QAEHXZ ; 1615
?GetMetricsFor@nsPresContext@@UAGIABUnsFont@@PAPAVnsIFontMetrics@@@Z ; 1598
?SetParent@nsBoxSizeListNodeImpl@@UAEXPAVnsBoxSizeList@@@Z ; 1592
?GetMaxElementSize@nsTableOuterFrame@@IAE?AUnsSize@@ABUnsMargin@@00@Z ; 1576
?SetMaxElementSize@nsTableFrame@@QAEXPAUnsSize@@ABUnsMargin@@@Z ; 1576
?GetOtherMonumentsAt@nsGridLayout@@UAGIPAVnsIBox@@HPAPAVnsBoxSizeList@@PAVnsMonumentLayout@@@Z ; 1575
?GetOtherMonuments@nsMonumentLayout@@UAGIPAVnsIBox@@PAPAVnsBoxSizeList@@@Z ; 1575
?GetMonumentsAt@nsMonumentLayout@@UAGIPAVnsIBox@@HPAPAVnsBoxSizeList@@@Z ; 1575
?GetContentOf@nsSliderFrame@@AAEXPAVnsIBox@@PAPAVnsIContent@@@Z ; 1556
?QueryInterface@nsGfxTextControlFrame2@@UAGIABUnsID@@PAPAX@Z ; 1556
?GetFirstFloater@nsLineBox@@QAEPAVnsFloaterCache@@XZ ; 1554
?QueryInterface@nsGfxButtonControlFrame@@UAGIABUnsID@@PAPAX@Z ; 1547
?AttributeChanged@nsMenuFrame@@MAGIPAVnsIPresContext@@PAVnsIContent@@HPAVnsIAtom@@H@Z ; 1543
?QueryInterface@nsBoxToBlockAdaptor@@UAGIABUnsID@@PAPAX@Z ; 1535
?StopImageLoad@nsFrameImageLoader@@UAGIH@Z ; 1519
?GetScrolledFrame@nsGfxScrollFrame@@UBGIPAVnsIPresContext@@AAPAVnsIFrame@@@Z ; 1511
?Release@nsGfxScrollFrameInner@@UAGKXZ ; 1506
?NeedsRecalc@nsBoxToBlockAdaptor@@UAGIXZ ; 1505
?ReflowMappedChildren@nsTableRowGroupFrame@@IAGIPAVnsIPresContext@@AAUnsHTMLReflowMetrics@@AAURowGroupReflowState@@AAIPAVnsTableRowFrame@@W4nsReflowReason@@HH@Z ; 1492
?GetFirstFrameForReflow@nsTableRowGroupFrame@@MAEPAVnsIFrame@@PAVnsIPresContext@@@Z ; 1492
?IsHorizontal@nsBoxFrame@@UBEHXZ ; 1492
?PullUpAllRowFrames@nsTableRowGroupFrame@@IAGIPAVnsIPresContext@@@Z ; 1488
?GetTableBorderForRowGroup@nsTableFrame@@QAEXPAVnsTableRowGroupFrame@@AAUnsMargin@@@Z ; 1488
?do_GetService@@YA?BVnsGetServiceByContractID@@PBDPAI@Z ; 1485
?SetContentSelected@nsListControlFrame@@IAEXHH@Z ; 1484
?DesecrateMonuments@nsTempleLayout@@UAGIPAVnsIBox@@AAVnsBoxLayoutState@@@Z ; 1475
?AttributeChanged@nsProgressMeterFrame@@UAGIPAVnsIPresContext@@PAVnsIContent@@HPAVnsIAtom@@H@Z ; 1474
?Append@nsBoxSizeListImpl@@UAEXAAVnsBoxLayoutState@@PAVnsBoxSizeList@@@Z ; 1463
?GetFirstTreeBox@nsXULTreeGroupFrame@@QAEPAVnsIBox@@PAH@Z ; 1462
?LazyRowCreator@nsTreeLayout@@UAGIAAVnsBoxLayoutState@@PAVnsXULTreeGroupFrame@@@Z ; 1462
?isDraggingThumb@nsSliderFrame@@AAEHPAVnsIPresContext@@@Z ; 1457
?DoLayout@nsScrollBoxFrame@@UAGIAAVnsBoxLayoutState@@@Z ; 1419
?ReparentFrameViewList@nsHTMLContainerFrame@@SAIPAVnsIPresContext@@PAVnsIFrame@@11@Z ; 1413
?PushFrames@nsInlineFrame@@MAEXPAVnsIPresContext@@PAVnsIFrame@@1@Z ; 1413
?SetOverflowFrames@nsContainerFrame@@IAEIPAVnsIPresContext@@PAVnsIFrame@@@Z ; 1413
?AttributeChanged@nsBlockFrame@@UAGIPAVnsIPresContext@@PAVnsIContent@@HPAVnsIAtom@@H@Z ; 1404
?GetRowCount@nsTableRowGroupFrame@@QAGIAAHH@Z ; 1396
?CalculateRowHeights@nsTableRowGroupFrame@@IAEXPAVnsIPresContext@@AAUnsHTMLReflowMetrics@@ABUnsHTMLReflowState@@@Z ; 1392
?GetFloaterContainingBlock@nsCSSFrameConstructor@@IAEPAVnsIFrame@@PAVnsIPresContext@@PAV2@@Z ; 1388
?SetNextInFlow@nsTextFrame@@UAGIPAVnsIFrame@@@Z ; 1384
?Release@nsCaret@@UAGKXZ ; 1375
?DisplayDeselected@nsListControlFrame@@IAEXPAVnsIContent@@@Z ; 1372
?BalanceColumnWidths@BasicTableLayoutStrategy@@UAEHPAVnsIPresContext@@PAVnsIStyleContext@@ABUnsHTMLReflowState@@H@Z ; 1369
?BCW_Wrapup@@YAHPAVnsIPresContext@@PAVBasicTableLayoutStrategy@@PAVnsTableFrame@@PAH@Z ; 1369
?SetTableWidth@nsTableFrame@@MAEXPAVnsIPresContext@@ABUnsHTMLReflowState@@@Z ; 1369
?ResetPctValues@@YAXPAVnsTableFrame@@H@Z ; 1369
?BalanceColumnWidths@nsTableFrame@@MAEXPAVnsIPresContext@@ABUnsHTMLReflowState@@ABUnsSize@@PAU4@@Z ; 1369
?CalculateTitleForWidth@nsTextBoxFrame@@MAEXPAVnsIPresContext@@AAVnsIRenderingContext@@H@Z ; 1332
?UpdateAccessIndex@nsTextBoxFrame@@IAEXXZ ; 1332
?DoLayout@nsGfxScrollFrame@@UAGIAAVnsBoxLayoutState@@@Z ; 1323
?Layout@nsGfxScrollFrameInner@@QAEIAAVnsBoxLayoutState@@@Z ; 1323
?GetCachedBoolPref@nsPresContext@@UAGIIAAH@Z ; 1307
?GetPadding@nsTableFrame@@SA?AUnsMargin@@ABUnsSize@@PBVnsTableCellFrame@@@Z ; 1300
?GetMaxWidth@nsTableOuterFrame@@IAEHEABUnsMargin@@0@Z ; 1290
?GetOverflow@nsBoxToBlockAdaptor@@UAGIAAUnsSize@@@Z ; 1287
?SetIncludeOverflow@nsBoxToBlockAdaptor@@UAGIH@Z ; 1287
?ScanNormalUnicodeText_F@nsTextTransformer@@IAEHHPAH0@Z ; 1285
?QueryInterface@nsTableRowGroupFrame@@UAGIABUnsID@@PAPAX@Z ; 1279
?IsMaximumWidthValid@nsTableFrame@@MBEHXZ ; 1279
?AssignPctColumnWidths@BasicTableLayoutStrategy@@IAEHABUnsHTMLReflowState@@HHM@Z ; 1263
?CalculateTotals@BasicTableLayoutStrategy@@IAEXAAHPAH110@Z ; 1250
?GetMouseThrough@nsBox@@UAGIAAH@Z ; 1247
??1nsBoxSizeListNodeImpl@@UAE@XZ ; 1246
??0nsBoxSizeListNodeImpl@@QAE@PAVnsIBox@@@Z ; 1246
?GetMaxPosition@nsSliderFrame@@SAHPAVnsIContent@@@Z ; 1235
?Reflow@CanvasFrame@@UAGIPAVnsIPresContext@@AAUnsHTMLReflowMetrics@@ABUnsHTMLReflowState@@AAI@Z ; 1235
?AddSmallestSize@nsBoxLayout@@UAEXAAUnsSize@@ABU2@@Z ; 1232
??_GnsVoidArray@@UAEPAXI@Z ; 1222
?NS_CheckContentLoadPolicy@@YAIHABVnsString@@PAVnsIDOMElement@@PAH@Z ; 1217
??1nsFrameImageLoader@@MAE@XZ ; 1216
?NS_NewFrameImageLoader@@YAIPAPAVnsIFrameImageLoader@@@Z ; 1216
??_EnsFrameImageLoader@@MAEPAXI@Z ; 1216
?Init@nsFrameImageLoader@@UAGIPAVnsIPresContext@@PAVnsIImageGroup@@ABVnsString@@PBIPBUnsSize@@PAVnsIFrame@@W4nsImageAnimation@@P6AI0PAVnsIFrameImageLoader@@5PAXI@Z88@Z ; 1216
?GetImageAnimationMode@nsPresContext@@UAGIPAW4nsImageAnimation@@@Z ; 1216
??0nsFrameImageLoader@@IAE@XZ ; 1216
?PostScrollPortEvent@nsScrollBoxFrame@@MAEXPAVnsIPresShell@@HW4orientType@nsScrollPortEvent@@@Z ; 1215
?PostDOMEvent@PresShell@@UAGIPAVnsIContent@@PAUnsEvent@@@Z ; 1215
??0nsRecessedBorder@@QAE@H@Z ; 1209
?CalcSidesFor@@YAXPBVnsIFrame@@ABVnsStyleSides@@EPBHHAAUnsMargin@@@Z ; 1209
??0nsStyleBorder@@QAE@XZ ; 1209
?Paint@nsHTMLFrameInnerFrame@@UAGIPAVnsIPresContext@@AAVnsIRenderingContext@@ABUnsRect@@W4nsFramePaintLayer@@@Z ; 1203
?NS_NewBRFrame@@YAIPAVnsIPresShell@@PAPAVnsIFrame@@@Z ; 1188
??_GBRFrame@@MAEPAXI@Z ; 1188
??1BRFrame@@MAE@XZ ; 1188
?Reflow@nsRootBoxFrame@@UAGIPAVnsIPresContext@@AAUnsHTMLReflowMetrics@@ABUnsHTMLReflowState@@AAI@Z ; 1187
?KillTimer@nsCaret@@IAEXXZ ; 1181
?ReflowDirtyChild@nsContainerFrame@@UAGIPAVnsIPresShell@@PAVnsIFrame@@@Z ; 1180
??0nsTableRowFrame@@IAE@XZ ; 1170
??1nsTableRowFrame@@UAE@XZ ; 1170
?NS_NewTableRowFrame@@YAIPAVnsIPresShell@@PAPAVnsIFrame@@@Z ; 1170
??_EnsTableRowFrame@@UAEPAXI@Z ; 1170
?CreateTableRowFrame@nsTableCreator@@UAEIPAPAVnsIFrame@@@Z ; 1170
?InitialReflow@nsTableRowFrame@@MAGIPAVnsIPresContext@@AAUnsHTMLReflowMetrics@@AAURowReflowState@@AAIPAVnsTableCellFrame@@H@Z ; 1170
?ConstructTableRowFrame@nsCSSFrameConstructor@@IAEIPAVnsIPresShell@@PAVnsIPresContext@@AAVnsFrameConstructorState@@PAVnsIContent@@PAVnsIFrame@@PAVnsIStyleContext@@AAUnsTableCreator@@HAAUnsFrameItems@@AAPAV6@AAH@Z ; 1170
?Init@nsTableRowFrame@@UAGIPAVnsIPresContext@@PAVnsIContent@@PAVnsIFrame@@PAVnsIStyleContext@@2@Z ; 1170
?HandleEvent@nsImageFrame@@UAGIPAVnsIPresContext@@PAUnsGUIEvent@@PAW4nsEventStatus@@@Z ; 1162
?GetFrameType@nsHTMLFrameOuterFrame@@UBGIPAPAVnsIAtom@@@Z ; 1155
?Release@nsTextInputSelectionImpl@@UAGKXZ ; 1150
?AddRef@nsTextInputSelectionImpl@@UAGKXZ ; 1150
?ComputeNonPctColspanWidths@BasicTableLayoutStrategy@@IAEHHPAVnsTableCellFrame@@HHHAAHM@Z ; 1148
?Reflow@nsGfxScrollFrame@@UAGIPAVnsIPresContext@@AAUnsHTMLReflowMetrics@@ABUnsHTMLReflowState@@AAI@Z ; 1143
?AddVerticalScrollbar@nsGfxScrollFrameInner@@QAEHAAVnsBoxLayoutState@@AAUnsRect@@H@Z ; 1133
?GetFrameType@nsGfxTextControlFrame2@@UBGIPAPAVnsIAtom@@@Z ; 1130
??1nsFrameConstructorState@@QAE@XZ ; 1129
??0nsFrameConstructorState@@QAE@PAVnsIPresContext@@PAVnsIFrame@@11PAVnsILayoutHistoryState@@@Z ; 1129
?EnsureOrient@nsSliderFrame@@QAEXXZ ; 1114
?GetType@nsTableColFrame@@QBE?AW4nsTableColType@@XZ ; 1106
?NS_NewTableColFrame@@YAIPAVnsIPresShell@@PAPAVnsIFrame@@@Z ; 1102
??0nsTableColFrame@@IAE@XZ ; 1102
??_GnsTableColFrame@@MAEPAXI@Z ; 1102
?InsertCol@nsTableFrame@@QAEXAAVnsIPresContext@@AAVnsTableColFrame@@H@Z ; 1102
??1nsTableColFrame@@MAE@XZ ; 1102
?GetBandAvailableSpace@nsSpaceManager@@IBEIPBUBandRect@1@HABUnsSize@@AAUnsBandData@@@Z ; 1099
?Reflow@nsTableColFrame@@UAGIPAVnsIPresContext@@AAUnsHTMLReflowMetrics@@ABUnsHTMLReflowState@@AAI@Z ; 1099
??_GnsRootBoxFrame@@UAEPAXI@Z ; 1084
?ReflowMappedChildren@nsTableFrame@@MAGIPAVnsIPresContext@@AAUnsHTMLReflowMetrics@@AAUInnerTableReflowState@@AAI@Z ; 1077
?ResizeReflowPass2@nsTableFrame@@MAGIPAVnsIPresContext@@AAUnsHTMLReflowMetrics@@ABUnsHTMLReflowState@@AAI@Z ; 1077
?PullUpChildren@nsTableFrame@@MAGIPAVnsIPresContext@@AAUnsHTMLReflowMetrics@@AAUInnerTableReflowState@@AAI@Z ; 1077
??0nsTableIterator@@QAE@AAVnsFrameList@@W4nsTableIteration@@@Z ; 1077
?ComputePercentBasisForRows@nsTableFrame@@QAEXPAVnsIPresContext@@ABUnsHTMLReflowState@@@Z ; 1077
?PlaceChild@nsTableFrame@@IAEXPAVnsIPresContext@@AAUInnerTableReflowState@@PAVnsIFrame@@AAUnsHTMLReflowMetrics@@HHPAUnsSize@@AAU6@@Z ; 1077
?CollapseRowGroupIfNecessary@nsTableFrame@@IAGIPAVnsIPresContext@@PAVnsIFrame@@ABHAAH3@Z ; 1077
?AdjustForCollapsingCols@nsTableFrame@@IAGIPAVnsIPresContext@@AAH@Z ; 1077
?AdjustForCollapsingRows@nsTableFrame@@IAGIPAVnsIPresContext@@AAH@Z ; 1077
?GetFlex@nsBoxToBlockAdaptor@@UAGIAAVnsBoxLayoutState@@AAH@Z ; 1064
?GetAscent@nsBoxToBlockAdaptor@@UAGIAAVnsBoxLayoutState@@AAH@Z ; 1054
?IsInline@nsHTMLFrameOuterFrame@@QAEHXZ ; 1047
?SetCaretVisible@nsCaret@@UAGIH@Z ; 1042
?QueryInterface@nsHTMLButtonControlFrame@@UAGIABUnsID@@PAPAX@Z ; 1032
?IsServerImageMap@nsImageFrame@@IAEHXZ ; 1031
?GetCursor@nsImageFrame@@UAGIPAVnsIPresContext@@AAUnsPoint@@AAH@Z ; 1026
??_EnsContinuingTextFrame@@UAEPAXI@Z ; 985
?Init@nsContinuingTextFrame@@UAGIPAVnsIPresContext@@PAVnsIContent@@PAVnsIFrame@@PAVnsIStyleContext@@2@Z ; 985
?NS_NewContinuingTextFrame@@YAIPAVnsIPresShell@@PAPAVnsIFrame@@@Z ; 985
?QueryInterface@nsTextInputSelectionImpl@@UAGIABUnsID@@PAPAX@Z ; 984
?Draw@RectArea@@UAEXPAVnsIPresContext@@AAVnsIRenderingContext@@@Z ; 981
?DrawCaret@nsCaret@@IAEXXZ ; 978
?GetAbsoluteContainingBlock@nsCSSFrameConstructor@@IAEPAVnsIFrame@@PAVnsIPresContext@@PAV2@@Z ; 978
?MustDrawCaret@nsCaret@@IAEHXZ ; 978
??0nsImageFrame@@QAE@XZ ; 965
?Init@nsImageFrame@@UAGIPAVnsIPresContext@@PAVnsIContent@@PAVnsIFrame@@PAVnsIStyleContext@@2@Z ; 965
?Destroy@nsImageFrame@@UAGIPAVnsIPresContext@@@Z ; 964
??1nsImageFrame@@MAE@XZ ; 964
?Release@nsBoxSizeListImpl@@UAEXAAVnsBoxLayoutState@@@Z ; 962
?HandleEvent@nsButtonBoxFrame@@UAGIPAVnsIPresContext@@PAUnsGUIEvent@@PAW4nsEventStatus@@@Z ; 961
?NS_NewImageFrame@@YAIPAVnsIPresShell@@PAPAVnsIFrame@@@Z ; 952
??_EnsImageFrame@@MAEPAXI@Z ; 952
?GetCurrentPosition@nsSliderFrame@@SAHPAVnsIContent@@@Z ; 948
?Destroy@nsLineBox@@QAEXPAVnsIPresShell@@@Z ; 933
?UpdateImage@nsImageFrame@@IAEIPAVnsIPresContext@@IPAX@Z ; 924
?UpdateImageFrame@nsImageFrame@@KAIPAVnsIPresContext@@PAVnsHTMLImageLoader@@PAVnsIFrame@@PAXI@Z ; 924
?RecordWordFrame@nsLineLayout@@QAEXPAVnsIFrame@@@Z ; 922
?GetViewForRendering@nsCaret@@IAEXPAVnsIFrame@@W4EViewCoordinates@nsICaret@@AAUnsPoint@@AAUnsRect@@AAPAVnsIView@@@Z ; 922
?SetOverflowClipRect@nsFrame@@IAEXAAVnsIRenderingContext@@@Z ; 920
?ForgetWordFrame@nsLineLayout@@QAEXPAVnsIFrame@@@Z ; 910
?UpdateAttributes@nsImageBoxFrame@@UAEXPAVnsIPresContext@@PAVnsIAtom@@AAH2@Z ; 909
?GetInsertionPoint@FrameManager@@UAGIPAVnsIPresShell@@PAVnsIFrame@@1PAPAV3@@Z ; 904
?SetAdjacent@nsBoxSizeListNodeImpl@@UAEXAAVnsBoxLayoutState@@PAVnsBoxSizeList@@@Z ; 900
?AddColsAtEnd@nsTableCellMap@@QAEXI@Z ; 898
?GetType@nsHTMLButtonControlFrame@@UBGIPAH@Z ; 886
?GetCaptionAdjustedParent@@YAHPAVnsIFrame@@PBV1@PAPAV1@@Z ; 883
?HandleEventWithTarget@PresShell@@UAGIPAUnsEvent@@PAVnsIFrame@@PAVnsIContent@@IPAW4nsEventStatus@@@Z ; 875
?IsInside@RectArea@@UAEHHH@Z ; 871
?Tail@nsFloaterCacheList@@QBEPAVnsFloaterCache@@XZ ; 868
?NS_NewBoxFrame@@YAIPAVnsIPresShell@@PAPAVnsIFrame@@HPAVnsIBoxLayout@@H@Z ; 867
?QueryInterface@nsScrollbarButtonFrame@@UAGIABUnsID@@PAPAX@Z ; 848
?GetFrameForPoint@nsSliderFrame@@UAGIPAVnsIPresContext@@ABUnsPoint@@W4nsFramePaintLayer@@PAPAVnsIFrame@@@Z ; 847
?GetChildFrameContainingOffset@nsTextFrame@@UAGIHHPAHPAPAVnsIFrame@@@Z ; 843
?AttributeChanged@nsScrollbarFrame@@UAGIPAVnsIPresContext@@PAVnsIContent@@HPAVnsIAtom@@H@Z ; 840
?ScrollbarChanged@nsGfxScrollFrameInner@@QAEXPAVnsIPresContext@@HH@Z ; 840
?GetFrameType@nsTableColGroupFrame@@UBGIPAPAVnsIAtom@@@Z ; 839
?UpdateURLSpec@nsHTMLImageLoader@@QAEXPAVnsIPresContext@@ABVnsString@@@Z ; 834
?CombineRects@@YAXABUnsRect@@AAU1@@Z ; 830
??1UndisplayedNode@@QAE@XZ ; 824
?SetUndisplayedContent@FrameManager@@UAGIPAVnsIContent@@PAVnsIStyleContext@@@Z ; 824
?AddNodeFor@UndisplayedMap@@QAEIPAVnsIContent@@0PAVnsIStyleContext@@@Z ; 824
?AppendNodeFor@UndisplayedMap@@IAEIPAVUndisplayedNode@@PAVnsIContent@@@Z ; 824
?AttributeChanged@nsSliderFrame@@UAGIPAVnsIPresContext@@PAVnsIContent@@HPAVnsIAtom@@H@Z ; 809
?GetMinSize@nsTempleLayout@@UAGIPAVnsIBox@@AAVnsBoxLayoutState@@AAUnsSize@@@Z ; 802
?QueryInterface@nsCaret@@UAGIABUnsID@@PAPAX@Z ; 795
?QueryInterface@nsMenuFrame@@UAGIABUnsID@@PAPAX@Z ; 791
?PaintOutlineAndFocusBorders@nsButtonFrameRenderer@@UAEXPAVnsIPresContext@@AAVnsIRenderingContext@@ABUnsRect@@W4nsFramePaintLayer@@2@Z ; 786
?PaintBorderAndBackground@nsButtonFrameRenderer@@UAEXPAVnsIPresContext@@AAVnsIRenderingContext@@ABUnsRect@@W4nsFramePaintLayer@@2@Z ; 786
?PaintButton@nsButtonFrameRenderer@@UAEXPAVnsIPresContext@@AAVnsIRenderingContext@@ABUnsRect@@W4nsFramePaintLayer@@2@Z ; 786
?Paint@nsHTMLButtonControlFrame@@UAGIPAVnsIPresContext@@AAVnsIRenderingContext@@ABUnsRect@@W4nsFramePaintLayer@@@Z ; 786
?PushFrame@nsLineLayout@@IAEXPAVnsIFrame@@@Z ; 781
?AllocateFully@BasicTableLayoutStrategy@@IAEXAAHPAHH@Z ; 772
?GetNextBand@nsSpaceManager@@IBEPAUBandRect@1@PBU21@@Z ; 764
?AddRef@nsPopupSetBoxObject@@UAGKXZ ; 759
?Release@nsMenuBoxObject@@UAGKXZ ; 759
?GetBaseURL@nsPresContext@@UAGIPAPAVnsIURI@@@Z ; 753
??_GnsTextBoxFrame@@UAEPAXI@Z ; 748
?Init@nsTextBoxFrame@@UAGIPAVnsIPresContext@@PAVnsIContent@@PAVnsIFrame@@PAVnsIStyleContext@@2@Z ; 748
??1nsTextBoxFrame@@UAE@XZ ; 748
?NS_NewTextBoxFrame@@YAIPAVnsIPresShell@@PAPAVnsIFrame@@@Z ; 748
??0nsTextBoxFrame@@IAE@PAVnsIPresShell@@@Z ; 748
?Init@nsImageBoxFrame@@UAGIPAVnsIPresContext@@PAVnsIContent@@PAVnsIFrame@@PAVnsIStyleContext@@2@Z ; 747
?Destroy@nsImageBoxFrame@@UAGIPAVnsIPresContext@@@Z ; 747
??1nsImageBoxFrame@@UAE@XZ ; 747
??_GnsImageBoxFrame@@UAEPAXI@Z ; 747
?NS_NewImageBoxFrame@@YAIPAVnsIPresShell@@PAPAVnsIFrame@@@Z ; 747
??0nsImageBoxFrame@@IAE@PAVnsIPresShell@@@Z ; 747
??1nsBoxSizeListImpl@@UAE@XZ ; 745
??0nsBoxSizeListImpl@@QAE@PAVnsIBox@@@Z ; 745
?MarkDirtyChildren@nsBox@@UAGIAAVnsBoxLayoutState@@@Z ; 745
??_EnsBoxSizeListImpl@@UAEPAXI@Z ; 745
?Destroy@nsBoxSizeListImpl@@UAEXAAVnsBoxLayoutState@@@Z ; 745
?AppendFrames@nsFrameList@@QAEXPAVnsIFrame@@0@Z ; 732
?GetIntValue@nsHTMLValue@@QBEHXZ ; 729
?ComputeChildSizes@nsObeliskLayout@@MAEXPAVnsIBox@@AAVnsBoxLayoutState@@AAHPAVnsBoxSize@@AAPAVnsComputedBoxSize@@@Z ; 714
?PopulateBoxSizes@nsObeliskLayout@@MAEXPAVnsIBox@@AAVnsBoxLayoutState@@AAPAVnsBoxSize@@AAPAVnsComputedBoxSize@@AAH44@Z ; 714
?PullOneFrame@nsInlineFrame@@MAEPAVnsIFrame@@PAVnsIPresContext@@AAUInlineReflowState@1@PAH@Z ; 713
?GetFrameInfoFor@nsSpaceManager@@IAEPAUFrameInfo@1@PAVnsIFrame@@@Z ; 712
?ClearFloaters@nsBlockBandData@@QAEHHE@Z ; 708
?ClearFloaters@nsBlockReflowState@@QAEXHE@Z ; 708
?Reflow@nsTreeIndentationFrame@@UAGIPAVnsIPresContext@@AAUnsHTMLReflowMetrics@@ABUnsHTMLReflowState@@AAI@Z ; 677
?GetDefaultColor@nsPresContext@@UAGIPAI@Z ; 674
?GetDefaultDirection@nsPresContext@@UAGIPAE@Z ; 674
?GetDefaultFont@nsPresContext@@UAGIAAUnsFont@@@Z ; 674
?GetDefaultFixedFont@nsPresContext@@UAGIAAUnsFont@@@Z ; 674
?LayoutInternal@nsTreeLayout@@EAGIPAVnsIBox@@AAVnsBoxLayoutState@@@Z ; 664
?Layout@nsTreeLayout@@UAGIPAVnsIBox@@AAVnsBoxLayoutState@@@Z ; 664
?GetMinSize@nsObeliskLayout@@UAGIPAVnsIBox@@AAVnsBoxLayoutState@@AAUnsSize@@@Z ; 657
?GetPrefSize@nsObeliskLayout@@UAGIPAVnsIBox@@AAVnsBoxLayoutState@@AAUnsSize@@@Z ; 657
?GetMaxSize@nsObeliskLayout@@UAGIPAVnsIBox@@AAVnsBoxLayoutState@@AAUnsSize@@@Z ; 657
?GetMinSize@nsStackLayout@@UAGIPAVnsIBox@@AAVnsBoxLayoutState@@AAUnsSize@@@Z ; 652
?GetSelection@nsTextInputSelectionImpl@@UAGIFPAPAVnsISelection@@@Z ; 645
?GetMaxSize@nsStackLayout@@UAGIPAVnsIBox@@AAVnsBoxLayoutState@@AAUnsSize@@@Z ; 630
?QueryInterface@nsListEventListener@@UAGIABUnsID@@PAPAX@Z ; 630
?GetAscent@nsStackLayout@@UAGIPAVnsIBox@@AAVnsBoxLayoutState@@AAH@Z ; 629
?NeedsRecalc@nsXULTreeGroupFrame@@UAGIXZ ; 629
?ComputeExtraJustificationSpacing@nsTextFrame@@QAEXAAVnsIRenderingContext@@AAUTextStyle@1@PAGHH@Z ; 628
?SetView@nsFrame@@UAGIPAVnsIPresContext@@PAVnsIView@@@Z ; 625
?GetNumberOfOptions@nsListControlFrame@@UAGIPAH@Z ; 619
?GetContentOf@nsScrollBoxFrame@@UAEIPAPAVnsIContent@@@Z ; 618
?CurrentPositionChanged@nsSliderFrame@@UAEIPAVnsIPresContext@@@Z ; 618
?Paint@nsHTMLFrameOuterFrame@@UAGIPAVnsIPresContext@@AAVnsIRenderingContext@@ABUnsRect@@W4nsFramePaintLayer@@@Z ; 612
?HandleEvent@nsSliderFrame@@UAGIPAVnsIPresContext@@PAUnsGUIEvent@@PAW4nsEventStatus@@@Z ; 610
?GetType@nsGfxTextControlFrame2@@UBGIPAH@Z ; 608
?GetFrameForPoint@nsSplitterFrame@@UAGIPAVnsIPresContext@@ABUnsPoint@@W4nsFramePaintLayer@@PAPAVnsIFrame@@@Z ; 607
?UpdateImageFrame@nsImageBoxFrame@@KAIPAVnsIPresContext@@PAVnsHTMLImageLoader@@PAVnsIFrame@@PAXI@Z ; 601
?AddRectRegion@nsSpaceManager@@UAGIPAVnsIFrame@@ABUnsRect@@@Z ; 599
??0FrameInfo@nsSpaceManager@@QAE@PAVnsIFrame@@ABUnsRect@@@Z ; 599
?CreateFrameInfo@nsSpaceManager@@IAEPAUFrameInfo@1@PAVnsIFrame@@ABUnsRect@@@Z ; 599
?InsertBandRect@nsSpaceManager@@IAEXPAUBandRect@1@@Z ; 599
?Reflow@nsFrame@@UAGIPAVnsIPresContext@@AAUnsHTMLReflowMetrics@@ABUnsHTMLReflowState@@AAI@Z ; 597
?AddHorizontalScrollbar@nsGfxScrollFrameInner@@QAEHAAVnsBoxLayoutState@@AAUnsRect@@H@Z ; 595
?GetPrefSize@nsTreeLayout@@UAGIPAVnsIBox@@AAVnsBoxLayoutState@@AAUnsSize@@@Z ; 594
?GetMinSize@nsTreeLayout@@UAGIPAVnsIBox@@AAVnsBoxLayoutState@@AAUnsSize@@@Z ; 594
?GetMaxSize@nsTreeLayout@@UAGIPAVnsIBox@@AAVnsBoxLayoutState@@AAUnsSize@@@Z ; 594
?GetDocument@nsTextFrame@@QAEPAVnsIDocument@@PAVnsIPresContext@@@Z ; 593
?Paint@nsComboboxControlFrame@@UAGIPAVnsIPresContext@@AAVnsIRenderingContext@@ABUnsRect@@W4nsFramePaintLayer@@@Z ; 591
?AttributeChanged@nsImageMap@@UAGIPAVnsIDocument@@PAVnsIContent@@HPAVnsIAtom@@H@Z ; 588
?GetSelectedIndexFromDOM@nsListControlFrame@@MAGIPAH@Z ; 587
?GetFontScaler@nsPresContext@@UAGIPAH@Z ; 585
?SetPrevInFlow@nsSplittableFrame@@UAGIPAVnsIFrame@@@Z ; 572
?Desecrate@nsBoxSizeListImpl@@UAEXAAVnsBoxLayoutState@@@Z ; 572
?GetContentOf@nsGfxScrollFrame@@UAEIPAPAVnsIContent@@@Z ; 570
?StartBlinking@nsCaret@@IAEIXZ ; 563
?GetBoxSize@nsBoxSizeListNodeImpl@@UAE?AVnsBoxSize@@AAVnsBoxLayoutState@@H@Z ; 563
?StopBlinking@nsCaret@@IAEIXZ ; 563
?PrimeTimer@nsCaret@@IAEIXZ ; 563
?Release@nsLayoutHistoryState@@UAGKXZ ; 562
?RemoveFromFlow@nsSplittableFrame@@SAXPAVnsIFrame@@@Z ; 559
?GetButtonOuterFocusBorderAndPadding@nsButtonFrameRenderer@@UAE?AUnsMargin@@XZ ; 556
?Get@FrameHashTable@@QAEPAXPAX@Z ; 552
?GetPlaceholderFrameFor@FrameManager@@UBGIPAVnsIFrame@@PAPAV2@@Z ; 552
?ReflowAbsoluteFrame@nsAbsoluteContainingBlock@@IAEIPAVnsIFrame@@PAVnsIPresContext@@ABUnsHTMLReflowState@@HH0W4nsReflowReason@@AAI@Z ; 551
?IsPositioned@nsStylePosition@@QBEHXZ ; 551
?InitAbsoluteConstraints@nsHTMLReflowState@@IAEXPAVnsIPresContext@@PBU1@HH@Z ; 551
?GetPlaceholderFrameFor@PresShell@@UBGIPAVnsIFrame@@PAPAV2@@Z ; 551
?GetStyle@nsFrame@@UBGIW4nsStyleStructID@@AAUnsStyleStruct@@@Z ; 551
?GetPrefSize@nsStackLayout@@UAGIPAVnsIBox@@AAVnsBoxLayoutState@@AAUnsSize@@@Z ; 540
?MeasureString@nsImageFrame@@IAEXPBGHHAAIAAVnsIRenderingContext@@@Z ; 537
?GetPointFromOffset@nsTextFrame@@UAGIPAVnsIPresContext@@PAVnsIRenderingContext@@HPAUnsPoint@@@Z ; 536
?GetButtonRect@nsButtonFrameRenderer@@UAEXABUnsRect@@AAU2@@Z ; 524
?SetCaretEnabled@PresShell@@UAGIH@Z ; 523
?SetSelected@nsTextFrame@@UAGIPAVnsIPresContext@@PAVnsIDOMRange@@HW4nsSpread@@@Z ; 521
?IsInDropDownMode@nsListControlFrame@@IAEHXZ ; 520
?Paint@nsFormControlFrame@@UAGIPAVnsIPresContext@@AAVnsIRenderingContext@@ABUnsRect@@W4nsFramePaintLayer@@@Z ; 519
?SetupDrawingFrameAndOffset@nsCaret@@IAEHXZ ; 519
?ComputeLineMaxElementSize@nsBlockFrame@@IAEXAAVnsBlockReflowState@@PAVnsLineBox@@PAUnsSize@@@Z ; 505
?GetMaxElementSize@nsBlockBandData@@QBEXPAVnsIPresContext@@PAH1@Z ; 505
?HandleEvent@nsMenuFrame@@UAGIPAVnsIPresContext@@PAUnsGUIEvent@@PAW4nsEventStatus@@@Z ; 504
?Release@nsListEventListener@@UAGKXZ ; 504
?AddRef@nsListEventListener@@UAGKXZ ; 504
?Release@nsBoxSizeListNodeImpl@@UAEXAAVnsBoxLayoutState@@@Z ; 501
?Destroy@nsBoxSizeListNodeImpl@@UAEXAAVnsBoxLayoutState@@@Z ; 501
??_EnsBoxSizeListNodeImpl@@UAEPAXI@Z ; 501
?ScrollPositionDidChange@PresShellViewEventListener@@UAGIPAVnsIScrollableView@@HH@Z ; 493
?GetFrameForPoint@nsComboboxControlFrame@@UAGIPAVnsIPresContext@@ABUnsPoint@@W4nsFramePaintLayer@@PAPAVnsIFrame@@@Z ; 493
?ScrollPositionWillChange@PresShellViewEventListener@@UAGIPAVnsIScrollableView@@HH@Z ; 493
?GetScrollbarMediator@nsScrollbarFrame@@UAGIPAPAVnsIScrollbarMediator@@@Z ; 492
?GetState@nsLayoutHistoryState@@UAGIIPAPAVnsIPresState@@W4StateType@nsIStatefulFrame@@@Z ; 488
?CreateAnonymousFrames@nsCSSFrameConstructor@@IAEIPAVnsIPresShell@@PAVnsIPresContext@@AAVnsFrameConstructorState@@PAVnsIContent@@PAVnsIDocument@@PAVnsIFrame@@AAUnsFrameItems@@@Z ; 484
?DoRemoveFrame@nsBlockFrame@@IAEIPAVnsIPresContext@@PAVnsIFrame@@@Z ; 484
?SetRowHeight@nsXULTreeOuterGroupFrame@@QAEXH@Z ; 481
?FreeLineBox@nsBlockReflowState@@QAEXPAVnsLineBox@@@Z ; 481
?GetArea@Area@@QBEXPAPAVnsIContent@@@Z ; 480
?ContentInserted@PresShell@@UAGIPAVnsIDocument@@PAVnsIContent@@1H@Z ; 477
?ComputeNonPctColspanWidths@BasicTableLayoutStrategy@@IAEXABUnsHTMLReflowState@@HM@Z ; 473
?GetEffectiveCOLSAttribute@nsTableFrame@@QAEHXZ ; 461
?Initialize@BasicTableLayoutStrategy@@UAEHPAVnsIPresContext@@PAUnsSize@@HABUnsHTMLReflowState@@@Z ; 461
?Append@nsFloaterCacheFreeList@@QAEXAAVnsFloaterCacheList@@@Z ; 461
?AssignNonPctColumnWidths@BasicTableLayoutStrategy@@MAEHPAVnsIPresContext@@HABUnsHTMLReflowState@@M@Z ; 461
?DoReflowInlineFramesMalloc@nsBlockFrame@@IAEIAAVnsBlockReflowState@@PAVnsLineBox@@PAHPAEHH@Z ; 458
?GetLine@nsLineIterator@@UAGIHPAPAVnsIFrame@@PAHAAUnsRect@@PAI@Z ; 449
?QueryInterface@nsTreeItemDragCapturer@@UAGIABUnsID@@PAPAX@Z ; 449
?Release@DummyLayoutRequest@@UAGKXZ ; 449
?QueryInterface@nsComboboxControlFrame@@UAGIABUnsID@@PAPAX@Z ; 447
?InsertFrames@FrameManager@@UAGIPAVnsIPresContext@@AAVnsIPresShell@@PAVnsIFrame@@PAVnsIAtom@@22@Z ; 446
?TranslateEventCoords@nsImageFrame@@IAEXPAVnsIPresContext@@ABUnsPoint@@AAU3@@Z ; 439
?RegUnRegAccessKey@nsFormControlFrame@@SAIPAVnsIPresContext@@PAVnsIFrame@@H@Z ; 438
?RenderSide@nsCSSRendering@@KAXQAUnsFloatPoint@@AAVnsIRenderingContext@@PBUnsStyleBorder@@PBUnsStyleOutline@@PAVnsIStyleContext@@EAAUnsMargin@@HH@Z ; 436
?QueryInterface@DummyLayoutRequest@@UAGIABUnsID@@PAPAX@Z ; 435
?RenumberListsFor@nsBlockFrame@@IAEHPAVnsIPresContext@@PAVnsIFrame@@PAHH@Z ; 435
?SetHasMultibyte@nsTextTransformer@@QAEXH@Z ; 433
?AddFormControlFrame@nsFormFrame@@SAXPAVnsIPresContext@@AAVnsIFrame@@@Z ; 427
?Append@nsFloaterCacheFreeList@@QAEXPAVnsFloaterCache@@@Z ; 423
?Alloc@nsFloaterCacheFreeList@@QAEPAVnsFloaterCache@@XZ ; 423
?PlaceFloater@nsBlockReflowState@@QAEXPAVnsFloaterCache@@PAH@Z ; 423
?AddFloater@nsBlockReflowState@@QAEXAAVnsLineLayout@@PAVnsPlaceholderFrame@@H@Z ; 423
?ReflowFloater@nsBlockFrame@@IAEIAAVnsBlockReflowState@@PAVnsPlaceholderFrame@@AAUnsRect@@AAUnsMargin@@3@Z ; 423
?AddFloater@nsLineLayout@@QAEXPAVnsPlaceholderFrame@@@Z ; 422
?Grow@nsCellMap@@IAEHAAVnsTableCellMap@@HH@Z ; 421
?UpdateFrames@nsLineLayout@@IAEXXZ ; 419
?GetBoolString@nsFormControlHelper@@SAXHAAV?$basic_nsAWritableString@G@@@Z ; 419
?UpdateBand@nsLineLayout@@QAEXHHHHHPAVnsIFrame@@@Z ; 419
?FindLineContaining@nsLineBox@@SAPAV1@PAV1@PAVnsIFrame@@PAH@Z ; 418
?StyleChangeReflow@nsCSSFrameConstructor@@IAEIPAVnsIPresContext@@PAVnsIFrame@@PAVnsIAtom@@@Z ; 418
?AddColsToTable@nsTableColGroupFrame@@UAGIAAVnsIPresContext@@HHPAVnsIFrame@@1@Z ; 418
?ScanPreAsciiData_F@nsTextTransformer@@IAEHPAH0@Z ; 417
?GetStartColumnIndex@nsTableColGroupFrame@@UAEHXZ ; 417
?CreateAnonymousColFrames@nsTableFrame@@QAEXAAVnsIPresContext@@AAVnsTableColGroupFrame@@HW4nsTableColType@@HPAVnsIFrame@@PAPAV5@@Z ; 416
?CreateAnonymousColFrames@nsTableFrame@@QAEXAAVnsIPresContext@@HW4nsTableColType@@HPAVnsIFrame@@@Z ; 416
?InsertRows@nsCellMap@@QAEXPAVnsIPresContext@@AAVnsTableCellMap@@AAVnsVoidArray@@HH@Z ; 415
?InsertRows@nsTableFrame@@QAEHAAVnsIPresContext@@AAVnsTableRowGroupFrame@@AAVnsVoidArray@@HH@Z ; 415
?InsertRows@nsTableCellMap@@QAEXPAVnsIPresContext@@AAVnsTableRowGroupFrame@@AAVnsVoidArray@@HH@Z ; 415
?CellsSpanInOrOut@nsCellMap@@IAEHAAVnsTableCellMap@@HHHH@Z ; 415
?QueryInterface@nsBoxObject@@UAGIABUnsID@@PAPAX@Z ; 414
?GetCaret@PresShell@@UAGIPAPAVnsICaret@@@Z ; 413
?AppendFrame@nsFrameList@@QAEXPAVnsIFrame@@0@Z ; 413
?SetCurrentPosition@nsSliderFrame@@AAEXPAVnsIContent@@PAVnsIFrame@@H@Z ; 413
?ExpandWithRows@nsCellMap@@IAEXPAVnsIPresContext@@AAVnsTableCellMap@@AAVnsVoidArray@@H@Z ; 413
?Reflow@nsTableColGroupFrame@@UAGIPAVnsIPresContext@@AAUnsHTMLReflowMetrics@@ABUnsHTMLReflowState@@AAI@Z ; 412
??_GnsTableColGroupFrame@@UAEPAXI@Z ; 412
??0nsTableColGroupFrame@@IAE@XZ ; 412
?NS_NewTableColGroupFrame@@YAIPAVnsIPresShell@@PAPAVnsIFrame@@@Z ; 412
?SetStartColumnIndex@nsTableColGroupFrame@@UAEHH@Z ; 412
?NS_NewTableFrame@@YAIPAVnsIPresShell@@PAPAVnsIFrame@@@Z ; 411
?ResizeReflowPass1@nsTableFrame@@UAGIPAVnsIPresContext@@AAUnsHTMLReflowMetrics@@ABUnsHTMLReflowState@@AAIW4nsReflowReason@@H@Z ; 411
??_GnsTableFrame@@MAEPAXI@Z ; 411
?Destroy@nsTableOuterFrame@@UAGIPAVnsIPresContext@@@Z ; 411
??0nsCellMap@@QAE@AAVnsTableRowGroupFrame@@@Z ; 411
?SetInitialChildList@nsTableFrame@@UAGIPAVnsIPresContext@@PAVnsIAtom@@PAVnsIFrame@@@Z ; 411
??0nsTableOuterFrame@@IAE@XZ ; 411
??1nsTableOuterFrame@@MAE@XZ ; 411
??0nsTableCellMap@@QAE@PAVnsIPresContext@@AAVnsTableFrame@@@Z ; 411
?NS_NewTableRowGroupFrame@@YAIPAVnsIPresShell@@PAPAVnsIFrame@@@Z ; 411
?AppendRowGroups@nsTableFrame@@QAEXAAVnsIPresContext@@PAVnsIFrame@@@Z ; 411
??1nsTableRowGroupFrame@@UAE@XZ ; 411
?InsertColGroups@nsTableFrame@@QAEXAAVnsIPresContext@@HPAVnsIFrame@@1@Z ; 411
??1nsCellMap@@QAE@XZ ; 411
?HasGroupRules@nsTableFrame@@QBEHXZ ; 411
??_GnsTableRowGroupFrame@@UAEPAXI@Z ; 411
??1nsTableFrame@@MAE@XZ ; 411
?Destroy@nsTableFrame@@UAGIPAVnsIPresContext@@@Z ; 411
?Init@nsTableOuterFrame@@UAGIPAVnsIPresContext@@PAVnsIContent@@PAVnsIFrame@@PAVnsIStyleContext@@2@Z ; 411
?FixUpOuterTableFloat@@YAXPAVnsIStyleContext@@0@Z ; 411
?AdjustZeroWidth@nsTableOuterFrame@@UAGIXZ ; 411
?NS_NewTableOuterFrame@@YAIPAVnsIPresShell@@PAPAVnsIFrame@@@Z ; 411
?ConstructTableFrame@nsCSSFrameConstructor@@IAEIPAVnsIPresShell@@PAVnsIPresContext@@AAVnsFrameConstructorState@@PAVnsIContent@@PAVnsIFrame@@PAVnsIStyleContext@@AAUnsTableCreator@@HAAUnsFrameItems@@AAPAV6@8AAH@Z ; 411
?Init@nsTableFrame@@UAGIPAVnsIPresContext@@PAVnsIContent@@PAVnsIFrame@@PAVnsIStyleContext@@2@Z ; 411
??0nsTableRowGroupFrame@@IAE@XZ ; 411
?InsertRowGroups@nsTableFrame@@QAEXAAVnsIPresContext@@PAVnsIFrame@@1@Z ; 411
?InsertGroupCellMap@nsTableCellMap@@IAEXPAVnsCellMap@@AAV2@@Z ; 411
?InsertGroupCellMap@nsTableCellMap@@QAEXAAVnsTableRowGroupFrame@@AAPAV2@@Z ; 411
?ConstructTableRowGroupFrame@nsCSSFrameConstructor@@IAEIPAVnsIPresShell@@PAVnsIPresContext@@AAVnsFrameConstructorState@@PAVnsIContent@@PAVnsIFrame@@PAVnsIStyleContext@@AAUnsTableCreator@@HAAUnsFrameItems@@AAPAV6@AAH@Z ; 411
?SetInitialChildList@nsTableOuterFrame@@UAGIPAVnsIPresContext@@PAVnsIAtom@@PAVnsIFrame@@@Z ; 411
?CreateTableOuterFrame@nsTableCreator@@UAEIPAPAVnsIFrame@@@Z ; 411
?CreateTableRowGroupFrame@nsTableCreator@@UAEIPAPAVnsIFrame@@@Z ; 411
??_EnsTableOuterFrame@@MAEPAXI@Z ; 411
?CollectRows@nsTableFrame@@IAEHPAVnsIPresContext@@PAVnsIFrame@@AAVnsVoidArray@@@Z ; 411
??1nsTableCellMap@@QAE@XZ ; 411
??0nsTableFrame@@IAE@XZ ; 411
?CreateTableFrame@nsTableCreator@@UAEIPAPAVnsIFrame@@@Z ; 411
??1BasicTableLayoutStrategy@@UAE@XZ ; 410
??0BasicTableLayoutStrategy@@QAE@PAVnsTableFrame@@H@Z ; 410
??_EBasicTableLayoutStrategy@@UAEPAXI@Z ; 410
?CreateAnonymousColGroupFrame@nsTableFrame@@QAEPAVnsTableColGroupFrame@@AAVnsIPresContext@@W4nsTableColGroupType@@@Z ; 410
?SetType@nsTableColGroupFrame@@QAEXW4nsTableColGroupType@@@Z ; 410
?GetWidgetRenderingMode@nsPresContext@@UAGIPAW4nsWidgetRendering@@@Z ; 408
?Append@nsFloaterCacheList@@QAEXAAVnsFloaterCacheFreeList@@@Z ; 407
?DisplayAltText@nsImageFrame@@IAEXPAVnsIPresContext@@AAVnsIRenderingContext@@ABVnsString@@ABUnsRect@@@Z ; 407
??0nsButtonBoxFrame@@QAE@PAVnsIPresShell@@@Z ; 406
?GetStateType@nsGfxTextControlFrame2@@MAGIPAVnsIPresContext@@PAW4StateType@nsIStatefulFrame@@@Z ; 400
?InsertFrames@nsBlockFrame@@UAGIPAVnsIPresContext@@AAVnsIPresShell@@PAVnsIAtom@@PAVnsIFrame@@3@Z ; 400
?MarkStyleChange@nsBox@@UAGIAAVnsBoxLayoutState@@@Z ; 399
?Paint@nsGfxTextControlFrame2@@UAGIPAVnsIPresContext@@AAVnsIRenderingContext@@ABUnsRect@@W4nsFramePaintLayer@@@Z ; 396
?Release@nsSliderMediator@@UAGKXZ ; 394
??1nsXULTreeCellFrame@@MAE@XZ ; 387
??_EnsXULTreeCellFrame@@MAEPAXI@Z ; 387
??0nsXULTreeCellFrame@@IAE@PAVnsIPresShell@@HPAVnsIBoxLayout@@H@Z ; 387
?NS_NewXULTreeCellFrame@@YAIPAVnsIPresShell@@PAPAVnsIFrame@@HPAVnsIBoxLayout@@H@Z ; 387
?DoLayout@nsMenuFrame@@UAGIAAVnsBoxLayoutState@@@Z ; 386
?ChildrenAppended@nsTempleLayout@@UAGIPAVnsIBox@@AAVnsBoxLayoutState@@0@Z ; 380
?Paint@nsBulletFrame@@UAGIPAVnsIPresContext@@AAVnsIRenderingContext@@ABUnsRect@@W4nsFramePaintLayer@@@Z ; 376
?GetAvailableHeight@nsXULTreeOuterGroupFrame@@UAEHXZ ; 374
?QueryInterface@nsGfxScrollFrameInner@@UAGIABUnsID@@PAPAX@Z ; 374
?ReflowDirtyChild@nsInlineFrame@@UAGIPAVnsIPresShell@@PAVnsIFrame@@@Z ; 370
?Desecrate@nsBoxSizeListNodeImpl@@UAEXAAVnsBoxLayoutState@@@Z ; 368
?QueryInterface@nsTextInputListener@@UAGIABUnsID@@PAPAX@Z ; 366
?IsInside@nsImageMap@@QAEHHHPAPAVnsIContent@@AAVnsString@@11PAH@Z ; 365
?GetMaxSize@nsSliderFrame@@UAGIAAVnsBoxLayoutState@@AAUnsSize@@@Z ; 365
?GetHREF@Area@@QBEXAAVnsString@@@Z ; 365
??0nsBoxLayout@@QAE@XZ ; 361
?IsDisabled@nsMenuFrame@@QAEHXZ ; 361
??0nsSprocketLayout@@QAE@XZ ; 353
??0nsMonumentLayout@@IAE@PAVnsIPresShell@@@Z ; 352
?RemoveDummyFrameFromSelect@nsCSSFrameConstructor@@IAEIPAVnsIPresContext@@PAVnsIPresShell@@PAVnsIContent@@2PAVnsIDOMHTMLSelectElement@@@Z ; 350
?AddOption@nsListControlFrame@@UAGIPAVnsIPresContext@@H@Z ; 350
?AllocateConstrained@BasicTableLayoutStrategy@@IAEXHHHPAHM@Z ; 347
?Reflow@nsGfxButtonControlFrame@@UAGIPAVnsIPresContext@@AAUnsHTMLReflowMetrics@@ABUnsHTMLReflowState@@AAI@Z ; 347
?WipeContainingBlock@nsCSSFrameConstructor@@IAEHPAVnsIPresContext@@AAVnsFrameConstructorState@@PAVnsIContent@@PAVnsIFrame@@3@Z ; 346
?AC_Sort@@YAXPAPAUnsColInfo@@H@Z ; 341
?AC_Wrapup@@YAXPAVnsTableFrame@@HPAPAUnsColInfo@@H@Z ; 341
?GetStringValue@nsHTMLValue@@QBEAAV?$basic_nsAWritableString@G@@AAV2@@Z ; 340
?RemoveFrame@FrameManager@@UAGIPAVnsIPresContext@@AAVnsIPresShell@@PAVnsIFrame@@PAVnsIAtom@@2@Z ; 339
?GetFrameType@nsBulletFrame@@UBGIPAPAVnsIAtom@@@Z ; 336
?GetPrefSize@nsGfxTextControlFrame2@@UAGIAAVnsBoxLayoutState@@AAUnsSize@@@Z ; 332
??0nsAreaFrame@@IAE@XZ ; 332
?GetFrameType@nsHTMLFrameInnerFrame@@UBGIPAPAVnsIAtom@@@Z ; 332
?GetContentAndOffsetsForSelection@nsTextFrame@@IAEIPAVnsIPresContext@@PAPAVnsIContent@@PAH2@Z ; 330
?QueryInterface@nsFormControlFrame@@UAGIABUnsID@@PAPAX@Z ; 330
?RemoveFrame@nsBlockFrame@@UAGIPAVnsIPresContext@@AAVnsIPresShell@@PAVnsIAtom@@PAVnsIFrame@@@Z ; 329
?Paint@nsGfxRadioControlFrame@@UAGIPAVnsIPresContext@@AAVnsIRenderingContext@@ABUnsRect@@W4nsFramePaintLayer@@@Z ; 327
?SetPrevInFlow@nsContinuingTextFrame@@UAGIPAVnsIFrame@@@Z ; 324
?NS_NewSpringFrame@@YAIPAVnsIPresShell@@PAPAVnsIFrame@@@Z ; 324
?DrawDashedSides@nsCSSRendering@@SAXHAAVnsIRenderingContext@@ABUnsRect@@PBUnsStyleBorder@@PBUnsStyleOutline@@H11HPAU3@@Z ; 324
??_GnsSpringFrame@@UAEPAXI@Z ; 324
?ContentRemoved@PresShell@@UAGIPAVnsIDocument@@PAVnsIContent@@1H@Z ; 316
?SetupCachedSizes@nsFormControlFrame@@SAXAAUnsSize@@0AAUnsHTMLReflowMetrics@@@Z ; 314
?UpdateBulletPosition@nsBlockFrame@@IAEIAAVnsBlockReflowState@@@Z ; 313
?PrepareStyleChangedReflow@nsBlockFrame@@IAEIAAVnsBlockReflowState@@@Z ; 313
?Paint@nsXULTreeOuterGroupFrame@@UAGIPAVnsIPresContext@@AAVnsIRenderingContext@@ABUnsRect@@W4nsFramePaintLayer@@@Z ; 312
?GetCurrentLine@nsBlockFrame@@SAIPAVnsBlockReflowState@@PAPAVnsLineBox@@@Z ; 311
?GetProperty@nsListControlFrame@@UAGIPAVnsIAtom@@AAV?$basic_nsAWritableString@G@@@Z ; 310
?GetMinSize@nsSliderFrame@@UAGIAAVnsBoxLayoutState@@AAUnsSize@@@Z ; 309
?GetAltText@Area@@QBEXAAVnsString@@@Z ; 308
?GetTarget@Area@@QBEXAAVnsString@@@Z ; 308
?GetCaretVisible@nsCaret@@UAGIPAH@Z ; 302
?QueryInterface@nsGfxRadioControlFrame@@UAGIABUnsID@@PAPAX@Z ; 300
?IsActive@nsMenuBarFrame@@UAGIXZ ; 295
?RemoveOption@nsListControlFrame@@UAGIPAVnsIPresContext@@H@Z ; 294
?GetButtonInnerFocusMargin@nsButtonFrameRenderer@@UAE?AUnsMargin@@XZ ; 294
?StopLoadImage@nsPresContext@@UAGIPAXPAVnsIFrameImageLoader@@@Z ; 292
?AC_Increase@@YAXHPAPAUnsColInfo@@HAAHM@Z ; 292
?InvalidateFirstPassCache@nsTableFrame@@UAEXXZ ; 292
??_GnsLineIterator@@UAEPAXI@Z ; 291
??1nsLineIterator@@UAE@XZ ; 291
?Init@nsLineIterator@@QAEIPAVnsLineBox@@H@Z ; 291
??0nsLineIterator@@QAE@XZ ; 291
?Release@nsLineIterator@@UAGKXZ ; 291
?GetFrameType@HRuleFrame@@UBGIPAPAVnsIAtom@@@Z ; 285
?Append@nsContainerBox@@UAEXAAVnsBoxLayoutState@@PAVnsIFrame@@@Z ; 285
?SetNameSpace@nsButtonFrameRenderer@@UAEXH@Z ; 284
?QueryInterface@nsPopupSetBoxObject@@UAGIABUnsID@@PAPAX@Z ; 282
?Redraw@nsXULTreeGroupFrame@@UAGIAAVnsBoxLayoutState@@PBUnsRect@@H@Z ; 282
?QueryInterface@nsScrollFrame@@UAGIABUnsID@@PAPAX@Z ; 279
?CreateTreeWidgetContent@nsCSSFrameConstructor@@UAGIPAVnsIPresContext@@PAVnsIFrame@@1PAVnsIContent@@PAPAV3@HHPAVnsILayoutHistoryState@@@Z ; 276
?TreeAppendFrames@nsXULTreeGroupFrame@@UAGIPAVnsIFrame@@@Z ; 276
?UpdateSubmitter@nsFormFrame@@IAEXPAVnsIFormControlFrame@@@Z ; 273
?Equals@nsVoidKey@@UBEHPBVnsHashKey@@@Z ; 273
?AppendFromReadable@?$basic_nsAWritableString@G@@IAEXABV?$basic_nsAReadableString@G@@@Z ; 272
?SetAnonymousContentFor@PresShell@@UAGIPAVnsIContent@@PAVnsISupportsArray@@@Z ; 269
??_EnsISupportsKey@@UAEPAXI@Z ; 268
?Clone@nsISupportsKey@@UBEPAVnsHashKey@@XZ ; 268
?ReParentStyleContext@FrameManager@@UAGIPAVnsIPresContext@@PAVnsIFrame@@PAVnsIStyleContext@@@Z ; 267
?GetAt@nsBoxSizeListNodeImpl@@UAEPAVnsBoxSizeList@@H@Z ; 262
?ChildBecameDirty@nsObeliskLayout@@UAGIPAVnsIBox@@AAVnsBoxLayoutState@@0@Z ; 262
?EnscriptionChanged@nsTempleLayout@@UAGIAAVnsBoxLayoutState@@H@Z ; 262
?GetButtonBorderAndPadding@nsButtonFrameRenderer@@UAE?AUnsMargin@@XZ ; 262
?GetButtonInnerFocusRect@nsButtonFrameRenderer@@UAEXABUnsRect@@AAU2@@Z ; 262
?NS_NewAreaFrame@@YAIPAVnsIPresShell@@PAPAVnsIFrame@@I@Z ; 259
?QueryInterface@nsMenuPopupFrame@@UAGIABUnsID@@PAPAX@Z ; 259
?RemoveFrame@nsFrameList@@QAEHPAVnsIFrame@@@Z ; 257
?GetMinSize@nsGfxTextControlFrame2@@UAGIAAVnsBoxLayoutState@@AAUnsSize@@@Z ; 256
?CanPlaceFloater@nsBlockReflowState@@QAEHABUnsRect@@E@Z ; 256
?QueryInterface@nsPresContext@@UAGIABUnsID@@PAPAX@Z ; 255
?GetDisabled@nsFormFrame@@SAHPAVnsIFrame@@PAVnsIContent@@@Z ; 251
?QueryInterface@nsImageMap@@UAGIABUnsID@@PAPAX@Z ; 248
??_GnsBoxToBlockAdaptor@@UAEPAXI@Z ; 248
?Recycle@nsBoxToBlockAdaptor@@UAGIPAVnsIPresShell@@@Z ; 248
??1nsBoxToBlockAdaptor@@UAE@XZ ; 248
?SetParentBox@nsBoxToBlockAdaptor@@UAGIPAVnsIBox@@@Z ; 248
??0nsBoxToBlockAdaptor@@QAE@PAVnsIPresShell@@PAVnsIFrame@@@Z ; 248
?Release@LayoutScriptNameSet@@UAGKXZ ; 247
?GetTableMaxWidth@BasicTableLayoutStrategy@@UBEHABUnsHTMLReflowState@@@Z ; 246
?AddFormControlFrame@nsFormFrame@@QAEXPAVnsIPresContext@@AAVnsIFormControlFrame@@@Z ; 243
?GetPrefSize@nsXULTreeOuterGroupFrame@@UAGIAAVnsBoxLayoutState@@AAUnsSize@@@Z ; 243
?CreateInputFrame@nsCSSFrameConstructor@@IAEIPAVnsIPresShell@@PAVnsIPresContext@@PAVnsIContent@@AAPAVnsIFrame@@PAVnsIStyleContext@@@Z ; 238
?CalcBorderPadding@nsFrame@@UBGIAAUnsMargin@@@Z ; 237
?CreateInstance@nsLayoutFactory@@UAGIPAVnsISupports@@ABUnsID@@PAPAX@Z ; 236
?GetInstance@nsRepeatService@@SAPAV1@XZ ; 236
?GetAscent@nsScrollBoxFrame@@UAGIAAVnsBoxLayoutState@@AAH@Z ; 235
?Stop@nsRepeatService@@QAEXXZ ; 234
?DoLayout@nsSliderFrame@@UAGIAAVnsBoxLayoutState@@@Z ; 233
?GetRepChars@nsFormControlHelper@@SA?AW4nsCompatibility@@PAVnsIPresContext@@AAD1@Z ; 226
?GetValue@nsHTMLButtonControlFrame@@UAGIPAVnsString@@@Z ; 225
?AllocateUnconstrained@BasicTableLayoutStrategy@@IAEXHPAHHHHHM@Z ; 222
?Set@RoundedRect@@QAEXHHHHQAFF@Z ; 221
?GetRoundedBorders@RoundedRect@@QAEXAAVQBCurve@@000@Z ; 221
?Release@nsCSSFrameConstructor@@UAGKXZ ; 219
?ScanPreWrapWhiteSpace_F@nsTextTransformer@@IAEHPAH@Z ; 218
?GetStyleContextFor@PresShell@@UBGIPAVnsIFrame@@PAPAVnsIStyleContext@@@Z ; 218
?GetFrameForPoint@nsSelectsAreaFrame@@UAGIPAVnsIPresContext@@ABUnsPoint@@W4nsFramePaintLayer@@PAPAVnsIFrame@@@Z ; 211
?InsertFrames@nsFrameList@@QAEXPAVnsIFrame@@00@Z ; 210
?GetRowCount@nsXULTreeOuterGroupFrame@@QAEHXZ ; 209
?PullFrame@nsFrameList@@QAEPAVnsIFrame@@PAV2@0AAV1@@Z ; 209
?ComputeTotalRowCount@nsXULTreeOuterGroupFrame@@IAEXAAHPAVnsIContent@@@Z ; 208
?GetPrefSize@nsSliderFrame@@UAGIAAVnsBoxLayoutState@@AAUnsSize@@@Z ; 207
?IsOpen@nsMenuBarFrame@@UAGIXZ ; 204
?Destroy@nsScrollbarButtonFrame@@UAGIPAVnsIPresContext@@@Z ; 204
?SetInitialValue@nsGfxTextControlFrame2@@IAEIXZ ; 203
?QueryInterface@nsBrowserBoxObject@@UAGIABUnsID@@PAPAX@Z ; 202
?Draw@nsImageMap@@QAEXPAVnsIPresContext@@AAVnsIRenderingContext@@@Z ; 201
?GetMaxSize@nsGfxScrollFrame@@UAGIAAVnsBoxLayoutState@@AAUnsSize@@@Z ; 201
?CreateViewForFrame@nsBoxFrame@@SAIPAVnsIPresContext@@PAVnsIFrame@@PAVnsIStyleContext@@H@Z ; 198
?NS_NewButtonBoxFrame@@YAIPAVnsIPresShell@@PAPAVnsIFrame@@@Z ; 197
??_EnsString@@UAEPAXI@Z ; 196
?StoreMaxElementSize@nsBlockBandData@@SAXPAVnsIPresContext@@PAVnsIFrame@@ABUnsSize@@@Z ; 195
?SetVisibleArea@nsPresContext@@UAGIABUnsRect@@@Z ; 194
?SkipResizeReflow@nsFormControlFrame@@SAXAAUnsSize@@00AAUnsHTMLReflowMetrics@@ABUnsHTMLReflowState@@AAIAAH4@Z ; 194
?GetMaxNumValues@nsFileControlFrame@@UAEHXZ ; 194
??0nsDST@@QAE@PAVNodeArena@0@K@Z ; 193
?GetTreeContent@nsXULTreeOuterGroupFrame@@QAEXPAPAVnsIContent@@@Z ; 193
?Release@NodeArena@nsDST@@QAEXXZ ; 193
??1nsDST@@QAE@XZ ; 193
?SetCurrentMenuItem@nsMenuBarFrame@@UAGIPAVnsIMenuFrame@@@Z ; 193
?GetMinSize@nsGfxScrollFrame@@UAGIAAVnsBoxLayoutState@@AAUnsSize@@@Z ; 193
?DidReflow@nsFormControlFrame@@UAGIPAVnsIPresContext@@H@Z ; 192
?Paint@nsGfxCheckboxControlFrame@@UAGIPAVnsIPresContext@@AAVnsIRenderingContext@@ABUnsRect@@W4nsFramePaintLayer@@@Z ; 192
??_EnsScrollbarButtonFrame@@UAEPAXI@Z ; 190
?GetStateType@nsComboboxControlFrame@@UAGIPAVnsIPresContext@@PAW4StateType@nsIStatefulFrame@@@Z ; 190
?IsMenu@nsMenuFrame@@QAEHXZ ; 190
?SetCurrentMenuItem@nsMenuPopupFrame@@UAGIPAVnsIMenuFrame@@@Z ; 189
??0nsScrollbarButtonFrame@@QAE@PAVnsIPresShell@@@Z ; 188
?NS_NewScrollbarButtonFrame@@YAIPAVnsIPresShell@@PAPAVnsIFrame@@@Z ; 188
?ScrollPositionDidChange@nsGfxScrollFrameInner@@UAGIPAVnsIScrollableView@@HH@Z ; 187
?HasGfxScrollbars@nsCSSFrameConstructor@@IAEHXZ ; 187
?CalculateChildTotalSize@nsScrollFrame@@AAEIPAVnsIFrame@@AAUnsHTMLReflowMetrics@@@Z ; 187
?normalize_forward@?$nsWritingIterator@G@@QAEXXZ ; 185
??1nsObeliskLayout@@MAE@XZ ; 183
?NS_NewObeliskLayout@@YAIPAVnsIPresShell@@AAV?$nsCOMPtr@VnsIBoxLayout@@@@@Z ; 183
?GetAscent@nsGfxScrollFrame@@UAGIAAVnsBoxLayoutState@@AAH@Z ; 183
??0nsObeliskLayout@@IAE@PAVnsIPresShell@@@Z ; 183
??_GnsObeliskLayout@@MAEPAXI@Z ; 183
?ChildrenAppended@nsObeliskLayout@@UAGIPAVnsIBox@@AAVnsBoxLayoutState@@0@Z ; 183
?GetFrameFontFM@nsFormControlHelper@@SAIPAVnsIPresContext@@PAVnsIFormControlFrame@@PAPAVnsIFontMetrics@@@Z ; 182
?GetFont@nsFormControlHelper@@SAIPAVnsIFormControlFrame@@PAVnsIPresContext@@PAVnsIStyleContext@@AAPBUnsFont@@@Z ; 182
?RequiresWidget@nsGfxTextControlFrame2@@UAEIAAH@Z ; 182
?GetAdditionalChildListName@ViewportFrame@@UBGIHPAPAVnsIAtom@@@Z ; 178
?GetFormElementRenderingMode@nsCSSFrameConstructor@@IAE?AW4nsWidgetRendering@@PAVnsIPresContext@@W4nsWidgetType@@@Z ; 177
?Paint@HRuleFrame@@UAGIPAVnsIPresContext@@AAVnsIRenderingContext@@ABUnsRect@@W4nsFramePaintLayer@@@Z ; 177
?NotifySelectionChanged@nsCaret@@UAGIPAVnsIDOMDocument@@PAVnsISelection@@F@Z ; 174
?QueryInterface@nsGfxCheckboxControlFrame@@UAGIABUnsID@@PAPAX@Z ; 173
?GetCurrentCheckState@nsFormControlFrame@@IAEIPAH@Z ; 173
?GetMaxSize@nsGfxTextControlFrame2@@UAGIAAVnsBoxLayoutState@@AAUnsSize@@@Z ; 172
?GetMultiple@nsListControlFrame@@UAGIPAHPAVnsIDOMHTMLSelectElement@@@Z ; 170
??1nsTempleLayout@@MAE@XZ ; 169
??_EnsTreeLayout@@UAEPAXI@Z ; 169
??0nsTempleLayout@@IAE@PAVnsIPresShell@@@Z ; 169
?GetAscent@nsGfxTextControlFrame2@@UAGIAAVnsBoxLayoutState@@AAH@Z ; 166
??2PresShell@@SAPAXI@Z ; 165
?QueryInterface@nsCSSFrameConstructor@@UAGIABUnsID@@PAPAX@Z ; 165
?RemoveFormControlFrame@nsFormFrame@@QAEXAAVnsIFormControlFrame@@@Z ; 164
?AttributeChanged@nsXULTreeGroupFrame@@UAGIPAVnsIPresContext@@PAVnsIContent@@HPAVnsIAtom@@H@Z ; 163
?GetStyleSize@nsFormControlFrame@@SAXPAVnsIPresContext@@ABUnsHTMLReflowState@@AAUnsSize@@@Z ; 163
?GetLastFrame@nsXULTreeGroupFrame@@QAEPAVnsIFrame@@XZ ; 162
?AttributeChanged@nsImageBoxFrame@@UAGIPAVnsIPresContext@@PAVnsIContent@@HPAVnsIAtom@@H@Z ; 162
?QueryInterface@nsSliderMediator@@UAGIABUnsID@@PAPAX@Z ; 161
?GetMinSize@nsTreeScrollPortFrame@@UAGIAAVnsBoxLayoutState@@AAUnsSize@@@Z ; 160
?CalcNavQuirkSizing@nsFormControlHelper@@SAHPAVnsIPresContext@@PAVnsIRenderingContext@@PAVnsIFontMetrics@@PAVnsIFormControlFrame@@AAUnsInputDimensionSpec@@AAUnsSize@@@Z ; 160
?DeleteChildsNextInFlow@nsContainerFrame@@UAEXPAVnsIPresContext@@PAVnsIFrame@@@Z ; 160
?BreakFromPrevFlow@nsSplittableFrame@@SAXPAVnsIFrame@@@Z ; 160
?ChildResized@nsSprocketLayout@@MAEXPAVnsIBox@@AAVnsBoxLayoutState@@0PAVnsBoxSize@@PAVnsComputedBoxSize@@23ABUnsRect@@AAU6@5HAAH@Z ; 158
?DeleteChildsNextInFlow@nsBlockFrame@@UAEXPAVnsIPresContext@@PAVnsIFrame@@@Z ; 157
?Reflow@nsScrollFrame@@UAGIPAVnsIPresContext@@AAUnsHTMLReflowMetrics@@ABUnsHTMLReflowState@@AAI@Z ; 157
?GetScrollbarSizes@nsScrollFrame@@UBGIPAVnsIPresContext@@PAH1@Z ; 157
?CalculateScrollAreaSize@nsScrollFrame@@AAEIPAVnsIPresContext@@ABUnsHTMLReflowState@@AAUnsMargin@@HHPAUnsSize@@PAH@Z ; 157
?Release@nsDragOverListener@@UAGKXZ ; 156
?QueryInterface@nsXULTreeFrame@@UAGIABUnsID@@PAPAX@Z ; 156
?Paint@nsScrollBoxFrame@@UAGIPAVnsIPresContext@@AAVnsIRenderingContext@@ABUnsRect@@W4nsFramePaintLayer@@@Z ; 156
?Reflow@nsGfxTextControlFrame2@@UAGIPAVnsIPresContext@@AAUnsHTMLReflowMetrics@@ABUnsHTMLReflowState@@AAI@Z ; 153
?InvalidateMaximumWidth@nsTableFrame@@UAEXXZ ; 153
?GetCheckboxState@nsGfxCheckboxControlFrame@@IAE?AW4CheckState@1@XZ ; 151
?GetSelectionContr@nsGfxTextControlFrame2@@UAGIPAPAVnsISelectionController@@@Z ; 150
??0nsXULTreeGroupFrame@@IAE@PAVnsIPresShell@@HPAVnsIBoxLayout@@H@Z ; 149
?Init@nsXULTreeGroupFrame@@UAGIPAVnsIPresContext@@PAVnsIContent@@PAVnsIFrame@@PAVnsIStyleContext@@2@Z ; 149
??1nsXULTreeGroupFrame@@MAE@XZ ; 149
??0nsTreeLayout@@QAE@PAVnsIPresShell@@@Z ; 149
?NS_NewTreeLayout@@YAIPAVnsIPresShell@@AAV?$nsCOMPtr@VnsIBoxLayout@@@@@Z ; 149
??0nsTreeItemDragCapturer@@QAE@PAVnsXULTreeGroupFrame@@PAVnsIPresContext@@@Z ; 149
??1nsTreeItemDragCapturer@@UAE@XZ ; 149
??_GnsTreeItemDragCapturer@@UAEPAXI@Z ; 149
?SetContentChain@nsXULTreeGroupFrame@@QAEXPAVnsISupportsArray@@@Z ; 148
?IsOccupiedBy@BandRect@nsSpaceManager@@QBEHPBVnsIFrame@@@Z ; 148
?QueryInterface@nsPopupSetFrame@@UAGIABUnsID@@PAPAX@Z ; 148
?GetClosestViewForFrame@nsFrame@@UAEIPAVnsIPresContext@@PAVnsIFrame@@PAPAVnsIView@@@Z ; 147
?Reflow@nsBulletFrame@@UAGIPAVnsIPresContext@@AAUnsHTMLReflowMetrics@@ABUnsHTMLReflowState@@AAI@Z ; 147
?GetDesiredSize@nsBulletFrame@@IAEXPAVnsIPresContext@@ABUnsHTMLReflowState@@AAUnsHTMLReflowMetrics@@@Z ; 147
?GetRootFrame@PresShell@@UBGIPAPAVnsIFrame@@@Z ; 145
?Reflow@nsHTMLFrameOuterFrame@@UAGIPAVnsIPresContext@@AAUnsHTMLReflowMetrics@@ABUnsHTMLReflowState@@AAI@Z ; 145
?Reflow@nsHTMLFrameInnerFrame@@UAGIPAVnsIPresContext@@AAUnsHTMLReflowMetrics@@ABUnsHTMLReflowState@@AAI@Z ; 145
?GetDesiredSize@nsHTMLFrameInnerFrame@@MAEXPAVnsIPresContext@@ABUnsHTMLReflowState@@AAUnsHTMLReflowMetrics@@@Z ; 145
?GetDesiredSize@nsHTMLFrameOuterFrame@@MAEXPAVnsIPresContext@@ABUnsHTMLReflowState@@AAUnsHTMLReflowMetrics@@@Z ; 144
??0nsGfxButtonControlFrame@@QAE@XZ ; 142
?NS_NewGfxButtonControlFrame@@YAIPAVnsIPresShell@@PAPAVnsIFrame@@@Z ; 142
??0nsButtonFrameRenderer@@QAE@XZ ; 142
?Destroy@nsHTMLButtonControlFrame@@UAGIPAVnsIPresContext@@@Z ; 142
?CreateAnonymousContent@nsGfxButtonControlFrame@@UAGIPAVnsIPresContext@@AAVnsISupportsArray@@@Z ; 142
?NS_NewXULTreeGroupFrame@@YAIPAVnsIPresShell@@PAPAVnsIFrame@@HPAVnsIBoxLayout@@H@Z ; 142
??_EnsXULTreeGroupFrame@@MAEPAXI@Z ; 142
??1nsButtonFrameRenderer@@UAE@XZ ; 142
??1nsHTMLButtonControlFrame@@UAE@XZ ; 142
?CreateFrameFor@nsGfxButtonControlFrame@@UAGIPAVnsIPresContext@@PAVnsIContent@@PAPAVnsIFrame@@@Z ; 142
??0nsHTMLButtonControlFrame@@QAE@XZ ; 142
?SetFrame@nsButtonFrameRenderer@@UAEXPAVnsFrame@@PAVnsIPresContext@@@Z ; 142
?Init@nsHTMLButtonControlFrame@@UAGIPAVnsIPresContext@@PAVnsIContent@@PAVnsIFrame@@PAVnsIStyleContext@@2@Z ; 142
??_EnsGfxButtonControlFrame@@UAEPAXI@Z ; 142
?SetInitialChildList@nsHTMLButtonControlFrame@@UAGIPAVnsIPresContext@@PAVnsIAtom@@PAVnsIFrame@@@Z ; 142
?ReResolveStyles@nsButtonFrameRenderer@@UAEXPAVnsIPresContext@@@Z ; 142
?ConstructButtonControlFrame@nsCSSFrameConstructor@@IAEIPAVnsIPresShell@@PAVnsIPresContext@@AAPAVnsIFrame@@@Z ; 142
??1nsXULTreeSliceFrame@@MAE@XZ ; 140
?NS_NewXULTreeSliceFrame@@YAIPAVnsIPresShell@@PAPAVnsIFrame@@HPAVnsIBoxLayout@@H@Z ; 140
??_EnsXULTreeSliceFrame@@MAEPAXI@Z ; 140
?NotifyReflowObservers@PresShell@@IAEIPBD@Z ; 140
??0nsXULTreeSliceFrame@@IAE@PAVnsIPresShell@@HPAVnsIBoxLayout@@H@Z ; 140
?QueryInterface@nsSplitterFrameInner@@UAGIABUnsID@@PAPAX@Z ; 138
?BuildAcceleratorText@nsMenuFrame@@IAEXAAVnsString@@@Z ; 137
?UpdateMenuType@nsMenuFrame@@IAEXPAVnsIPresContext@@@Z ; 137
?SetInitialChildList@nsMenuFrame@@UAGIPAVnsIPresContext@@PAVnsIAtom@@PAVnsIFrame@@@Z ; 137
?MoveTo@nsListControlFrame@@UAGIPAVnsIPresContext@@HH@Z ; 137
?NS_NewMenuFrame@@YAIPAVnsIPresShell@@PAPAVnsIFrame@@I@Z ; 137
?UpdateMenuSpecialState@nsMenuFrame@@IAEXPAVnsIPresContext@@@Z ; 137
??_GnsMenuFrame@@UAEPAXI@Z ; 137
?Destroy@nsMenuFrame@@UAGIPAVnsIPresContext@@@Z ; 137
?Init@nsMenuFrame@@UAGIPAVnsIPresContext@@PAVnsIContent@@PAVnsIFrame@@PAVnsIStyleContext@@2@Z ; 137
??0nsMenuFrame@@QAE@PAVnsIPresShell@@@Z ; 137
??1nsMenuFrame@@UAE@XZ ; 137
?GetVisibleArea@nsPresContext@@UAGIAAUnsRect@@@Z ; 136
?GetRadioState@nsGfxRadioControlFrame@@MAEHXZ ; 134
?Stop@nsPresContext@@UAGIH@Z ; 134
?IsMouseCaptured@nsFrame@@QAEHPAVnsIPresContext@@@Z ; 133
?Paint@nsScrollFrame@@UAGIPAVnsIPresContext@@AAVnsIRenderingContext@@ABUnsRect@@W4nsFramePaintLayer@@@Z ; 132
?Paint@nsListControlFrame@@UAGIPAVnsIPresContext@@AAVnsIRenderingContext@@ABUnsRect@@W4nsFramePaintLayer@@@Z ; 132
?GetFont@nsHTMLButtonControlFrame@@UAGIPAVnsIPresContext@@AAPBUnsFont@@@Z ; 132
??0PropertyList@FrameManager@@QAE@PAVnsIAtom@@P6AXPAVnsIPresContext@@PAVnsIFrame@@0PAX@ZPAVNodeArena@nsDST@@@Z ; 130
?Desecrated@nsObeliskLayout@@MAEXPAVnsIBox@@AAVnsBoxLayoutState@@AAVnsBoxSizeList@@@Z ; 130
?HasStyleChange@nsBoxToBlockAdaptor@@MAEHXZ ; 130
??1PropertyList@FrameManager@@QAE@XZ ; 130
?RemoveAllProperties@PropertyList@FrameManager@@QAEXPAVnsIPresContext@@@Z ; 130
?MarkChildrenStyleChange@nsMenuFrame@@UAGIXZ ; 130
?IsDone@DrawSelectionIterator@@QAEHXZ ; 126
?SetStyleChangeFlag@nsBoxToBlockAdaptor@@MAEXH@Z ; 126
?ColumnsAreValidFor@BasicTableLayoutStrategy@@MBEHABVnsTableCellFrame@@HH@Z ; 125
?ColumnsAreValidFor@nsTableFrame@@QBEHABVnsTableCellFrame@@HH@Z ; 125
?DoLayout@nsSplitterFrame@@UAGIAAVnsBoxLayoutState@@@Z ; 124
?do_GetIOService@@YA?BVnsGetServiceByCID@@PAI@Z ; 123
?EnsureDifferentColors@@YAIII@Z ; 123
?NS_NewURI@@YAIPAPAVnsIURI@@PBDPAV1@PAVnsIIOService@@@Z ; 123
??0DrawSelectionIterator@@QAE@PBUSelectionDetails@@PAGIAAUTextStyle@nsTextFrame@@F@Z ; 122
??_EnsTreeIndentationFrame@@MAEPAXI@Z ; 122
??0nsTreeIndentationFrame@@QAE@XZ ; 122
?NS_NewTreeIndentationFrame@@YAIPAVnsIPresShell@@PAPAVnsIFrame@@@Z ; 122
??1DrawSelectionIterator@@QAE@XZ ; 122
??1nsTreeIndentationFrame@@MAE@XZ ; 122
?Blur@nsMenuBarListener@@UAEIPAVnsIDOMEvent@@@Z ; 121
?QueryInterface@nsImageControlFrame@@UAGIABUnsID@@PAPAX@Z ; 120
??1FrameArena@@QAE@XZ ; 118
?CaptureMouse@nsFrame@@UAGIPAVnsIPresContext@@H@Z ; 118
?Reflow@nsComboboxControlFrame@@UAGIPAVnsIPresContext@@AAUnsHTMLReflowMetrics@@ABUnsHTMLReflowState@@AAI@Z ; 117
?GetFrame@nsBoxObject@@UAEPAVnsIFrame@@XZ ; 116
?GetScrollingParentView@nsScrollBoxFrame@@MAEIPAVnsIPresContext@@PAVnsIFrame@@PAPAVnsIView@@@Z ; 114
?SetContainer@nsPresContext@@UAGIPAVnsISupports@@@Z ; 113
?RemoveRegion@nsSpaceManager@@UAGIPAVnsIFrame@@@Z ; 113
?AppendFrames@FrameManager@@UAGIPAVnsIPresContext@@AAVnsIPresShell@@PAVnsIFrame@@PAVnsIAtom@@2@Z ; 113
?DestroyFrameInfo@nsSpaceManager@@IAEXPAUFrameInfo@1@@Z ; 113
?PaintRoundedBackground@nsCSSRendering@@KAXPAVnsIPresContext@@AAVnsIRenderingContext@@PAVnsIFrame@@ABUnsRect@@3ABUnsStyleColor@@HHQAF@Z ; 112
?ReflowBullet@nsBlockFrame@@IAEXAAVnsBlockReflowState@@AAUnsHTMLReflowMetrics@@@Z ; 111
?IsZeroHeight@nsLineLayout@@QAEHXZ ; 111
?SetLinkHandler@nsPresContext@@UAGIPAVnsILinkHandler@@@Z ; 111
?AddBulletFrame@nsLineLayout@@QAEIPAVnsIFrame@@ABUnsHTMLReflowMetrics@@@Z ; 111
?SetShell@nsPresContext@@UAGIPAVnsIPresShell@@@Z ; 110
?QueryInterface@nsLayoutDLF@@UAGIABUnsID@@PAPAX@Z ; 110
?ReleaseAnonymousContent@PresShell@@UAGIXZ ; 110
?GetFontPreferences@nsPresContext@@IAEXXZ ; 110
?AppendFrames@nsCSSFrameConstructor@@IAEIPAVnsIPresContext@@PAVnsIPresShell@@PAVnsIFrameManager@@PAVnsIContent@@PAVnsIFrame@@4@Z ; 110
??_EnsScrollbarFrame@@UAEPAXI@Z ; 110
?ScrollSelectionIntoView@PresShell@@UAGIFF@Z ; 110
?CalcInsetCurves@RoundedRect@@QAEXAAVQBCurve@@000AAUnsMargin@@@Z ; 109
?GetProperty@nsGfxRadioControlFrame@@UAGIPAVnsIAtom@@AAV?$basic_nsAWritableString@G@@@Z ; 109
?PaintRadioButton@nsGfxRadioControlFrame@@UAEXPAVnsIPresContext@@AAVnsIRenderingContext@@ABUnsRect@@@Z ; 109
?GetDataForTableSelection@nsFrame@@MAGIPAVnsIFrameSelection@@PAUnsMouseEvent@@PAPAVnsIContent@@PAH3@Z ; 109
?PaintRoundedBorder@nsCSSRendering@@KAXPAVnsIPresContext@@AAVnsIRenderingContext@@PAVnsIFrame@@ABUnsRect@@3PBUnsStyleBorder@@PBUnsStyleOutline@@PAVnsIStyleContext@@HQAFPAU5@H@Z ; 109
?BeginObservingDocument@PresShell@@UAGIXZ ; 109
?GetChildFrameContainingOffset@nsFrame@@UAGIHHPAHPAPAVnsIFrame@@@Z ; 108
?advance@?$nsWritingIterator@G@@QAEAAV1@H@Z ; 108
?SetDisplaySelection@nsTextInputSelectionImpl@@UAGIF@Z ; 107
?GetNextRowSibling@nsTableRowGroupFrame@@IAEXPAPAVnsIFrame@@@Z ; 107
?GetPrefSize@nsGfxScrollFrame@@UAGIAAVnsBoxLayoutState@@AAUnsSize@@@Z ; 106
?CaptureStateFor@nsCSSFrameConstructor@@IAEIPAVnsIPresContext@@PAVnsIFrame@@PAVnsILayoutHistoryState@@@Z ; 105
?SetDisplaySelection@PresShell@@UAGIF@Z ; 105
?Destroy@nsGfxScrollFrame@@UAGIPAVnsIPresContext@@@Z ; 105
?GetProperty@nsHTMLButtonControlFrame@@UAGIPAVnsIAtom@@AAV?$basic_nsAWritableString@G@@@Z ; 104
?IsSingleLineTextControl@nsGfxTextControlFrame2@@MBEHXZ ; 104
?Init@nsScrollBoxFrame@@UAGIPAVnsIPresContext@@PAVnsIContent@@PAVnsIFrame@@PAVnsIStyleContext@@2@Z ; 103
?GetFixedRowSize@nsXULTreeOuterGroupFrame@@QAEHXZ ; 103
?RenumberListsIn@nsBlockFrame@@IAEHPAVnsIPresContext@@PAVnsIFrame@@PAHH@Z ; 103
?CreateScrollingViewWidget@nsScrollBoxFrame@@MAEIPAVnsIView@@PBUnsStylePosition@@@Z ; 103
?CreateScrollingView@nsScrollBoxFrame@@AAEIPAVnsIPresContext@@@Z ; 103
?SetUpScrolledFrame@nsScrollBoxFrame@@MAEXPAVnsIPresContext@@@Z ; 103
??_EnsScrollBoxFrame@@UAEPAXI@Z ; 103
??0nsScrollBoxFrame@@IAE@PAVnsIPresShell@@@Z ; 103
?SetInitialChildList@nsScrollBoxFrame@@UAGIPAVnsIPresContext@@PAVnsIAtom@@PAVnsIFrame@@@Z ; 103
?GetYPosition@nsXULTreeOuterGroupFrame@@UAEHXZ ; 103
?GetScrollPreference@nsGfxScrollFrame@@UBGIPAVnsIPresContext@@PAW4nsScrollPref@nsIScrollableFrame@@@Z ; 103
?SaveState@nsGfxButtonControlFrame@@MAGIPAVnsIPresContext@@PAPAVnsIPresState@@@Z ; 102
?GetDebugPref@nsBoxFrameInner@@QAEXPAVnsIPresContext@@@Z ; 102
?GetTextControlFrameState@nsGfxTextControlFrame2@@QAEXAAV?$basic_nsAWritableString@G@@@Z ; 102
?ClearPreferenceStyleRules@PresShell@@IAEIXZ ; 101
?GetFormContent@nsGfxTextControlFrame2@@UBGIAAPAVnsIContent@@@Z ; 100
?ContentAppended@nsCSSFrameConstructor@@UAGIPAVnsIPresContext@@PAVnsIContent@@H@Z ; 99
?GetColRowSizeAttr@nsGfxTextControlFrame2@@IAEIPAVnsIFormControlFrame@@PAVnsIAtom@@AAVnsHTMLValue@@AAI123@Z ; 99
?copy_string@@YAAAV?$nsWritingIterator@G@@AAV?$nsReadingIterator@G@@ABV2@AAV1@@Z ; 99
?BeginWriting@?$basic_nsAWritableString@G@@QAEAAV?$nsWritingIterator@G@@AAV2@@Z ; 99
?GetWrapPropertyEnum@nsFormControlHelper@@SAIPAVnsIContent@@AAW4nsHTMLTextWrap@1@@Z ; 99
?GetWrapProperty@nsFormControlHelper@@SAIPAVnsIContent@@AAVnsString@@@Z ; 99
?ContentAppended@PresShell@@UAGIPAVnsIDocument@@PAVnsIContent@@H@Z ; 99
?AddListener@nsSliderFrame@@AAEXXZ ; 98
?RemoveNodeFor@UndisplayedMap@@QAEIPAVnsIContent@@PAVUndisplayedNode@@@Z ; 97
?GetContentAndOffsetsFromPoint@nsFrame@@UAGIPAVnsIPresContext@@ABUnsPoint@@PAPAVnsIContent@@AAH33@Z ; 97
?GetSizeFromContent@nsGfxTextControlFrame2@@IBEIPAH@Z ; 97
?DestroyFrame@nsFrameList@@QAEHPAVnsIPresContext@@PAVnsIFrame@@@Z ; 96
?DoLayout@nsXULTreeFrame@@UAGIAAVnsBoxLayoutState@@@Z ; 96
?GetBox@nsContainerBox@@UAEPAVnsIBox@@PAVnsIFrame@@@Z ; 96
?SetScrollbarVisibility@nsGfxScrollFrame@@UAGIPAVnsIPresContext@@HH@Z ; 96
?BeginBuildingScrollFrame@nsCSSFrameConstructor@@IAEIPAVnsIPresShell@@PAVnsIPresContext@@AAVnsFrameConstructorState@@PAVnsIContent@@PAVnsIStyleContext@@PAVnsIFrame@@PAVnsIAtom@@PAVnsIDocument@@HAAPAV7@AAV?$nsCOMPtr@VnsIStyleContext@@@@85@Z ; 95
?FinishBuildingScrollFrame@nsCSSFrameConstructor@@IAEIPAVnsIPresContext@@AAVnsFrameConstructorState@@PAVnsIContent@@PAVnsIFrame@@3PAVnsIStyleContext@@@Z ; 95
?NS_NewGfxScrollFrame@@YAIPAVnsIPresShell@@PAPAVnsIFrame@@PAVnsIDocument@@H@Z ; 95
?Init@nsGfxScrollFrame@@UAGIPAVnsIPresContext@@PAVnsIContent@@PAVnsIFrame@@PAVnsIStyleContext@@2@Z ; 95
?CreateAnonymousContent@nsGfxScrollFrame@@UAGIPAVnsIPresContext@@AAVnsISupportsArray@@@Z ; 95
??0nsGfxScrollFrameInner@@QAE@PAVnsGfxScrollFrame@@@Z ; 95
??1nsGfxScrollFrame@@UAE@XZ ; 95
?NeedsClipWidget@nsScrollPortFrame@@MAEHXZ ; 95
??0nsGfxScrollFrame@@IAE@PAVnsIPresShell@@PAVnsIDocument@@H@Z ; 95
??_EnsGfxScrollFrameInner@@UAEPAXI@Z ; 95
?SetInitialChildList@nsGfxScrollFrame@@UAGIPAVnsIPresContext@@PAVnsIAtom@@PAVnsIFrame@@@Z ; 95
??_EnsGfxScrollFrame@@UAEPAXI@Z ; 95
??0nsScrollPortFrame@@IAE@PAVnsIPresShell@@@Z ; 95
??1nsGfxScrollFrameInner@@UAE@XZ ; 95
?BuildGfxScrollFrame@nsCSSFrameConstructor@@IAEIPAVnsIPresShell@@PAVnsIPresContext@@AAVnsFrameConstructorState@@PAVnsIContent@@PAVnsIDocument@@PAVnsIFrame@@PAVnsIStyleContext@@HAAPAV7@AAUnsFrameItems@@5@Z ; 95
?GetWidthOrLength@nsTextFrame@@IAEHAAVnsIRenderingContext@@AAUTextStyle@1@PAGHPAHH@Z ; 94
??0nsSliderFrame@@QAE@PAVnsIPresShell@@@Z ; 94
??_EnsSliderFrame@@UAEPAXI@Z ; 94
??_GnsSliderMediator@@UAEPAXI@Z ; 94
?PaintTextSlowly@nsTextFrame@@QAEXPAVnsIPresContext@@AAVnsIRenderingContext@@PAVnsIStyleContext@@AAUTextStyle@1@HH@Z ; 94
?NS_NewScrollbarFrame@@YAIPAVnsIPresShell@@PAPAVnsIFrame@@@Z ; 94
??1nsSliderFrame@@UAE@XZ ; 94
?Destroy@nsSliderFrame@@UAGIPAVnsIPresContext@@@Z ; 94
?CreateFrameFor@nsFileControlFrame@@UAGIPAVnsIPresContext@@PAVnsIContent@@PAPAVnsIFrame@@@Z ; 94
?Init@nsScrollbarFrame@@UAGIPAVnsIPresContext@@PAVnsIContent@@PAVnsIFrame@@PAVnsIStyleContext@@2@Z ; 94
??0nsScrollbarFrame@@QAE@PAVnsIPresShell@@@Z ; 94
?GetWidth@nsTextFrame@@QAEXAAVnsIRenderingContext@@AAUTextStyle@1@PAGHPAH@Z ; 94
?NS_NewSliderFrame@@YAIPAVnsIPresShell@@PAPAVnsIFrame@@@Z ; 94
?RenderString@nsTextFrame@@QAEXAAVnsIRenderingContext@@PAVnsIStyleContext@@AAUTextStyle@1@PAGHHHHPAUSelectionDetails@@@Z ; 94
?SetInitialChildList@nsSliderFrame@@UAGIPAVnsIPresContext@@PAVnsIAtom@@PAVnsIFrame@@@Z ; 94
?SetSlider@nsSliderMediator@@UAEXPAVnsSliderFrame@@@Z ; 94
?Init@nsSliderFrame@@UAGIPAVnsIPresContext@@PAVnsIContent@@PAVnsIFrame@@PAVnsIStyleContext@@2@Z ; 94
?SetListener@nsBoxSizeListImpl@@UAEHPAVnsIBox@@AAVnsBoxSizeListener@@@Z ; 93
?GetType@nsFormControlFrame@@UBGIPAH@Z ; 93
?GetDefaultCheckState@nsFormControlFrame@@IAEIPAH@Z ; 92
?AppendFrames@nsBlockFrame@@UAGIPAVnsIPresContext@@AAVnsIPresShell@@PAVnsIAtom@@PAVnsIFrame@@@Z ; 90
?Remove@nsContainerBox@@UAEXAAVnsBoxLayoutState@@PAVnsIFrame@@@Z ; 90
?GetPrevious@nsContainerBox@@UAEPAVnsIBox@@PAVnsIFrame@@@Z ; 90
?RemoveAfter@nsContainerBox@@UAEXAAVnsBoxLayoutState@@PAVnsIBox@@@Z ; 90
?CaptureHistoryState@PresShell@@UAGIPAPAVnsILayoutHistoryState@@H@Z ; 89
?GetIndexOfFirstVisibleRow@nsXULTreeOuterGroupFrame@@UAGIPAH@Z ; 88
?DoLayout@nsXULTreeOuterGroupFrame@@UAGIAAVnsBoxLayoutState@@@Z ; 88
?SizeTo@nsXULTreeOuterGroupFrame@@UAGIPAVnsIPresContext@@HH@Z ; 88
?PostReflowCallback@nsXULTreeOuterGroupFrame@@QAEXXZ ; 88
?NS_NewScrollPortFrame@@YAIPAVnsIPresShell@@PAPAVnsIFrame@@@Z ; 88
?RemoveMappingsForFrameSubtree@nsCSSFrameConstructor@@UAGIPAVnsIPresContext@@PAVnsIFrame@@PAVnsILayoutHistoryState@@@Z ; 88
?GetNoShade@HRuleFrame@@IAEHXZ ; 87
?readable_distance@?$nsCharSourceTraits@V?$nsReadingIterator@G@@@@SAIABV?$nsReadingIterator@G@@0@Z ; 86
?move@?$nsCharTraits@G@@SAPAGPAGPBGI@Z ; 86
?write@?$nsWritingIterator@G@@QAEIPBGI@Z ; 86
?BeginReflowBatching@PresShell@@UAGIXZ ; 86
?ResizeReflow@PresShell@@UAGIHH@Z ; 86
?EndReflowBatching@PresShell@@UAGIH@Z ; 86
?GetMinSize@nsScrollBoxFrame@@UAGIAAVnsBoxLayoutState@@AAUnsSize@@@Z ; 85
?LastLine@nsLineBox@@SAPAV1@PAV1@@Z ; 85
?ResizeReflow@PresShell@@UAGIPAVnsIView@@HH@Z ; 85
?ContentChanged@PresShell@@UAGIPAVnsIDocument@@PAVnsIContent@@PAVnsISupports@@@Z ; 84
?IsOptionElement@nsListControlFrame@@IAEHPAVnsIContent@@@Z ; 84
?KeyDown@nsMenuBarListener@@UAEIPAVnsIDOMEvent@@@Z ; 84
?IsAccessKeyPressed@nsMenuBarListener@@IAEHPAVnsIDOMKeyEvent@@@Z ; 84
?ContentChanged@nsCSSFrameConstructor@@UAGIPAVnsIPresContext@@PAVnsIContent@@PAVnsISupports@@@Z ; 84
?CaretBlinkCallback@nsCaret@@SAXPAVnsITimer@@PAX@Z ; 84
?IsOptionElementFrame@nsSelectsAreaFrame@@IAEHPAVnsIFrame@@@Z ; 84
?GetScrollbarSizes@nsGfxScrollFrame@@UBGIPAVnsIPresContext@@PAH1@Z ; 83
?KeyUp@nsMenuBarListener@@UAEIPAVnsIDOMEvent@@@Z ; 83
?GetPrefSize@nsTreeScrollPortFrame@@UAGIAAVnsBoxLayoutState@@AAUnsSize@@@Z ; 83
?MouseDown@nsMenuBarListener@@UAEIPAVnsIDOMEvent@@@Z ; 83
?ParseCoords@Area@@QAEXABVnsString@@@Z ; 82
?GetType@nsComboboxControlFrame@@UBGIPAH@Z ; 82
??1Area@@UAE@XZ ; 82
??0Area@@QAE@PAVnsIContent@@HH@Z ; 82
?GetStateType@nsGfxRadioControlFrame@@UAGIPAVnsIPresContext@@PAW4StateType@nsIStatefulFrame@@@Z ; 82
?AddArea@nsImageMap@@IAEIPAVnsIContent@@@Z ; 82
?KeyPress@nsMenuBarListener@@UAEIPAVnsIDOMEvent@@@Z ; 81
?CalculateFixedContainingBlockSize@ViewportFrame@@IBEXPAVnsIPresContext@@ABUnsHTMLReflowState@@AAH2@Z ; 80
?ReflowFixedFrames@ViewportFrame@@IBEXPAVnsIPresContext@@ABUnsHTMLReflowState@@@Z ; 80
??_GRectArea@@UAEPAXI@Z ; 80
??0nsHTMLReflowState@@QAE@PAVnsIPresContext@@PAVnsIFrame@@W4nsReflowReason@@PAVnsIRenderingContext@@ABUnsSize@@@Z ; 80
?QueryInterface@nsAutoRepeatBoxFrame@@UAGIABUnsID@@PAPAX@Z ; 80
?UnicodeToNewBytes@nsIsIndexFrame@@AAEPADPBGIPAVnsIUnicodeEncoder@@@Z ; 80
?URLEncode@nsFormFrame@@IAEPAVnsString@@ABV2@PAVnsIUnicodeEncoder@@@Z ; 80
??1RectArea@@UAE@XZ ; 80
??0RectArea@@QAE@PAVnsIContent@@HH@Z ; 80
?GetScreenHeight@nsFormControlFrame@@SAIPAVnsIPresContext@@AAH@Z ; 78
?HandleEvent@nsSplitterFrame@@UAGIPAVnsIPresContext@@PAUnsGUIEvent@@PAW4nsEventStatus@@@Z ; 78
?GetScrolledFrame@nsScrollFrame@@UBGIPAVnsIPresContext@@AAPAVnsIFrame@@@Z ; 77
?ContentChanged@nsTextFrame@@UAGIPAVnsIPresContext@@PAVnsIContent@@PAVnsISupports@@@Z ; 77
?DidReflow@nsListControlFrame@@UAGIPAVnsIPresContext@@H@Z ; 77
?DidReflow@nsScrollFrame@@UAGIPAVnsIPresContext@@H@Z ; 77
?Reflow@nsListControlFrame@@UAGIPAVnsIPresContext@@AAUnsHTMLReflowMetrics@@ABUnsHTMLReflowState@@AAI@Z ; 77
?RemoveNewlines@nsGfxTextControlFrame2@@IAEXAAVnsString@@@Z ; 77
?SetPlaceholderFrameFor@FrameManager@@UAGIPAVnsIFrame@@0@Z ; 77
?SelectMenu@nsMenuFrame@@UAGIH@Z ; 77
?do_AssignFromReadable@?$basic_nsAWritableString@G@@MAEXABV?$basic_nsAReadableString@G@@@Z ; 77
?PushAbsoluteContainingBlock@nsFrameConstructorState@@QAEXPAVnsIFrame@@AAVnsFrameConstructorSaveState@@@Z ; 75
?Put@FrameHashTable@@QAEPAXPAX0@Z ; 75
?NS_NewPlaceholderFrame@@YAIPAVnsIPresShell@@PAPAVnsIFrame@@@Z ; 75
?GetMouseDownState@nsTextInputSelectionImpl@@UAGIPAH@Z ; 75
??_GnsPlaceholderFrame@@UAEPAXI@Z ; 75
?CreatePlaceholderFrameFor@nsCSSFrameConstructor@@IAEIPAVnsIPresShell@@PAVnsIPresContext@@PAVnsIFrameManager@@PAVnsIContent@@PAVnsIFrame@@PAVnsIStyleContext@@4PAPAV6@@Z ; 75
??0nsBoxLayoutState@@QAE@ABV0@@Z ; 75
?GetPrefSize@nsScrollBoxFrame@@UAGIAAVnsBoxLayoutState@@AAUnsSize@@@Z ; 75
?AddChild@nsAbsoluteItems@@QAEXPAVnsIFrame@@@Z ; 75
?SetPresShell@PresShellViewEventListener@@QAEIPAVnsIPresShell@@@Z ; 74
?PostReflowCallback@PresShell@@UAGIPAVnsIReflowCallback@@@Z ; 74
?WillBeDestroyed@nsObeliskLayout@@MAEXPAVnsIBox@@AAVnsBoxLayoutState@@AAVnsBoxSizeList@@@Z ; 74
?ReflowFinished@nsXULTreeOuterGroupFrame@@UAGIPAVnsIPresShell@@PAH@Z ; 74
??0nsBulletFrame@@QAE@XZ ; 74
?InvalidateComputedSizes@nsSprocketLayout@@MAEXPAVnsComputedBoxSize@@@Z ; 74
?Destroy@nsBulletFrame@@UAGIPAVnsIPresContext@@@Z ; 74
??1nsBulletFrame@@UAE@XZ ; 74
?IsInside@nsImageMap@@QAEHHH@Z ; 74
??_GnsBulletFrame@@UAEPAXI@Z ; 74
?Init@nsBulletFrame@@UAGIPAVnsIPresContext@@PAVnsIContent@@PAVnsIFrame@@PAVnsIStyleContext@@2@Z ; 74
?HandleDOMEventWithTarget@PresShell@@UAGIPAVnsIContent@@PAUnsEvent@@PAW4nsEventStatus@@@Z ; 74
?GetText@nsGfxTextControlFrame2@@UAGIPAVnsString@@H@Z ; 72
?NS_NewStackLayout@@YAIPAVnsIPresShell@@AAV?$nsCOMPtr@VnsIBoxLayout@@@@@Z ; 71
?GetProperty@nsGfxTextControlFrame2@@UAGIPAVnsIAtom@@AAV?$basic_nsAWritableString@G@@@Z ; 71
?AssignFromReadable@?$basic_nsAWritableString@G@@IAEXABV?$basic_nsAReadableString@G@@@Z ; 71
?GetType@SpacerFrame@@QAEEXZ ; 70
?Reflow@SpacerFrame@@UAGIPAVnsIPresContext@@AAUnsHTMLReflowMetrics@@ABUnsHTMLReflowState@@AAI@Z ; 70
?RenumberListsInBlock@nsBlockFrame@@IAEHPAVnsIPresContext@@PAV1@PAHH@Z ; 70
?WillUndo@nsTextInputListener@@UAGIPAVnsITransactionManager@@PAVnsITransaction@@PAH@Z ; 69
?EnumTree@nsDST@@ABEXPAVLeafNode@1@AAVnsDSTNodeFunctor@@@Z ; 69
?DidDo@nsTextInputListener@@UAGIPAVnsITransactionManager@@PAVnsITransaction@@I@Z ; 69
?HandlePress@nsFrame@@UAGIPAVnsIPresContext@@PAUnsGUIEvent@@PAW4nsEventStatus@@@Z ; 69
?GetPointFromOffset@nsFrame@@UAGIPAVnsIPresContext@@PAVnsIRenderingContext@@HPAUnsPoint@@@Z ; 69
?Enumerate@nsDST@@QBEIAAVnsDSTNodeFunctor@@@Z ; 69
??_GnsSupportsHashtable@@UAEPAXI@Z ; 69
?Reflow@HRuleFrame@@UAGIPAVnsIPresContext@@AAUnsHTMLReflowMetrics@@ABUnsHTMLReflowState@@AAI@Z ; 69
?SetChildFrameSize@nsComboboxControlFrame@@IAEXPAVnsIFrame@@HH@Z ; 68
?SetSuggestedSize@nsGfxButtonControlFrame@@UAGIHH@Z ; 68
?NeedsRecalc@nsXULTreeOuterGroupFrame@@UAGIXZ ; 67
?HandleRelease@nsFrame@@UAGIPAVnsIPresContext@@PAUnsGUIEvent@@PAW4nsEventStatus@@@Z ; 67
?DoNavQuirksReflow@nsGfxButtonControlFrame@@MAGIPAVnsIPresContext@@AAUnsHTMLReflowMetrics@@ABUnsHTMLReflowState@@AAI@Z ; 66
??0nsHTMLReflowMetrics@@QAE@ABU0@@Z ; 66
?GetTextSize@nsFormControlHelper@@SAHPAVnsIPresContext@@PAVnsIFormControlFrame@@ABVnsString@@AAUnsSize@@PAVnsIRenderingContext@@@Z ; 66
?GetName@nsFormControlFrame@@UAGIPAVnsString@@@Z ; 65
?CreateGeneratedFrameFor@nsCSSFrameConstructor@@IAEIPAVnsIPresContext@@PAVnsIDocument@@PAVnsIFrame@@PAVnsIContent@@PAVnsIStyleContext@@PBUnsStyleContent@@IPAPAV4@@Z ; 65
?Release@nsPresState@@UAGKXZ ; 65
?CheckStateToString@nsGfxCheckboxControlFrame@@IAEXW4CheckState@1@AAV?$basic_nsAWritableString@G@@@Z ; 64
??0NodeArena@nsDST@@QAE@I@Z ; 64
?PaintCheckBox@nsGfxCheckboxControlFrame@@MAEXPAVnsIPresContext@@AAVnsIRenderingContext@@ABUnsRect@@W4nsFramePaintLayer@@@Z ; 64
?GetCheckboxControlFrameState@nsGfxCheckboxControlFrame@@IAEXAAV?$basic_nsAWritableString@G@@@Z ; 64
??HnsMargin@@QBE?AU0@ABU0@@Z ; 64
?GetProperty@nsGfxCheckboxControlFrame@@UAGIPAVnsIAtom@@AAV?$basic_nsAWritableString@G@@@Z ; 64
?ScrollToFrame@nsListControlFrame@@IAEIPAVnsIContent@@@Z ; 64
?DisplaySelected@nsListControlFrame@@IAEXPAVnsIContent@@@Z ; 64
?NewMemoryArena@nsDST@@SAPAVNodeArena@1@I@Z ; 64
?GetScrollableView@nsListControlFrame@@IAEXAAPAVnsIScrollableView@@@Z ; 64
?Reflow@nsAbsoluteContainingBlock@@QAEIPAVnsIFrame@@PAVnsIPresContext@@ABUnsHTMLReflowState@@HHAAUnsRect@@@Z ; 64
?SetVisibility@nsHTMLFramesetBorderFrame@@QAEXH@Z ; 63
?LookUpSelection@nsTextInputSelectionImpl@@UAGIPAVnsIContent@@HHPAPAUSelectionDetails@@H@Z ; 63
?GetStateType@nsScrollFrame@@UAGIPAVnsIPresContext@@PAW4StateType@nsIStatefulFrame@@@Z ; 62
?SetInitialChildList@nsComboboxControlFrame@@UAGIPAVnsIPresContext@@PAVnsIAtom@@PAVnsIFrame@@@Z ; 62
??0nsStackFrame@@IAE@PAVnsIPresShell@@PAVnsIBoxLayout@@@Z ; 62
?MouseMove@nsListEventListener@@UAEIPAVnsIDOMEvent@@@Z ; 62
?CreateFrameFor@nsComboboxControlFrame@@UAGIPAVnsIPresContext@@PAVnsIContent@@PAPAVnsIFrame@@@Z ; 62
?GetLayoutFlags@nsMenuPopupFrame@@MAEXAAI@Z ; 62
?MouseMove@nsListControlFrame@@UAEIPAVnsIDOMEvent@@@Z ; 62
?GetDisabled@nsFormControlHelper@@SAIPAVnsIContent@@PAH@Z ; 60
?PositionDropdown@nsComboboxControlFrame@@QAEIPAVnsIPresContext@@HUnsRect@@1@Z ; 60
?AbsolutelyPositionDropDown@nsComboboxControlFrame@@UAGIXZ ; 60
?GetAbsoluteFramePosition@nsFormControlFrame@@SAIPAVnsIPresContext@@PAVnsIFrame@@AAUnsRect@@2@Z ; 60
?GetSelectedItem@nsListControlFrame@@UAGIAAVnsString@@@Z ; 60
?SyncViewWithFrame@nsListControlFrame@@UAGIPAVnsIPresContext@@@Z ; 60
?GetViewOffset@nsListControlFrame@@IAEXPAVnsIViewManager@@PAVnsIView@@AAUnsPoint@@@Z ; 60
?GetMaxSize@nsScrollBoxFrame@@UAGIAAVnsBoxLayoutState@@AAUnsSize@@@Z ; 60
?ReflowComboChildFrame@nsComboboxControlFrame@@IAEIPAVnsIFrame@@PAVnsIPresContext@@AAUnsHTMLReflowMetrics@@ABUnsHTMLReflowState@@AAIHH@Z ; 60
?GetContentAndOffsetsFromPoint@nsTextFrame@@UAGIPAVnsIPresContext@@ABUnsPoint@@PAPAVnsIContent@@AAH33@Z ; 59
?GetPosition@nsTextFrame@@UAGIPAVnsIPresContext@@ABUnsPoint@@PAPAVnsIContent@@AAH3@Z ; 59
?GetNextFrame@nsXULTreeGroupFrame@@QAEPAVnsIFrame@@PAV2@@Z ; 58
?BuildScrollFrame@nsCSSFrameConstructor@@IAEIPAVnsIPresShell@@PAVnsIPresContext@@AAVnsFrameConstructorState@@PAVnsIContent@@PAVnsIStyleContext@@PAVnsIFrame@@5AAPAV7@AAPAV6@5@Z ; 58
?RepaintSelection@PresShell@@UAGIF@Z ; 58
?HandleEvent@nsGfxRadioControlFrame@@UAGIPAVnsIPresContext@@PAUnsGUIEvent@@PAW4nsEventStatus@@@Z ; 58
?ConstructDocElementFrame@nsCSSFrameConstructor@@IAEIPAVnsIPresShell@@PAVnsIPresContext@@AAVnsFrameConstructorState@@PAVnsIContent@@PAVnsIFrame@@PAVnsIStyleContext@@AAPAV6@@Z ; 57
?InvalidateColumnWidths@nsTableFrame@@UAEXXZ ; 57
??0nsFloaterCache@@QAE@XZ ; 57
?AddOption@nsComboboxControlFrame@@UAGIPAVnsIPresContext@@H@Z ; 57
?CreatePopup@nsPopupSetBoxObject@@UAGIPAVnsIDOMElement@@0HHPBG11@Z ; 56
?DestroyPopup@nsPopupSetFrame@@UAGIXZ ; 56
?DestroyPopup@nsPopupSetBoxObject@@UAGIXZ ; 56
?EndLoad@PresShell@@UAGIPAVnsIDocument@@@Z ; 56
?Clear@UndisplayedMap@@QAEXXZ ; 56
?CreatePopup@nsPopupSetFrame@@UAGIPAVnsIContent@@0HHABVnsString@@11@Z ; 56
?SetListItemOrdinal@nsBulletFrame@@QAEHHPAH@Z ; 56
?ScrollSelectionIntoView@nsTextInputSelectionImpl@@UAGIFF@Z ; 56
?OnCreate@nsPopupSetFrame@@QAEHPAVnsIContent@@@Z ; 56
??0nsCaret@@QAE@XZ ; 55
?GetUserPreferences@nsPresContext@@IAEXXZ ; 55
??_GGalleyContext@@UAEPAXI@Z ; 55
?NS_NewLayoutDocumentLoaderFactory@@YAIPAPAVnsIDocumentLoaderFactory@@@Z ; 55
??_EFrameManager@@UAEPAXI@Z ; 55
?RevokePostedEvents@FrameManager@@AAEXXZ ; 55
??1nsPresContext@@MAE@XZ ; 55
?DestroyPropertyList@FrameManager@@AAEXPAVnsIPresContext@@@Z ; 55
?FreeDynamicStack@PresShell@@AAEXXZ ; 55
??0GalleyContext@@QAE@XZ ; 55
??1nsLayoutDLF@@UAE@XZ ; 55
?SetFormFrame@nsComboboxControlFrame@@UAEXPAVnsFormFrame@@@Z ; 55
??0FrameManager@@QAE@XZ ; 55
??_EPresShell@@MAEPAXI@Z ; 55
?UpdateCharSet@nsPresContext@@IAEXPBG@Z ; 55
?Init@nsCSSFrameConstructor@@UAGIPAVnsIDocument@@@Z ; 55
?Init@FrameManager@@UAGIPAVnsIPresShell@@PAVnsIStyleSet@@@Z ; 55
??_EnsLayoutDLF@@UAEPAXI@Z ; 55
??0nsCSSFrameConstructor@@QAE@XZ ; 55
??1GalleyContext@@UAE@XZ ; 55
?NS_NewPresShell@@YAIPAPAVnsIPresShell@@@Z ; 55
?NS_NewGalleyContext@@YAIPAPAVnsIPresContext@@@Z ; 55
?NS_CreateCSSFrameConstructor@@YAIPAPAVnsICSSFrameConstructor@@@Z ; 55
?EndObservingDocument@PresShell@@UAGIXZ ; 55
?CreateInstance@nsLayoutDLF@@UAGIPBDPAVnsIChannel@@PAVnsILoadGroup@@0PAVnsISupports@@3PAPAVnsIStreamListener@@PAPAVnsIContentViewer@@@Z ; 55
??_EnsCaret@@UAEPAXI@Z ; 55
??1FrameManager@@UAE@XZ ; 55
??1nsCaret@@UAE@XZ ; 55
?Init@PresShell@@UAGIPAVnsIDocument@@PAVnsIPresContext@@PAVnsIViewManager@@PAVnsIStyleSet@@@Z ; 55
?Init@nsPresContext@@UAGIPAVnsIDeviceContext@@@Z ; 55
?NS_NewFrameManager@@YAIPAPAVnsIFrameManager@@@Z ; 55
?NS_NewCaret@@YAIPAPAVnsICaret@@@Z ; 55
??0nsLayoutDLF@@QAE@XZ ; 55
?QueryInterface@FrameManager@@UAGIABUnsID@@PAPAX@Z ; 55
??0FrameArena@@QAE@I@Z ; 55
??0nsPresContext@@IAE@XZ ; 55
??0PresShell@@QAE@XZ ; 55
?Init@nsCaret@@UAGIPAVnsIPresShell@@@Z ; 55
?SetPreferenceStyleRules@PresShell@@UAGIH@Z ; 55
??1PresShell@@MAE@XZ ; 55
?InitialReflow@PresShell@@UAGIHH@Z ; 54
??_GnsCSSFrameConstructor@@UAEPAXI@Z ; 54
??1nsCSSFrameConstructor@@UAE@XZ ; 54
?ConstructRootFrame@nsCSSFrameConstructor@@UAGIPAVnsIPresShell@@PAVnsIPresContext@@PAVnsIContent@@AAPAVnsIFrame@@@Z ; 54
?Destroy@ViewportFrame@@UAGIPAVnsIPresContext@@@Z ; 54
?SetCompatibilityMode@nsPresContext@@UAGIW4nsCompatibility@@@Z ; 54
?NS_NewViewportFrame@@YAIPAVnsIPresShell@@PAPAVnsIFrame@@@Z ; 54
?SetInitialChildList@ViewportFrame@@UAGIPAVnsIPresContext@@PAVnsIAtom@@PAVnsIFrame@@@Z ; 54
?GetScrollableView@nsMenuPopupFrame@@QAEPAVnsIScrollableView@@PAVnsIFrame@@@Z ; 54
??_GViewportFrame@@UAEPAXI@Z ; 54
?SetRootFrame@FrameManager@@UAGIPAVnsIFrame@@@Z ; 54
?Paint@nsObjectFrame@@UAGIPAVnsIPresContext@@AAVnsIRenderingContext@@ABUnsRect@@W4nsFramePaintLayer@@@Z ; 54
?GetSelectedIndex@nsDeckFrame@@MAEHXZ ; 54
??1UndisplayedMap@@QAE@XZ ; 53
??0UndisplayedMap@@QAE@I@Z ; 53
?ReparentFrameView@nsHTMLContainerFrame@@SAIPAVnsIPresContext@@PAVnsIFrame@@11@Z ; 52
?RemoveFirstChild@nsFrameList@@QAEHXZ ; 52
?do_GetService@@YA?BVnsGetServiceByCID@@ABUnsID@@PAI@Z ; 51
?GetSelectedBox@nsDeckFrame@@MAEPAVnsIBox@@XZ ; 51
?Paint@nsDeckFrame@@UAGIPAVnsIPresContext@@AAVnsIRenderingContext@@ABUnsRect@@W4nsFramePaintLayer@@@Z ; 51
?NS_NewLayoutHistoryState@@YAIPAPAVnsILayoutHistoryState@@@Z ; 51
?GetDisplaySelection@nsTextInputSelectionImpl@@UAGIPAF@Z ; 51
?GetActiveChild@nsPopupSetFrame@@QAEPAVnsIFrame@@XZ ; 51
??0nsLayoutHistoryState@@QAE@XZ ; 51
?GetBoxAt@nsContainerBox@@UAEPAVnsIBox@@H@Z ; 51
?SetFormFrame@nsFormControlFrame@@UAEXPAVnsFormFrame@@@Z ; 51
?DoLayout@nsPopupSetFrame@@UAGIAAVnsBoxLayoutState@@@Z ; 51
??_GnsLayoutHistoryState@@UAEPAXI@Z ; 50
?WillMerge@nsTextInputListener@@UAGIPAVnsITransactionManager@@PAVnsITransaction@@1PAH@Z ; 50
??1nsLayoutHistoryState@@UAE@XZ ; 50
?GetFont@nsGfxTextControlFrame2@@UAGIPAVnsIPresContext@@AAPBUnsFont@@@Z ; 50
?SetCaretReadOnly@nsCaret@@UAGIH@Z ; 50
?ReconstructDocElementHierarchy@nsCSSFrameConstructor@@UAGIPAVnsIPresContext@@@Z ; 49
?NS_NewGfxTextControlFrame@@YAIPAVnsIPresShell@@PAPAVnsIFrame@@@Z ; 49
??_GnsTextInputSelectionImpl@@UAEPAXI@Z ; 49
?SetScrollableView@nsTextInputSelectionImpl@@UAGIPAVnsIScrollableView@@@Z ; 49
??1nsTextInputSelectionImpl@@UAE@XZ ; 49
??1nsGfxTextControlFrame2@@UAE@XZ ; 49
??0nsTextInputListener@@QAE@XZ ; 49
?AC_Decrease@@YAXHPAPAUnsColInfo@@HAAHM@Z ; 49
?MakeSureSomethingIsSelected@nsComboboxControlFrame@@MAGIPAVnsIPresContext@@@Z ; 49
?Destroy@nsGfxTextControlFrame2@@UAGIPAVnsIPresContext@@@Z ; 49
??0nsGfxTextControlFrame2@@QAE@PAVnsIPresShell@@@Z ; 49
?CreateFrameFor@nsGfxTextControlFrame2@@MAGIPAVnsIPresContext@@PAVnsIContent@@PAPAVnsIFrame@@@Z ; 49
?CreateAnonymousContent@nsGfxTextControlFrame2@@UAGIPAVnsIPresContext@@AAVnsISupportsArray@@@Z ; 49
?ReconstructFrames@PresShell@@IAEIXZ ; 49
?SetCaretReadOnly@nsTextInputSelectionImpl@@UAGIH@Z ; 49
?GetMaxLength@nsFormControlFrame@@UAGIPAH@Z ; 49
?GetSelectedIndex@nsListControlFrame@@UAGIPAH@Z ; 49
??_GnsTextInputListener@@UAEPAXI@Z ; 49
??_GnsGfxTextControlFrame2@@UAEPAXI@Z ; 49
?ConstructTextControlFrame@nsCSSFrameConstructor@@IAEIPAVnsIPresShell@@PAVnsIPresContext@@AAPAVnsIFrame@@PAVnsIContent@@@Z ; 49
??0nsTextInputSelectionImpl@@QAE@PAVnsIFrameSelection@@PAVnsIPresShell@@PAVnsIContent@@@Z ; 49
?SetInitialChildList@nsGfxTextControlFrame2@@UAGIPAVnsIPresContext@@PAVnsIAtom@@PAVnsIFrame@@@Z ; 49
?IsPasswordTextControl@nsGfxTextControlFrame2@@MBEHXZ ; 49
?GetCanvasFrame@FrameManager@@UBGIPAVnsIPresContext@@PAPAVnsIFrame@@@Z ; 49
??1nsTextInputListener@@UAE@XZ ; 49
?BeginLoad@PresShell@@UAGIPAVnsIDocument@@@Z ; 48
?SetProperty@nsListControlFrame@@UAGIPAVnsIPresContext@@PAVnsIAtom@@ABV?$basic_nsAReadableString@G@@@Z ; 48
??_EnsFormFrame@@UAEPAXI@Z ; 48
?CreateDocument@nsLayoutDLF@@QAEIPBDPAVnsIChannel@@PAVnsILoadGroup@@PAVnsISupports@@ABUnsID@@PAPAVnsIStreamListener@@PAPAVnsIContentViewer@@@Z ; 48
?Insert@nsContainerBox@@UAEXAAVnsBoxLayoutState@@PAVnsIFrame@@1@Z ; 48
?NS_NewFormFrame@@YAIPAVnsIPresShell@@PAPAVnsIFrame@@I@Z ; 48
?ToggleSelected@nsListControlFrame@@IAEXH@Z ; 48
?InsertFrames@nsBoxFrame@@UAGIPAVnsIPresContext@@AAVnsIPresShell@@PAVnsIAtom@@PAVnsIFrame@@3@Z ; 48
??1nsFormFrame@@UAE@XZ ; 48
?RemoveRadioGroups@nsFormFrame@@IAEXXZ ; 48
?ChildrenInserted@nsBoxLayout@@UAGIPAVnsIBox@@AAVnsBoxLayoutState@@00@Z ; 48
??0nsFormFrame@@QAE@XZ ; 48
?CalculateSizeNavQuirks@nsGfxTextControlFrame2@@IAEHPAVnsIPresContext@@PAVnsIRenderingContext@@PAVnsIFormControlFrame@@AAUnsInputDimensionSpec@@AAUnsSize@@4AAHAAUnsMargin@@6H@Z ; 47
?GetDesiredSize@nsFormControlFrame@@MAEXPAVnsIPresContext@@ABUnsHTMLReflowState@@AAUnsHTMLReflowMetrics@@@Z ; 47
?Reflow@nsFormControlFrame@@UAGIPAVnsIPresContext@@AAUnsHTMLReflowMetrics@@ABUnsHTMLReflowState@@AAI@Z ; 47
?GetDesiredSize@nsFormControlFrame@@MAEXPAVnsIPresContext@@ABUnsHTMLReflowState@@AAUnsHTMLReflowMetrics@@AAUnsSize@@@Z ; 47
?ReflowNavQuirks@nsGfxTextControlFrame2@@MAGIPAVnsIPresContext@@AAUnsSize@@ABUnsHTMLReflowState@@AAIAAUnsMargin@@4@Z ; 47
?Reflow@nsLeafFrame@@UAGIPAVnsIPresContext@@AAUnsHTMLReflowMetrics@@ABUnsHTMLReflowState@@AAI@Z ; 47
?NS_NewCanvasFrame@@YAIPAVnsIPresShell@@PAPAVnsIFrame@@@Z ; 47
?StyleSheetAdded@PresShell@@UAGIPAVnsIDocument@@PAVnsIStyleSheet@@@Z ; 47
?MouseMove@nsSplitterFrameInner@@UAEIPAVnsIDOMEvent@@@Z ; 46
?ShouldJustifyLine@nsBlockFrame@@IAEHAAVnsBlockReflowState@@PAVnsLineBox@@@Z ; 46
?SetPrefLinkRules@PresShell@@IAEIXZ ; 45
?GetDefaultLinkColor@nsPresContext@@UAGIPAI@Z ; 45
?SetPrefColorRules@PresShell@@IAEIXZ ; 45
?SetStatePropertyAsSupports@nsPresState@@UAGIABV?$basic_nsAReadableString@G@@PAVnsISupports@@@Z ; 45
?GetImageGroup@nsPresContext@@UAGIPAPAVnsIImageGroup@@@Z ; 45
?GetDefaultVisitedLinkColor@nsPresContext@@UAGIPAI@Z ; 45
?CreatePreferenceStyleSheet@PresShell@@IAEIXZ ; 45
??0nsGetInterface@@QAE@PAVnsISupports@@PAI@Z ; 45
?GetInputElementValue@nsFormControlHelper@@SAIPAVnsIContent@@PAVnsString@@H@Z ; 45
?GetDefaultChecked@nsGfxRadioControlFrame@@UAEHXZ ; 44
?IsReset@nsGfxButtonControlFrame@@MAEHH@Z ; 43
?NS_NewSelectsAreaFrame@@YAIPAVnsIPresShell@@PAPAVnsIFrame@@I@Z ; 42
?Destroy@nsListControlFrame@@UAGIPAVnsIPresContext@@@Z ; 42
?GetScrollingParentView@nsListControlFrame@@MAEIPAVnsIPresContext@@PAVnsIFrame@@PAPAVnsIView@@@Z ; 42
??1nsListControlFrame@@MAE@XZ ; 42
?SetInitialChildList@nsListControlFrame@@UAGIPAVnsIPresContext@@PAVnsIAtom@@PAVnsIFrame@@@Z ; 42
??0nsListControlFrame@@IAE@XZ ; 42
??0nsListEventListener@@IAE@XZ ; 42
??_EnsListControlFrame@@MAEPAXI@Z ; 42
?InitializeSelectFrame@nsCSSFrameConstructor@@IAEIPAVnsIPresShell@@PAVnsIPresContext@@AAVnsFrameConstructorState@@PAVnsIFrame@@3PAVnsIContent@@3PAVnsIStyleContext@@HHH@Z ; 42
?ConstructSelectFrame@nsCSSFrameConstructor@@IAEIPAVnsIPresShell@@PAVnsIPresContext@@AAVnsFrameConstructorState@@PAVnsIContent@@PAVnsIFrame@@PAVnsIAtom@@PAVnsIStyleContext@@AAPAV6@AAHH8HAAUnsFrameItems@@@Z ; 42
?GetParentContent@nsHTMLFrameInnerFrame@@UAGIAAPAVnsIContent@@@Z ; 42
?SetFrame@nsListEventListener@@UAGIPAVnsListControlFrame@@@Z ; 42
??_GnsListEventListener@@UAEPAXI@Z ; 42
?CreateScrollingViewWidget@nsListControlFrame@@MAEIPAVnsIView@@PBUnsStylePosition@@@Z ; 42
?Init@nsListControlFrame@@UAGIPAVnsIPresContext@@PAVnsIContent@@PAVnsIFrame@@PAVnsIStyleContext@@2@Z ; 42
?SetReference@?$nsCWeakReference@VnsListControlFrame@@@@QAEXPAVnsCWeakReferent@@@Z ; 42
?NS_NewListControlFrame@@YAIPAVnsIPresShell@@PAPAVnsIFrame@@@Z ; 42
?SetInitialChildList@nsScrollFrame@@UAGIPAVnsIPresContext@@PAVnsIAtom@@PAVnsIFrame@@@Z ; 42
??1nsListEventListener@@UAE@XZ ; 42
?CreateScrollingView@nsScrollFrame@@AAEIPAVnsIPresContext@@@Z ; 42
??0nsScrollFrame@@IAE@XZ ; 42
?NS_NewListEventListener@@YAIPAPAVnsIListEventListener@@@Z ; 42
?GetScrolling@nsHTMLFrameInnerFrame@@QAEHPAVnsIContent@@H@Z ; 42
?Init@nsScrollFrame@@UAGIPAVnsIPresContext@@PAVnsIContent@@PAVnsIFrame@@PAVnsIStyleContext@@2@Z ; 42
?MenuIsOpen@nsMenuFrame@@UAGIAAH@Z ; 41
?CheckIfAllFramesHere@nsListControlFrame@@IAEHXZ ; 41
?GetDefaultLabel@nsGfxButtonControlFrame@@MAGIAAVnsString@@@Z ; 41
?Deselect@nsListControlFrame@@IAEIXZ ; 41
?SaveStateInternal@nsListControlFrame@@UAGIPAVnsIPresContext@@PAPAVnsIPresState@@@Z ; 41
?IsBrowse@nsGfxButtonControlFrame@@MAEHH@Z ; 41
?IsSubmit@nsGfxButtonControlFrame@@MAEHH@Z ; 41
?Reset@nsListControlFrame@@UAEXPAVnsIPresContext@@@Z ; 41
?RemoveDummyLayoutRequest@PresShell@@IAEIXZ ; 41
?SaveState@nsListControlFrame@@UAGIPAVnsIPresContext@@PAPAVnsIPresState@@@Z ; 41
?ClearPlaceholderFrameMap@FrameManager@@UAGIXZ ; 40
?ClearUndisplayedContentMap@FrameManager@@UAGIXZ ; 40
?SaveState@nsGfxTextControlFrame2@@MAGIPAVnsIPresContext@@PAPAVnsIPresState@@@Z ; 40
?ClearPrimaryFrameMap@FrameManager@@UAGIXZ ; 40
?NS_NewSpacerFrame@@YAIPAVnsIPresShell@@PAPAVnsIFrame@@@Z ; 39
?ConvertTransformedTextToUnicode@nsTextTransformer@@IAEXXZ ; 39
??1DummyLayoutRequest@@MAE@XZ ; 39
?GetRadioInfo@nsFormFrame@@QAEIPAVnsIFormControlFrame@@AAVnsString@@AAPAVnsRadioControlGroup@@@Z ; 39
??0DummyLayoutRequest@@IAE@PAVnsIPresShell@@@Z ; 39
?GetFirstFrame@nsXULTreeGroupFrame@@QAEPAVnsIFrame@@XZ ; 39
?SetLoadGroup@DummyLayoutRequest@@UAGIPAVnsILoadGroup@@@Z ; 39
?Create@DummyLayoutRequest@@SAIPAPAVnsIChannel@@PAVnsIPresShell@@@Z ; 39
??_EDummyLayoutRequest@@MAEPAXI@Z ; 39
??_ESpacerFrame@@MAEPAXI@Z ; 39
??0SpacerFrame@@IAE@XZ ; 39
?AdjustSiblingsAfterReflow@nsTableRowGroupFrame@@IAEIPAVnsIPresContext@@AAURowGroupReflowState@@PAVnsIFrame@@PAUnsSize@@H@Z ; 39
??1SpacerFrame@@MAE@XZ ; 39
?AddDummyLayoutRequest@PresShell@@IAEIXZ ; 39
?QueryInterface@nsMenuBarFrame@@UAGIABUnsID@@PAPAX@Z ; 39
?Reflow@nsLeafBoxFrame@@UAGIPAVnsIPresContext@@AAUnsHTMLReflowMetrics@@ABUnsHTMLReflowState@@AAI@Z ; 38
?InsertAfter@nsContainerBox@@UAEXAAVnsBoxLayoutState@@PAVnsIBox@@PAVnsIFrame@@@Z ; 38
?GetOriginalURI@DummyLayoutRequest@@UAGIPAPAVnsIURI@@@Z ; 38
?IsDroppedDown@nsComboboxControlFrame@@UAGIPAH@Z ; 38
??0PresShellViewEventListener@@QAE@XZ ; 37
?Reflow@nsImageControlFrame@@UAGIPAVnsIPresContext@@AAUnsHTMLReflowMetrics@@ABUnsHTMLReflowState@@AAI@Z ; 37
??_GPresShellViewEventListener@@UAEPAXI@Z ; 37
??1PresShellViewEventListener@@UAE@XZ ; 37
??0StackArena@@QAE@XZ ; 36
?FreeAreas@nsImageMap@@IAEXXZ ; 36
??1StackArena@@QAE@XZ ; 36
?GetMenuChildrenElement@nsMenuFrame@@IAEXPAPAVnsIContent@@@Z ; 35
?DestroyRows@nsXULTreeGroupFrame@@QAEXAAH@Z ; 35
?ForceDrawFrame@nsFormControlHelper@@SAXPAVnsIPresContext@@PAVnsIFrame@@@Z ; 35
??0nsFormControlFrame@@QAE@XZ ; 35
?GetPrevSiblingFor@nsFrameList@@QBEPAVnsIFrame@@PAV2@@Z ; 35
?Destroy@nsFormControlFrame@@UAGIPAVnsIPresContext@@@Z ; 35
??1nsFormControlFrame@@MAE@XZ ; 35
?InitializeControl@nsFormControlFrame@@UAEXPAVnsIPresContext@@@Z ; 35
?GetName@nsGfxTextControlFrame2@@UAGIPAVnsString@@@Z ; 34
?ReflowCombobox@nsComboboxControlFrame@@IAEXPAVnsIPresContext@@ABUnsHTMLReflowState@@AAUnsHTMLReflowMetrics@@AAIPAVnsIFrame@@4AAHHABUnsMargin@@HH@Z ; 34
?NotifySelectionChanged@nsTextInputListener@@UAGIPAVnsIDOMDocument@@PAVnsISelection@@F@Z ; 33
?GetName@nsRadioControlGroup@@QBEXAAVnsString@@@Z ; 33
?GetName@nsListControlFrame@@UAGIPAVnsString@@@Z ; 33
?GetEventTargetFrame@PresShell@@UAGIPAPAVnsIFrame@@@Z ; 32
?GetAddedButtonBorderAndPadding@nsButtonFrameRenderer@@UAE?AUnsMargin@@XZ ; 32
?Reflow@nsHTMLButtonControlFrame@@UAGIPAVnsIPresContext@@AAUnsHTMLReflowMetrics@@ABUnsHTMLReflowState@@AAI@Z ; 32
?GetButtonInnerFocusBorderAndPadding@nsButtonFrameRenderer@@UAE?AUnsMargin@@XZ ; 32
?AddBorderPaddingToMaxElementSize@nsHTMLReflowMetrics@@QAEXABUnsMargin@@@Z ; 32
?AddComputedBorderPaddingToDesiredSize@nsGfxButtonControlFrame@@MAGIAAUnsHTMLReflowMetrics@@ABUnsHTMLReflowState@@@Z ; 32
?CalculateChildBounds@nsAbsoluteContainingBlock@@IAEXPAVnsIPresContext@@AAUnsRect@@@Z ; 32
?SetDropDown@nsComboboxControlFrame@@UAGIPAVnsIFrame@@@Z ; 31
??1nsComboboxControlFrame@@UAE@XZ ; 31
??_GnsComboboxControlFrame@@UAEPAXI@Z ; 31
?CreateAnonymousContent@nsComboboxControlFrame@@UAGIPAVnsIPresContext@@AAVnsISupportsArray@@@Z ; 31
??0nsComboboxControlFrame@@QAE@XZ ; 31
?Destroy@nsComboboxControlFrame@@UAGIPAVnsIPresContext@@@Z ; 31
??0HRuleFrame@@QAE@XZ ; 31
?NS_NewHRFrame@@YAIPAVnsIPresShell@@PAPAVnsIFrame@@@Z ; 31
?NS_NewComboboxControlFrame@@YAIPAVnsIPresShell@@PAPAVnsIFrame@@I@Z ; 31
?SetFrameConstructor@nsComboboxControlFrame@@UAGIPAVnsCSSFrameConstructor@@@Z ; 31
?SetComboboxFrame@nsListControlFrame@@UAGIPAVnsIFrame@@@Z ; 31
?Init@nsComboboxControlFrame@@UAGIPAVnsIPresContext@@PAVnsIContent@@PAVnsIFrame@@PAVnsIStyleContext@@2@Z ; 31
??_GHRuleFrame@@UAEPAXI@Z ; 31
?InitTextStr@nsComboboxControlFrame@@IAEXPAVnsIPresContext@@H@Z ; 31
?ComputeJustificationWeights@nsLineLayout@@IAEXPAUPerSpanData@1@PAH1@Z ; 30
?SaveState@nsComboboxControlFrame@@UAGIPAVnsIPresContext@@PAPAVnsIPresState@@@Z ; 30
?GetType@nsImageControlFrame@@UBGIPAH@Z ; 30
?HandleRelease@nsSliderFrame@@UAGIPAVnsIPresContext@@PAUnsGUIEvent@@PAW4nsEventStatus@@@Z ; 30
?CreateDisplayFrame@nsComboboxControlFrame@@MAGIPAVnsIPresContext@@@Z ; 30
?GetAdditionalStyleContext@nsHTMLButtonControlFrame@@UBGIHPAPAVnsIStyleContext@@@Z ; 30
?GetStyleContext@nsButtonFrameRenderer@@UBEIHPAPAVnsIStyleContext@@@Z ; 30
?GetReadableFragment@?$nsPromiseSubstring@G@@MBEPBGAAU?$nsReadableFragment@G@@W4nsFragmentRequest@@I@Z ; 30
?ApplyFrameJustification@nsLineLayout@@IAEHPAUPerSpanData@1@PAUFrameJustificationState@1@@Z ; 30
?SelectionChanged@nsComboboxControlFrame@@UAGIXZ ; 29
?QueryInterface@nsTreeBoxObject@@UAGIABUnsID@@PAPAX@Z ; 29
??0nsPresState@@QAE@XZ ; 29
?UpdateSelection@nsListControlFrame@@UAGIHHPAVnsIContent@@@Z ; 29
?UpdateSelection@nsComboboxControlFrame@@UAGIHHH@Z ; 29
?HandleEvent@nsListControlFrame@@UAGIPAVnsIPresContext@@PAUnsGUIEvent@@PAW4nsEventStatus@@@Z ; 29
?AppendTo@nsTextFragment@@QBEXAAVnsString@@@Z ; 29
?NS_NewPresState@@YAIPAPAVnsIPresState@@@Z ; 29
?AddState@nsLayoutHistoryState@@UAGIIPAVnsIPresState@@W4StateType@nsIStatefulFrame@@@Z ; 28
?Clone@nsVoidKey@@UBEPAVnsHashKey@@XZ ; 28
?PaintCheckMark@nsFormControlHelper@@SAXAAVnsIRenderingContext@@MABUnsRect@@@Z ; 27
?GetSubShellFor@PresShell@@UBGIPAVnsIContent@@PAPAVnsISupports@@@Z ; 27
??_GnsPresState@@UAEPAXI@Z ; 27
?GetDocShell@nsBrowserBoxObject@@UAGIPAPAVnsIDocShell@@@Z ; 27
??1nsPresState@@UAE@XZ ; 27
?SetSelected@nsFrame@@UAGIPAVnsIPresContext@@PAVnsIDOMRange@@HW4nsSpread@@@Z ; 26
??_EnsVoidKey@@UAEPAXI@Z ; 26
?QueryInterface@nsIFrameBoxObject@@UAGIABUnsID@@PAPAX@Z ; 26
?IndexOfItem@nsXULTreeOuterGroupFrame@@UAGIPAVnsIContent@@0HHPAH@Z ; 26
?CreateAnonymousContent@nsSplitterFrame@@UAGIPAVnsIPresContext@@AAVnsISupportsArray@@@Z ; 25
?GetInitialOrientation@nsSplitterFrame@@UAEHAAH@Z ; 25
??_GnsSplitterFrameInner@@UAEPAXI@Z ; 25
?AddListener@nsSplitterFrameInner@@QAEXPAVnsIPresContext@@@Z ; 25
?GetState@nsSplitterFrameInner@@QAE?AW4State@1@XZ ; 25
?Init@nsSplitterFrame@@UAGIPAVnsIPresContext@@PAVnsIContent@@PAVnsIFrame@@PAVnsIStyleContext@@2@Z ; 25
?NS_NewSplitterFrame@@YAIPAVnsIPresShell@@PAPAVnsIFrame@@@Z ; 25
??_EnsSplitterFrame@@UAEPAXI@Z ; 25
??1nsSplitterFrame@@UAE@XZ ; 25
?KeyPress@nsTextInputListener@@UAEIPAVnsIDOMEvent@@@Z ; 25
?MarkAsGenerated@nsMenuFrame@@UAGIXZ ; 25
?RemoveListener@nsSplitterFrameInner@@QAEXXZ ; 25
?EditAction@nsTextInputListener@@UAGIXZ ; 25
??1nsSplitterFrameInner@@UAE@XZ ; 25
?InternalContentChanged@nsGfxTextControlFrame2@@UAGIXZ ; 25
?UpdateState@nsSplitterFrameInner@@QAEXXZ ; 25
?SaveState@nsScrollBoxFrame@@MAGIPAVnsIPresContext@@PAPAVnsIPresState@@@Z ; 25
??0nsSplitterFrame@@QAE@PAVnsIPresShell@@@Z ; 25
??0nsSplitterFrameInner@@QAE@PAVnsSplitterFrame@@@Z ; 25
?GrowBy@nsAutoTextBuffer@@QAEIHH@Z ; 24
?HandleEvent@nsComboboxControlFrame@@UAGIPAVnsIPresContext@@PAUnsGUIEvent@@PAW4nsEventStatus@@@Z ; 23
?Release@nsFrameIterator@@UAGKXZ ; 23
?FindFrameAt@nsLineIterator@@UAGIHHPAPAVnsIFrame@@PAH1@Z ; 23
?NS_NewFrameTraversal@@YAIPAPAVnsIBidirectionalEnumerator@@W4nsTraversalType@@PAVnsIPresContext@@PAVnsIFrame@@@Z ; 23
?GetWindow@nsPluginInstanceOwner@@UAGIAAPAUnsPluginWindow@@@Z ; 23
??0nsLeafIterator@@QAE@PAVnsIPresContext@@PAVnsIFrame@@@Z ; 23
?Mid@?$basic_nsAReadableString@G@@QBEIAAV?$basic_nsAWritableString@G@@II@Z ; 23
??0nsFrameIterator@@QAE@XZ ; 23
?GetLastLeaf@nsFrame@@KAXPAVnsIPresContext@@PAPAVnsIFrame@@@Z ; 23
?AddRadio@nsRadioControlGroup@@QAEHPAVnsGfxRadioControlFrame@@@Z ; 22
?SetRadioButtonFaceStyleContext@nsGfxRadioControlFrame@@UAGIPAVnsIStyleContext@@@Z ; 22
??_EnsGfxRadioControlFrame@@UAEPAXI@Z ; 22
?GetInstance@nsPluginInstanceOwner@@UAGIAAPAVnsIPluginInstance@@@Z ; 22
?ConstructRadioControlFrame@nsCSSFrameConstructor@@IAEIPAVnsIPresShell@@PAVnsIPresContext@@AAPAVnsIFrame@@PAVnsIContent@@PAVnsIStyleContext@@@Z ; 22
?QueryInterface@nsLayoutFactory@@UAGIABUnsID@@PAPAX@Z ; 22
?QueryInterface@nsPluginInstanceOwner@@UAGIABUnsID@@PAPAX@Z ; 22
?InitializeControl@nsGfxRadioControlFrame@@UAEXPAVnsIPresContext@@@Z ; 22
??1nsGfxRadioControlFrame@@UAE@XZ ; 22
?NS_NewGfxRadioControlFrame@@YAIPAVnsIPresShell@@PAPAVnsIFrame@@@Z ; 22
?SaveState@nsGfxRadioControlFrame@@UAGIPAVnsIPresContext@@PAPAVnsIPresState@@@Z ; 22
??0nsGfxRadioControlFrame@@QAE@XZ ; 22
?DoDefaultSelection@nsFormFrame@@IAEXPAVnsIPresContext@@PAVnsRadioControlGroup@@PAVnsGfxRadioControlFrame@@@Z ; 22
?SetRadioState@nsGfxRadioControlFrame@@MAEXPAVnsIPresContext@@H@Z ; 22
?GetNamesValues@nsListControlFrame@@UAEHHAAHPAVnsString@@1@Z ; 22
?IsRestored@nsGfxRadioControlFrame@@UAEHXZ ; 22
?Init@nsHTMLFrameOuterFrame@@UAGIPAVnsIPresContext@@PAVnsIContent@@PAVnsIFrame@@PAVnsIStyleContext@@2@Z ; 21
?GetMarginHeight@nsHTMLFrameInnerFrame@@QAEHPAVnsIPresContext@@PAVnsIContent@@@Z ; 21
?GetURL@nsHTMLFrameInnerFrame@@QAEHPAVnsIContent@@AAVnsString@@@Z ; 21
??0nsHTMLFrameOuterFrame@@QAE@XZ ; 21
??_GnsHTMLFrameOuterFrame@@MAEPAXI@Z ; 21
?GetCursor@nsSplitterFrame@@UAGIPAVnsIPresContext@@AAUnsPoint@@AAH@Z ; 21
??_EnsHTMLFrameInnerFrame@@MAEPAXI@Z ; 21
?DoLoadURL@nsHTMLFrameInnerFrame@@IAEIPAVnsIPresContext@@@Z ; 21
??1nsHTMLFrameOuterFrame@@MAE@XZ ; 21
??0nsHTMLFrameInnerFrame@@QAE@XZ ; 21
?GetName@nsHTMLFrameInnerFrame@@QAEHPAVnsIContent@@AAVnsString@@@Z ; 21
?GetMarginWidth@nsHTMLFrameInnerFrame@@QAEHPAVnsIPresContext@@PAVnsIContent@@@Z ; 21
?SetSubShellFor@PresShell@@UAGIPAVnsIContent@@PAVnsISupports@@@Z ; 21
??1nsHTMLFrameInnerFrame@@MAE@XZ ; 21
?CreateDocShell@nsHTMLFrameInnerFrame@@IAEIPAVnsIPresContext@@ABUnsSize@@@Z ; 21
?SetParent@nsMenuFrame@@UAGIPBVnsIFrame@@@Z ; 21
?MouseDrag@nsSplitterFrameInner@@QAEXPAVnsIPresContext@@PAUnsGUIEvent@@@Z ; 21
?NS_NewHTMLFrameOuterFrame@@YAIPAVnsIPresShell@@PAPAVnsIFrame@@@Z ; 21
?ActivateMenu@nsMenuFrame@@UAGIH@Z ; 20
?NS_NewTempleLayout@@YAIPAVnsIPresShell@@AAV?$nsCOMPtr@VnsIBoxLayout@@@@@Z ; 20
?Release@nsMenuDismissalListener@@UAGKXZ ; 20
?MouseOut@nsSplitterFrameInner@@UAEIPAVnsIDOMEvent@@@Z ; 20
?GetCollapseDirection@nsSplitterFrameInner@@QAE?AW4CollapseDirection@1@XZ ; 20
?Cut@?$basic_nsAWritableString@G@@UAEXII@Z ; 19
?GetNextPrevLineFromeBlockFrame@nsFrame@@SAIPAVnsIPresContext@@PAUnsPeekOffsetStruct@@PAVnsIFrame@@HC@Z ; 19
?RemoveListener@nsBoxSizeListImpl@@UAEXXZ ; 19
?RemoveRadioControlFrame@nsFormFrame@@QAEXPAVnsIFormControlFrame@@@Z ; 19
??_EnsPopupSetFrame@@UAEPAXI@Z ; 18
?Destroy@nsPopupSetFrame@@UAGIPAVnsIPresContext@@@Z ; 18
?Init@nsPopupSetFrame@@UAGIPAVnsIPresContext@@PAVnsIContent@@PAVnsIFrame@@PAVnsIStyleContext@@2@Z ; 18
?EnsureMenuItemIsVisible@nsMenuPopupFrame@@QAEXPAVnsIMenuFrame@@@Z ; 18
??0nsPopupSetFrame@@QAE@PAVnsIPresShell@@@Z ; 18
??0nsImageMap@@QAE@XZ ; 18
?First@?$basic_nsAReadableString@G@@QBEGXZ ; 18
?Destroy@nsImageMap@@QAEXXZ ; 18
??_EnsImageMap@@MAEPAXI@Z ; 18
??1nsImageMap@@MAE@XZ ; 18
?SetFormFrame@nsListControlFrame@@UAEXPAVnsFormFrame@@@Z ; 18
?Init@nsImageMap@@QAEIPAVnsIPresShell@@PAVnsIFrame@@PAVnsIDOMHTMLMapElement@@@Z ; 18
?NS_NewPopupSetFrame@@YAIPAVnsIPresShell@@PAPAVnsIFrame@@@Z ; 18
?GetPluginInstance@nsObjectFrame@@UAGIAAPAVnsIPluginInstance@@@Z ; 18
?SetInitialChildList@nsPopupSetFrame@@UAGIPAVnsIPresContext@@PAVnsIAtom@@PAVnsIFrame@@@Z ; 18
?UpdateAreas@nsImageMap@@IAEIXZ ; 18
?GetNamesValues@nsGfxTextControlFrame2@@UAEHHAAHPAVnsString@@1@Z ; 17
?GetSizeAttribute@nsListControlFrame@@IAEIPAH@Z ; 17
?RemoveRadio@nsRadioControlGroup@@QAEHPAVnsGfxRadioControlFrame@@@Z ; 17
?IsSuccessful@nsGfxTextControlFrame2@@UAEHPAVnsIFormControlFrame@@@Z ; 17
?SetOptionIntoPresState@nsListControlFrame@@IAEIPAVnsISupportsArray@@HH@Z ; 17
?AddNameSet@LayoutScriptNameSet@@UAGIPAVnsIScriptContext@@@Z ; 17
?Init@nsAutoRepeatBoxFrame@@UAGIPAVnsIPresContext@@PAVnsIContent@@PAVnsIFrame@@PAVnsIStyleContext@@2@Z ; 16
??0nsAutoRepeatBoxFrame@@QAE@PAVnsIPresShell@@@Z ; 16
?Release@nsScrollBoxObject@@UAGKXZ ; 16
?AddRef@nsScrollBoxObject@@UAGKXZ ; 16
?Release@nsPluginInstanceOwner@@UAGKXZ ; 16
?NS_NewAutoRepeatBoxFrame@@YAIPAVnsIPresShell@@PAPAVnsIFrame@@@Z ; 16
?HandleMultiplePress@nsFrame@@UAGIPAVnsIPresContext@@PAUnsGUIEvent@@PAW4nsEventStatus@@@Z ; 16
?AddRectToBand@nsSpaceManager@@IAEXPAUBandRect@1@0@Z ; 16
?RemoveVerticalScrollbar@nsGfxScrollFrameInner@@QAEHAAVnsBoxLayoutState@@AAUnsRect@@H@Z ; 16
?SetFormFrame@nsImageControlFrame@@UAEXPAVnsFormFrame@@@Z ; 16
?SetDocument@nsBoxObject@@UAGIPAVnsIDocument@@@Z ; 15
?Init@nsBoxObject@@UAGIPAVnsIContent@@PAVnsIPresShell@@@Z ; 15
??1nsBoxObject@@UAE@XZ ; 15
?RowsDesireExcessSpace@nsTableRowGroupFrame@@UAEHXZ ; 15
??1FrameHashTable@@QAE@XZ ; 15
??0FrameHashTable@@QAE@I@Z ; 15
??0nsBoxObject@@QAE@XZ ; 15
?ShowBox@nsDeckFrame@@MAEXPAVnsIPresContext@@PAVnsIBox@@@Z ; 14
?DoLayout@nsDeckFrame@@UAGIAAVnsBoxLayoutState@@@Z ; 14
?HideBox@nsDeckFrame@@MAEXPAVnsIPresContext@@PAVnsIBox@@@Z ; 14
?GetOptionValue@nsListControlFrame@@SAHAAVnsIDOMHTMLCollection@@HAAVnsString@@@Z ; 14
?GetName@nsHTMLButtonControlFrame@@UAGIPAVnsString@@@Z ; 14
?SetCheckboxState@nsGfxCheckboxControlFrame@@IAEXPAVnsIPresContext@@W4CheckState@1@@Z ; 13
?ShouldClearFrame@nsBlockBandData@@IAEHPAVnsIFrame@@E@Z ; 13
?SetActive@nsMenuBarFrame@@UAGIH@Z ; 13
??_EnsGfxCheckboxControlFrame@@UAEPAXI@Z ; 13
?SetCheckboxFaceStyleContext@nsGfxCheckboxControlFrame@@UAGIPAVnsIStyleContext@@@Z ; 13
??0nsImageControlFrame@@QAE@XZ ; 13
?GetIsActive@nsMenuBarFrame@@UAGIAAH@Z ; 13
?NS_NewImageControlFrame@@YAIPAVnsIPresShell@@PAPAVnsIFrame@@@Z ; 13
?ConstructCheckboxControlFrame@nsCSSFrameConstructor@@IAEIPAVnsIPresShell@@PAVnsIPresContext@@AAPAVnsIFrame@@PAVnsIContent@@PAVnsIStyleContext@@@Z ; 13
?NS_NewGfxCheckboxControlFrame@@YAIPAVnsIPresShell@@PAPAVnsIFrame@@@Z ; 13
?NS_NewStackFrame@@YAIPAVnsIPresShell@@PAPAVnsIFrame@@PAVnsIBoxLayout@@@Z ; 13
?InitializeControl@nsGfxCheckboxControlFrame@@UAEXPAVnsIPresContext@@@Z ; 13
??1nsGfxCheckboxControlFrame@@UAE@XZ ; 13
?Init@nsImageControlFrame@@UAGIPAVnsIPresContext@@PAVnsIContent@@PAVnsIFrame@@PAVnsIStyleContext@@2@Z ; 13
?GetTristateAtom@nsGfxCheckboxControlFrame@@KAPAVnsIAtom@@XZ ; 13
?SaveState@nsGfxCheckboxControlFrame@@UAGIPAVnsIPresContext@@PAPAVnsIPresState@@@Z ; 13
?Init@nsGfxCheckboxControlFrame@@UAGIPAVnsIPresContext@@PAVnsIContent@@PAVnsIFrame@@PAVnsIStyleContext@@2@Z ; 13
?QueryInterface@nsEditorBoxObject@@UAGIABUnsID@@PAPAX@Z ; 13
?IsSuccessful@nsFormControlFrame@@UAEHPAVnsIFormControlFrame@@@Z ; 13
??0nsGfxCheckboxControlFrame@@QAE@XZ ; 13
??_EnsImageControlFrame@@UAEPAXI@Z ; 12
?AttributeChanged@nsHTMLFrameOuterFrame@@UAGIPAVnsIPresContext@@PAVnsIContent@@HPAVnsIAtom@@H@Z ; 12
?RemoveFrame@nsBoxFrame@@UAGIPAVnsIPresContext@@AAVnsIPresShell@@PAVnsIAtom@@PAVnsIFrame@@@Z ; 12
?IsSuccessful@nsGfxButtonControlFrame@@UAEHPAVnsIFormControlFrame@@@Z ; 12
?ContentInserted@nsImageMap@@UAGIPAVnsIDocument@@PAVnsIContent@@1H@Z ; 12
??1nsImageControlFrame@@UAE@XZ ; 12
?Destroy@nsImageControlFrame@@UAGIPAVnsIPresContext@@@Z ; 12
?IsSuccessful@nsListControlFrame@@UAEHPAVnsIFormControlFrame@@@Z ; 11
?CreateScrollingViewWidget@nsScrollFrame@@MAEIPAVnsIView@@PBUnsStylePosition@@@Z ; 11
?MouseOut@nsListEventListener@@UAEIPAVnsIDOMEvent@@@Z ; 11
?RePositionPopup@nsMenuFrame@@MAEXAAVnsBoxLayoutState@@@Z ; 11
?GetNamesValues@nsComboboxControlFrame@@UAEHHAAHPAVnsString@@1@Z ; 11
?IsSuccessful@nsFileControlFrame@@UAEHPAVnsIFormControlFrame@@@Z ; 11
?AllocateSpecialHeight@@YAXPAVnsIPresContext@@PAVnsTableFrame@@PAVnsIFrame@@AAH@Z ; 11
?GetClassObject@nsLayoutModule@@UAGIPAVnsIComponentManager@@ABUnsID@@1PAPAX@Z ; 11
?Release@nsLayoutModule@@UAGKXZ ; 11
?MouseOver@nsListEventListener@@UAEIPAVnsIDOMEvent@@@Z ; 11
?ScrollFrameIntoView@PresShell@@UBGIPAVnsIFrame@@HH@Z ; 11
??0nsLayoutFactory@@QAE@ABUnsID@@@Z ; 11
?GetMaxNumValues@nsListControlFrame@@UAEHXZ ; 11
?GetName@nsComboboxControlFrame@@UAGIPAVnsString@@@Z ; 11
?VisibilityChanged@nsXULTreeOuterGroupFrame@@UAGIH@Z ; 11
?ReflowDirtyChild@nsBoxFrame@@UAGIPAVnsIPresShell@@PAVnsIFrame@@@Z ; 10
?SetAdditionalStyleContext@nsHTMLButtonControlFrame@@UAGIHPAVnsIStyleContext@@@Z ; 10
?AppendCell@nsTableFrame@@UAEHAAVnsIPresContext@@AAVnsTableCellFrame@@H@Z ; 10
?Unregister@nsMenuDismissalListener@@UAGIXZ ; 10
?OpenMenu@nsMenuFrame@@UAGIH@Z ; 10
?SetDebug@nsMenuFrame@@IAEIAAVnsBoxLayoutState@@PAVnsIFrame@@H@Z ; 10
?NS_NewMenuPopupFrame@@YAIPAVnsIPresShell@@PAPAVnsIFrame@@@Z ; 10
??0nsMenuPopupFrame@@QAE@PAVnsIPresShell@@@Z ; 10
?InstallKeyboardNavigator@nsMenuBarFrame@@UAGIXZ ; 10
??0?$nsPromiseSubstring@G@@QAE@ABV?$basic_nsAReadableString@G@@II@Z ; 10
?SetStyleContext@nsButtonFrameRenderer@@UAEIHPAVnsIStyleContext@@@Z ; 10
?AssignFromPromise@?$basic_nsAWritableString@G@@IAEXABV?$basic_nsAReadableString@G@@@Z ; 10
?Init@nsMenuPopupFrame@@UAGIPAVnsIPresContext@@PAVnsIContent@@PAVnsIFrame@@PAVnsIStyleContext@@2@Z ; 10
?AppendFrames@nsMenuFrame@@UAGIPAVnsIPresContext@@AAVnsIPresShell@@PAVnsIAtom@@PAVnsIFrame@@@Z ; 10
?GetNamesValues@nsGfxCheckboxControlFrame@@UAEHHAAHPAVnsString@@1@Z ; 10
?GetFrameType@nsObjectFrame@@UBGIPAPAVnsIAtom@@@Z ; 10
?Promises@?$nsPromiseSubstring@G@@UBEHABV?$basic_nsAReadableString@G@@@Z ; 10
?GetInitialOrientation@nsMenuPopupFrame@@MAEHAAH@Z ; 10
?Prepend@nsContainerBox@@UAEXAAVnsBoxLayoutState@@PAVnsIFrame@@@Z ; 10
?AppendCell@nsTableCellMap@@QAEHAAVnsTableCellFrame@@HH@Z ; 10
?OpenMenuInternal@nsMenuFrame@@IAEXH@Z ; 10
?GetNearestEnclosingView@nsMenuPopupFrame@@SAXPAVnsIPresContext@@PAVnsIFrame@@PAPAVnsIView@@@Z ; 10
??_GnsMenuPopupFrame@@UAEPAXI@Z ; 10
?EnableListener@nsMenuDismissalListener@@UAGIH@Z ; 10
?GetMenuParent@nsMenuFrame@@UAGIPAPAVnsIMenuParent@@@Z ; 10
?IsHidden@nsObjectFrame@@IBEHXZ ; 9
?SetCaretEnabled@nsTextInputSelectionImpl@@UAGIH@Z ; 9
?AppendFrames@nsBoxFrame@@UAGIPAVnsIPresContext@@AAVnsIPresShell@@PAVnsIAtom@@PAVnsIFrame@@@Z ; 9
?GetEditor@nsGfxTextControlFrame2@@UAGIPAPAVnsIEditor@@@Z ; 9
?GetNextSiblingOnLine@nsLineIterator@@UAGIAAPAVnsIFrame@@H@Z ; 9
?SetCaretDOMSelection@nsCaret@@UAGIPAVnsISelection@@@Z ; 9
?RepaintSelection@nsTextInputSelectionImpl@@UAGIF@Z ; 9
?ReParentStyleContext@nsPresContext@@UAGIPAVnsIFrame@@PAVnsIStyleContext@@@Z ; 9
??0nsStackLayout@@QAE@XZ ; 8
?HandleEvent@nsScrollbarButtonFrame@@UAGIPAVnsIPresContext@@PAUnsGUIEvent@@PAW4nsEventStatus@@@Z ; 8
?HandleEvent@nsMenuPopupFrame@@UAGIPAVnsIPresContext@@PAUnsGUIEvent@@PAW4nsEventStatus@@@Z ; 8
?Clear@nsXULTreeRowGroupInfo@@QAEXXZ ; 8
?NS_NewScrollBoxFrame@@YAIPAVnsIPresShell@@PAPAVnsIFrame@@@Z ; 8
?DragThumb@nsSliderFrame@@EAGIPAVnsIPresContext@@H@Z ; 8
?Stop@nsScrollSmoother@@QAEXXZ ; 8
?UpdateTextInputCommands@nsTextInputListener@@IAEIABVnsString@@@Z ; 8
?NS_NewXULTreeOuterGroupFrame@@YAIPAVnsIPresShell@@PAPAVnsIFrame@@HPAVnsIBoxLayout@@H@Z ; 7
?CantRenderReplacedElement@nsCSSFrameConstructor@@UAGIPAVnsIPresShell@@PAVnsIPresContext@@PAVnsIFrame@@@Z ; 7
??0CantRenderReplacedElementEvent@@QAE@PAVFrameManager@@PAVnsIFrame@@@Z ; 7
?SetScrollbarMediator@nsScrollbarFrame@@UAGIPAVnsIScrollbarMediator@@@Z ; 7
?GetLoadStatus@nsHTMLImageLoader@@QBEIXZ ; 7
?GetScrollableView@nsGfxScrollFrame@@UAGIPAVnsIPresContext@@PAPAVnsIScrollableView@@@Z ; 7
??0nsTreeScrollPortFrame@@QAE@PAVnsIPresShell@@@Z ; 7
??_GnsDragOverListener@@UAEPAXI@Z ; 7
?ReplaceFrame@FrameManager@@UAGIPAVnsIPresContext@@AAVnsIPresShell@@PAVnsIFrame@@PAVnsIAtom@@22@Z ; 7
?NS_NewGridLayout@@YAIPAVnsIPresShell@@AAV?$nsCOMPtr@VnsIBoxLayout@@@@@Z ; 7
?CantRenderReplacedElement@FrameManager@@UAGIPAVnsIPresContext@@PAVnsIFrame@@@Z ; 7
?HandleEvent@nsFormControlFrame@@UAGIPAVnsIPresContext@@PAUnsGUIEvent@@PAW4nsEventStatus@@@Z ; 7
?NS_NewRootBoxFrame@@YAIPAVnsIPresShell@@PAPAVnsIFrame@@@Z ; 7
??0nsXULTreeOuterGroupFrame@@AAE@PAVnsIPresShell@@HPAVnsIBoxLayout@@H@Z ; 7
??_GnsMonumentLayout@@UAEPAXI@Z ; 7
?GetScrollbarBox@nsGfxScrollFrame@@UAGIHPAPAVnsIBox@@@Z ; 7
?NS_NewTreeScrollPortFrame@@YAIPAVnsIPresShell@@PAPAVnsIFrame@@@Z ; 7
?ReplaceFrame@nsContainerFrame@@UAGIPAVnsIPresContext@@AAVnsIPresShell@@PAVnsIAtom@@PAVnsIFrame@@3@Z ; 7
?ReduceOverSpecifiedPctCols@BasicTableLayoutStrategy@@IAEXH@Z ; 7
?SetCaretWidth@nsCaret@@UAGIH@Z ; 7
??0nsXULTreeRowGroupInfo@@QAE@XZ ; 7
?CreateRDFDocument@nsLayoutDLF@@QAEIPBDPAVnsIChannel@@PAVnsILoadGroup@@0PAVnsISupports@@3PAPAVnsIStreamListener@@PAPAVnsIContentViewer@@@Z ; 7
?CreateRDFDocument@nsLayoutDLF@@QAEIPAVnsISupports@@PAV?$nsCOMPtr@VnsIDocument@@@@PAV?$nsCOMPtr@VnsIDocumentViewer@@@@@Z ; 7
??0nsGridLayout@@IAE@PAVnsIPresShell@@@Z ; 7
?Init@nsXULTreeOuterGroupFrame@@UAGIPAVnsIPresContext@@PAVnsIContent@@PAVnsIFrame@@PAVnsIStyleContext@@2@Z ; 7
?DestroyPLEvent@FrameManager@@CAXPAUCantRenderReplacedElementEvent@@@Z ; 7
?CanProcessEvents@FrameManager@@UAGIXZ ; 7
??_EnsXULTreeOuterGroupFrame@@EAEPAXI@Z ; 7
?GetType@nsTableColGroupFrame@@QBE?AW4nsTableColGroupType@@XZ ; 7
??0nsRootBoxFrame@@QAE@PAVnsIPresShell@@@Z ; 7
?Destroy@nsXULTreeOuterGroupFrame@@UAGIPAVnsIPresContext@@@Z ; 7
?Assign@?$basic_nsAWritableString@G@@QAEXPBG@Z ; 7
??1nsXULTreeOuterGroupFrame@@EAE@XZ ; 7
?CantRenderReplacedElement@PresShell@@UAGIPAVnsIPresContext@@PAVnsIFrame@@@Z ; 7
?HandlePLEvent@FrameManager@@CAXPAUCantRenderReplacedElementEvent@@@Z ; 7
?NS_NewXULTreeFrame@@YAIPAVnsIPresShell@@PAPAVnsIFrame@@HPAVnsIBoxLayout@@H@Z ; 6
??_GnsRadioControlGroup@@UAEPAXI@Z ; 6
??1nsRadioControlGroup@@UAE@XZ ; 6
??1nsXULTreeFrame@@MAE@XZ ; 6
?SelectAll@nsTextInputSelectionImpl@@UAGIXZ ; 6
??0nsXULTreeFrame@@IAE@PAVnsIPresShell@@HPAVnsIBoxLayout@@H@Z ; 6
?Release@nsScrollSmoother@@UAGKXZ ; 6
?SetTextControlFrameState@nsGfxTextControlFrame2@@QAEXABV?$basic_nsAReadableString@G@@@Z ; 6
?ConstructAlternateFrame@nsCSSFrameConstructor@@IAEIPAVnsIPresShell@@PAVnsIPresContext@@PAVnsIContent@@PAVnsIStyleContext@@PAVnsIFrame@@AAPAV6@@Z ; 6
?Draw@CircleArea@@UAEXPAVnsIPresContext@@AAVnsIRenderingContext@@@Z ; 6
?GetMaxNumValues@nsGfxButtonControlFrame@@UAEHXZ ; 6
?GetNamesValues@nsGfxButtonControlFrame@@UAEHHAAHPAVnsString@@1@Z ; 6
??_EnsXULTreeFrame@@MAEPAXI@Z ; 6
?PlatformToDOMLineBreaks@nsFormControlHelper@@SAXAAVnsString@@@Z ; 6
??0nsRadioControlGroup@@QAE@AAVnsString@@@Z ; 6
?GetAttribute@nsPluginInstanceOwner@@UAGIPBDPAPBD@Z ; 6
?GetFrameAtOrBefore@nsTableFrame@@SAPAVnsIFrame@@PAVnsIPresContext@@PAV2@1PAVnsIAtom@@@Z ; 6
?RemoveKeyboardNavigator@nsMenuBarFrame@@UAGIXZ ; 5
??1nsGrippyFrame@@UAE@XZ ; 5
?Execute@nsMenuFrame@@IAEXXZ ; 5
?KillCloseTimer@nsMenuPopupFrame@@UAGIXZ ; 5
??0nsMenuDismissalListener@@QAE@XZ ; 5
?GetProperty@nsBoxObject@@UAGIPBGPAPAG@Z ; 5
?GetWidgetForView@@YAXPAVnsIView@@AAPAVnsIWidget@@@Z ; 5
?NS_NewIFrameBoxObject@@YAIPAPAVnsIBoxObject@@@Z ; 5
??1nsMenuListener@@UAE@XZ ; 5
?ToggleMenuState@nsMenuFrame@@UAGIXZ ; 5
?Blur@nsTextInputListener@@UAEIPAVnsIDOMEvent@@@Z ; 5
?GetWidget@nsMenuPopupFrame@@UAGIPAPAVnsIWidget@@@Z ; 5
??_GnsBoxObject@@UAEPAXI@Z ; 5
??_EnsMenuDismissalListener@@UAEPAXI@Z ; 5
??0?$basic_nsLiteralString@G@@QAE@PBGI@Z ; 5
??1nsMenuDismissalListener@@UAE@XZ ; 5
??0nsEvent@@QAE@XZ ; 5
?GetDesiredSize@nsObjectFrame@@MAEXPAVnsIPresContext@@ABUnsHTMLReflowState@@AAUnsHTMLReflowMetrics@@@Z ; 5
??0nsIFrameBoxObject@@QAE@XZ ; 5
?NS_NewGrippyFrame@@YAIPAVnsIPresShell@@PAPAVnsIFrame@@@Z ; 5
??_GnsGrippyFrame@@UAEPAXI@Z ; 5
?OnCreate@nsMenuFrame@@IAEHXZ ; 5
??_GnsIFrameBoxObject@@UAEPAXI@Z ; 5
?HideChain@nsMenuPopupFrame@@UAGIXZ ; 5
??1nsIFrameBoxObject@@UAE@XZ ; 5
?ScrollIntoView@nsGfxTextControlFrame2@@UAEXPAVnsIPresContext@@@Z ; 5
?GetViewOffset@nsMenuPopupFrame@@QAEXPAVnsIViewManager@@PAVnsIView@@AAUnsPoint@@@Z ; 5
??_GnsMenuListener@@UAEPAXI@Z ; 5
?DismissChain@nsMenuBarFrame@@UAGIXZ ; 5
??0nsMenuListener@@QAE@PAVnsIMenuParent@@@Z ; 5
?SetCurrentMenuParent@nsMenuDismissalListener@@QAEXPAVnsIMenuParent@@@Z ; 5
?SyncViewWithFrame@nsMenuPopupFrame@@QAEIPAVnsIPresContext@@ABVnsString@@1PAVnsIFrame@@HH@Z ; 5
?AdjustPositionForAnchorAlign@nsMenuPopupFrame@@IAEXPAH0ABUnsRect@@ABVnsString@@20@Z ; 5
?GetTreeBody@nsXULTreeFrame@@QAEXPAPAVnsXULTreeOuterGroupFrame@@@Z ; 5
?OnDestroy@nsMenuFrame@@IAEHXZ ; 5
??0nsGrippyFrame@@QAE@PAVnsIPresShell@@@Z ; 5
?HideChain@nsMenuBarFrame@@UAGIXZ ; 5
?AppendFrames@nsTableRowFrame@@UAGIPAVnsIPresContext@@AAVnsIPresShell@@PAVnsIAtom@@PAVnsIFrame@@@Z ; 5
?UpdateDismissalListener@nsMenuFrame@@KAXPAVnsIMenuParent@@@Z ; 5
?NS_NewBoxObject@@YAIPAPAVnsIBoxObject@@@Z ; 5
?CreateDismissalListener@nsMenuPopupFrame@@UAGIXZ ; 5
?DismissChain@nsMenuPopupFrame@@UAGIXZ ; 5
?FindLineContaining@nsLineIterator@@UAGIPAVnsIFrame@@PAH@Z ; 4
?SetStateProperty@nsPresState@@UAGIABV?$basic_nsAReadableString@G@@0@Z ; 4
?SetCaretWidth@nsTextInputSelectionImpl@@UAGIF@Z ; 4
?AppendFrames@nsTableRowGroupFrame@@UAGIPAVnsIPresContext@@AAVnsIPresShell@@PAVnsIAtom@@PAVnsIFrame@@@Z ; 4
?GetFirstRowContent@nsXULTreeGroupFrame@@QAEXPAPAVnsIContent@@@Z ; 4
?GetFrameForPoint@nsDeckFrame@@UAGIPAVnsIPresContext@@ABUnsPoint@@W4nsFramePaintLayer@@PAPAVnsIFrame@@@Z ; 4
?RemoveListener@nsSliderFrame@@AAEXXZ ; 4
?GetContentAndOffsetsFromPoint@BRFrame@@UAGIPAVnsIPresContext@@ABUnsPoint@@PAPAVnsIContent@@AAH33@Z ; 4
?QueryInterface@nsHTMLFramesetFrame@@UAGIABUnsID@@PAPAX@Z ; 4
?AppendRows@nsTableFrame@@QAEXAAVnsIPresContext@@AAVnsTableRowGroupFrame@@HAAVnsVoidArray@@@Z ; 4
?MouseDown@nsSliderFrame@@UAEIPAVnsIDOMEvent@@@Z ; 4
?GetAdditionalStyleContext@nsGfxCheckboxControlFrame@@UBGIHPAPAVnsIStyleContext@@@Z ; 4
?GetSmoother@nsXULTreeOuterGroupFrame@@IAEPAVnsScrollSmoother@@XZ ; 4
?GetSpan@nsTableColFrame@@UAEHXZ ; 4
?IR_TargetIsMe@nsTableRowGroupFrame@@MAGIPAVnsIPresContext@@AAUnsHTMLReflowMetrics@@AAURowGroupReflowState@@AAI@Z ; 4
?MouseDown@nsSliderMediator@@UAEIPAVnsIDOMEvent@@@Z ; 4
?PlaceBelowCurrentLineFloaters@nsBlockReflowState@@QAEXAAVnsFloaterCacheList@@@Z ; 4
?Focus@nsTextInputListener@@UAEIPAVnsIDOMEvent@@@Z ; 4
?FillCurrentData@DrawSelectionIterator@@AAEXXZ ; 4
?IR_TargetIsMe@nsTableRowFrame@@MAGIPAVnsIPresContext@@AAUnsHTMLReflowMetrics@@AAURowReflowState@@AAI@Z ; 4
?ConstructTableColFrame@nsCSSFrameConstructor@@IAEIPAVnsIPresShell@@PAVnsIPresContext@@AAVnsFrameConstructorState@@PAVnsIContent@@PAVnsIFrame@@PAVnsIStyleContext@@AAUnsTableCreator@@HAAUnsFrameItems@@AAPAV6@AAH@Z ; 4
?GetStartRowIndex@nsTableFrame@@QAEHAAVnsTableRowGroupFrame@@@Z ; 4
?GetColCount@nsTableColGroupFrame@@UBEHXZ ; 4
?CreateTableColFrame@nsTableCreator@@UAEIPAPAVnsIFrame@@@Z ; 4
?GetPluginPort@nsPluginInstanceOwner@@QAEPAUnsPluginPort@@XZ ; 4
?MouseClicked@nsButtonBoxFrame@@UAEXPAVnsIPresContext@@PAUnsGUIEvent@@@Z ; 3
?GetPropertyAsSupports@nsBoxObject@@UAGIPBGPAPAVnsISupports@@@Z ; 3
??0nsMenuBarFrame@@QAE@PAVnsIPresShell@@@Z ; 3
??1nsProgressMeterFrame@@MAE@XZ ; 3
?SetCheckedRadio@nsRadioControlGroup@@QAEXPAVnsGfxRadioControlFrame@@@Z ; 3
?GetOptionsContainer@nsListControlFrame@@UAGIPAVnsIPresContext@@PAPAVnsIFrame@@@Z ; 3
?Init@nsMenuBarFrame@@UAGIPAVnsIPresContext@@PAVnsIContent@@PAVnsIFrame@@PAVnsIStyleContext@@2@Z ; 3
??_GnsMenuBarListener@@UAEPAXI@Z ; 3
?Paint@nsHTMLFramesetFrame@@UAGIPAVnsIPresContext@@AAVnsIRenderingContext@@ABUnsRect@@W4nsFramePaintLayer@@@Z ; 3
?GetHeightOfRows@nsTableRowGroupFrame@@QAGIPAVnsIPresContext@@AAH@Z ; 3
??0nsProgressMeterFrame@@IAE@PAVnsIPresShell@@@Z ; 3
?CurrentTextUnicharPtr@DrawSelectionIterator@@QAEPAGXZ ; 3
??0nsMenuBarListener@@QAE@PAVnsMenuBarFrame@@@Z ; 3
?RemoveFrame@CanvasFrame@@UAGIPAVnsIPresContext@@AAVnsIPresShell@@PAVnsIAtom@@PAVnsIFrame@@@Z ; 3
?AreAllKidsInline@nsCSSFrameConstructor@@IAEHPAVnsIFrame@@@Z ; 3
??_EnsProgressMeterFrame@@MAEPAXI@Z ; 3
?ReleasePluginPort@nsPluginInstanceOwner@@QAEXPAUnsPluginPort@@@Z ; 3
?Reflow@nsObjectFrame@@UAGIPAVnsIPresContext@@AAUnsHTMLReflowMetrics@@ABUnsHTMLReflowState@@AAI@Z ; 3
?GetCheckedRadio@nsRadioControlGroup@@QAEPAVnsGfxRadioControlFrame@@XZ ; 3
?RemoveFixedItems@nsCSSFrameConstructor@@IAEIAAVnsIPresContext@@AAVnsIPresShell@@@Z ; 3
?CurrentBackGroundColor@DrawSelectionIterator@@QAEHAAI@Z ; 3
?DidReflow@nsObjectFrame@@UAGIPAVnsIPresContext@@H@Z ; 3
?AppendFrames@nsAbsoluteContainingBlock@@QAEIPAVnsIFrame@@PAVnsIPresContext@@AAVnsIPresShell@@PAVnsIAtom@@0@Z ; 3
?AppendFrames@CanvasFrame@@UAGIPAVnsIPresContext@@AAVnsIPresShell@@PAVnsIAtom@@PAVnsIFrame@@@Z ; 3
??1nsMenuBarFrame@@UAE@XZ ; 3
?InsertFrames@nsRootBoxFrame@@UAGIPAVnsIPresContext@@AAVnsIPresShell@@PAVnsIAtom@@PAVnsIFrame@@3@Z ; 3
?NS_NewProgressMeterFrame@@YAIPAVnsIPresShell@@PAPAVnsIFrame@@@Z ; 3
?NS_NewMenuBarFrame@@YAIPAVnsIPresShell@@PAPAVnsIFrame@@@Z ; 3
?SetChildListName@nsHTMLReflowCommand@@UAGIPAVnsIAtom@@@Z ; 3
?Clear@nsDST@@QAEIXZ ; 3
?do_AppendFromReadable@?$basic_nsAWritableString@G@@MAEXABV?$basic_nsAReadableString@G@@@Z ; 3
?Next@DrawSelectionIterator@@QAEHXZ ; 3
?DistributeSpaceToRows@nsTableFrame@@IAEXPAVnsIPresContext@@ABUnsHTMLReflowState@@PAVnsIFrame@@HHAAH3@Z ; 3
?CurrentForeGroundColor@DrawSelectionIterator@@QAEIXZ ; 3
??_GnsMenuBarFrame@@UAEPAXI@Z ; 3
?ReflowStandard@nsGfxTextControlFrame2@@MAGIPAVnsIPresContext@@AAUnsSize@@ABUnsHTMLReflowState@@AAIAAUnsMargin@@4@Z ; 3
?GetNamesValues@nsGfxRadioControlFrame@@UAEHHAAHPAVnsString@@1@Z ; 3
??0nsStyleColor@@QAE@ABU0@@Z ; 3
?CalculateSizeStandard@nsGfxTextControlFrame2@@IAEHPAVnsIPresContext@@PAVnsIRenderingContext@@PAVnsIFormControlFrame@@AAUnsInputDimensionSpec@@AAUnsSize@@4AAHAAUnsMargin@@6H@Z ; 3
?Destroy@nsMenuBarFrame@@UAGIPAVnsIPresContext@@@Z ; 3
?DistributeSpaceToCells@nsTableFrame@@IAEXPAVnsIPresContext@@ABUnsHTMLReflowState@@PAVnsIFrame@@@Z ; 3
?GetWidth@nsPluginInstanceOwner@@UAGIPAI@Z ; 3
?SetInitialChildList@nsProgressMeterFrame@@UAGIPAVnsIPresContext@@PAVnsIAtom@@PAVnsIFrame@@@Z ; 3
?SetCaretWidth@PresShell@@UAGIF@Z ; 3
?BecameDirty@nsObeliskLayout@@UAGIPAVnsIBox@@AAVnsBoxLayoutState@@@Z ; 3
?SetProperty@nsGfxTextControlFrame2@@UAGIPAVnsIPresContext@@PAVnsIAtom@@ABV?$basic_nsAReadableString@G@@@Z ; 3
??1nsMenuBarListener@@UAE@XZ ; 3
?GetHeight@nsPluginInstanceOwner@@UAGIPAI@Z ; 3
?CurrentLength@DrawSelectionIterator@@QAEIXZ ; 3
?HandlePress@nsSliderFrame@@UAGIPAVnsIPresContext@@PAUnsGUIEvent@@PAW4nsEventStatus@@@Z ; 2
?UnSet@nsFramesetDrag@@QAEXXZ ; 2
?ReflowPlaceChild@nsHTMLFramesetFrame@@IAEXPAVnsIFrame@@PAVnsIPresContext@@ABUnsHTMLReflowState@@AAUnsPoint@@AAUnsSize@@PAU5@@Z ; 2
?GetMethod@nsFormFrame@@UAGIPAH@Z ; 2
??1nsScrollSmoother@@UAE@XZ ; 2
?SetInitialChildList@nsObjectFrame@@UAGIPAVnsIPresContext@@PAVnsIAtom@@PAVnsIFrame@@@Z ; 2
?Init@nsDeckFrame@@UAGIPAVnsIPresContext@@PAVnsIContent@@PAVnsIFrame@@PAVnsIStyleContext@@2@Z ; 2
?CalculateHorizBorderPaddingMargin@nsHTMLReflowState@@IAEHH@Z ; 2
?Destroy@nsObjectFrame@@UAGIPAVnsIPresContext@@@Z ; 2
?EnsureIndexIsVisible@nsTreeBoxObject@@UAGIH@Z ; 2
?OnSubmit@nsFormFrame@@UAGIPAVnsIPresContext@@PAVnsIFrame@@@Z ; 2
?GetTarget@nsFormFrame@@UAGIPAVnsString@@@Z ; 2
?Remove@FrameHashTable@@QAEPAXPAX@Z ; 2
??_GnsObjectFrame@@MAEPAXI@Z ; 2
?ScrollTo@nsGfxScrollFrame@@UAGIPAVnsIPresContext@@HHI@Z ; 2
?GetAction@nsFormFrame@@UAGIPAVnsString@@@Z ; 2
?CalculateHypotheticalBox@nsHTMLReflowState@@IAEXPAVnsIPresContext@@PAVnsIFrame@@1AAUnsMargin@@1AAUnsHypotheticalBox@@@Z ; 2
?ContentReplaced@PresShell@@UAGIPAVnsIDocument@@PAVnsIContent@@11H@Z ; 2
?GetEnctype@nsFormFrame@@UAGIPAH@Z ; 2
?GetAttributes@nsPluginInstanceOwner@@UAGIAAGAAPBQBD1@Z ; 2
?RebuildConsideringRows@nsCellMap@@IAEXPAVnsIPresContext@@AAVnsTableCellMap@@HPAVnsVoidArray@@H@Z ; 2
?GetDelayCaretOverExistingSelection@nsTextInputSelectionImpl@@UAGIPAH@Z ; 2
?Init@nsPluginInstanceOwner@@UAGIPAVnsIPresContext@@PAVnsObjectFrame@@@Z ; 2
??1nsObjectFrame@@MAE@XZ ; 2
?ProcessAsURLEncoded@nsFormFrame@@IAEIPAVnsIFormProcessor@@HAAVnsString@@PAVnsIFormControlFrame@@@Z ; 2
?Start@nsRepeatService@@QAEXPAVnsITimerCallback@@@Z ; 2
?GetBorderColor@nsHTMLFramesetFrame@@IAEIXZ ; 2
?CalculateRowCol@nsHTMLFramesetFrame@@IAEXPAVnsIPresContext@@HHPAUnsFramesetSpec@@PAH@Z ; 2
?ScrollIntoView@nsHTMLButtonControlFrame@@UAEXPAVnsIPresContext@@@Z ; 2
?ContentChanged@nsObjectFrame@@UAGIPAVnsIPresContext@@PAVnsIContent@@PAVnsISupports@@@Z ; 2
?GetSizeOfChildAt@nsHTMLFramesetFrame@@QAEXHAAUnsSize@@AAUnsPoint@@@Z ; 2
?NS_NewObjectFrame@@YAIPAVnsIPresShell@@PAPAVnsIFrame@@@Z ; 2
?EnsureRowIsVisible@nsXULTreeFrame@@UAGIH@Z ; 2
?GetStatePropertyAsSupports@nsPresState@@UAGIABV?$basic_nsAReadableString@G@@PAPAVnsISupports@@@Z ; 2
?InsertFrames@nsInlineFrame@@UAGIPAVnsIPresContext@@AAVnsIPresShell@@PAVnsIAtom@@PAVnsIFrame@@3@Z ; 2
?Prev@nsLeafIterator@@EAGIXZ ; 2
??0nsScrollSmoother@@QAE@PAVnsXULTreeOuterGroupFrame@@@Z ; 2
?Start@nsScrollSmoother@@QAEXXZ ; 2
?SetPluginHost@nsPluginInstanceOwner@@QAEXPAUnsIPluginHost@@@Z ; 2
?AttributeChanged@nsImageFrame@@UAGIPAVnsIPresContext@@PAVnsIContent@@HPAVnsIAtom@@H@Z ; 2
?StyleSheetDisabledStateChanged@PresShell@@UAGIPAVnsIDocument@@PAVnsIStyleSheet@@H@Z ; 2
?SetInitialChildList@nsDeckFrame@@UAGIPAVnsIPresContext@@PAVnsIAtom@@PAVnsIFrame@@@Z ; 2
?Destroy@nsPluginInstanceOwner@@QAEIXZ ; 2
?RemoveFrame@nsInlineFrame@@UAGIPAVnsIPresContext@@AAVnsIPresShell@@PAVnsIAtom@@PAVnsIFrame@@@Z ; 2
?GetRect@RectArea@@UAEXPAVnsIPresContext@@AAUnsRect@@@Z ; 2
?IsRunning@nsScrollSmoother@@QAEHXZ ; 2
?NS_NewBrowserBoxObject@@YAIPAPAVnsIBoxObject@@@Z ; 2
?IsInside@DefaultArea@@UAEHHH@Z ; 2
?InternalPositionChangedCallback@nsXULTreeOuterGroupFrame@@UAGIXZ ; 2
?InsertFrames@nsMenuFrame@@UAGIPAVnsIPresContext@@AAVnsIPresShell@@PAVnsIAtom@@PAVnsIFrame@@3@Z ; 2
?SetAdditionalStyleContext@nsGfxCheckboxControlFrame@@UAGIHPAVnsIStyleContext@@@Z ; 2
?QueryInterface@nsObjectFrame@@UAGIABUnsID@@PAPAX@Z ; 2
?ConstructTableColGroupFrame@nsCSSFrameConstructor@@IAEIPAVnsIPresShell@@PAVnsIPresContext@@AAVnsFrameConstructorState@@PAVnsIContent@@PAVnsIFrame@@PAVnsIStyleContext@@AAUnsTableCreator@@HAAUnsFrameItems@@AAPAV6@AAH@Z ; 2
?GetFrameBorder@nsHTMLFramesetFrame@@IAE?AW4nsFrameborder@@H@Z ; 2
?GetIndexOfItem@nsXULTreeFrame@@UAGIPAVnsIPresContext@@PAVnsIDOMElement@@PAH@Z ; 2
??_EnsBrowserBoxObject@@UAEPAXI@Z ; 2
?Invalidate@nsImageMap@@IAEIPAVnsIPresContext@@PAVnsIFrame@@AAUnsRect@@@Z ; 2
?ChangeFocus@nsImageMap@@IAEIPAVnsIDOMEvent@@H@Z ; 2
?InternalPositionChanged@nsXULTreeOuterGroupFrame@@UAGIHHH@Z ; 2
?CurrentItem@nsFrameIterator@@UAGIPAPAVnsISupports@@@Z ; 2
?Init@nsObjectFrame@@UAGIPAVnsIPresContext@@PAVnsIContent@@PAVnsIFrame@@PAVnsIStyleContext@@2@Z ; 2
?MouseClicked@nsHTMLButtonControlFrame@@UAEXPAVnsIPresContext@@@Z ; 2
?GetPageIncrement@nsSliderFrame@@SAHPAVnsIContent@@@Z ; 2
?Notify@nsScrollSmoother@@UAGXPAVnsITimer@@@Z ; 2
?PositionChanged@nsXULTreeOuterGroupFrame@@UAGIHAAH@Z ; 2
?GetSubmitCharset@nsFormFrame@@IAEXAAVnsString@@@Z ; 2
??_EnsScrollSmoother@@UAEPAXI@Z ; 2
?GetIndexOfItem@nsTreeBoxObject@@UAGIPAVnsIDOMElement@@PAH@Z ; 2
??0nsObjectFrame@@QAE@XZ ; 2
?IsSubmit@nsHTMLButtonControlFrame@@MAEHPAVnsIPresContext@@H@Z ; 2
?RemoveFrame@nsFormFrame@@UAGIPAVnsIPresContext@@AAVnsIPresShell@@PAVnsIAtom@@PAVnsIFrame@@@Z ; 2
?SetInitialChildList@nsTableColGroupFrame@@UAGIPAVnsIPresContext@@PAVnsIAtom@@PAVnsIFrame@@@Z ; 2
?ContentReplaced@nsCSSFrameConstructor@@UAGIPAVnsIPresContext@@PAVnsIContent@@11H@Z ; 2
?VerticalScroll@nsXULTreeOuterGroupFrame@@QAEXH@Z ; 2
??0nsPluginInstanceOwner@@QAE@XZ ; 2
?GetBaseURL@nsObjectFrame@@IAEIAAPAVnsIURI@@@Z ; 2
?EnsureRowIsVisible@nsXULTreeOuterGroupFrame@@QAEXH@Z ; 2
?PageUpDown@nsSliderFrame@@AAEXPAVnsIFrame@@H@Z ; 2
??0nsBrowserBoxObject@@QAE@XZ ; 2
??_EnsPluginInstanceOwner@@UAEPAXI@Z ; 2
??1nsBrowserBoxObject@@UAE@XZ ; 2
?GetEncoder@nsFormFrame@@MAGIPAPAVnsIUnicodeEncoder@@@Z ; 2
?CreateTableColGroupFrame@nsTableCreator@@UAEIPAPAVnsIFrame@@@Z ; 2
?GetColorValue@nsHTMLValue@@QBEIXZ ; 2
?ParseRowCol@nsHTMLFramesetFrame@@IAEXPAVnsIPresContext@@PAVnsIAtom@@AAHPAPAUnsFramesetSpec@@@Z ; 2
?NS_NewDeckFrame@@YAIPAVnsIPresShell@@PAPAVnsIFrame@@PAVnsIBoxLayout@@@Z ; 2
?SetDelayedCaretData@nsTextInputSelectionImpl@@UAGIPAUnsMouseEvent@@@Z ; 2
??0nsDeckFrame@@QAE@PAVnsIPresShell@@PAVnsIBoxLayout@@@Z ; 2
?IsSupportedImage@nsObjectFrame@@QAEXPAVnsIContent@@PAH@Z ; 2
?CancelTimer@nsPluginInstanceOwner@@QAEXXZ ; 2
?SetMouseDownState@nsTextInputSelectionImpl@@UAGIH@Z ; 2
??1nsPluginInstanceOwner@@UAE@XZ ; 2
?GetScrollPosition@nsGfxScrollFrame@@UBGIPAVnsIPresContext@@AAH1@Z ; 2
?AddRefAtoms@nsHTMLAtoms@@SAXXZ ; 1
?Blur@nsImageMap@@UAEIPAVnsIDOMEvent@@@Z ; 1
??1CircleArea@@UAE@XZ ; 1
?NS_NewPostDataStream@@YAIPAPAVnsIInputStream@@HPBDIPAVnsIIOService@@@Z ; 1
?QueryInterface@nsLayoutModule@@UAGIABUnsID@@PAPAX@Z ; 1
?RegenerateRowGroupInfo@nsXULTreeOuterGroupFrame@@QAEXH@Z ; 1
?NS_NewTreeBoxObject@@YAIPAPAVnsIBoxObject@@@Z ; 1
?GetBorderColor@nsHTMLFramesetFrame@@IAEIPAVnsIContent@@@Z ; 1
?SetCaretReadOnly@PresShell@@UAGIH@Z ; 1
??1nsHTMLFramesetFrame@@UAE@XZ ; 1
??_GCircleArea@@UAEPAXI@Z ; 1
?GetDesiredSize@nsHTMLFramesetFrame@@MAEXPAVnsIPresContext@@ABUnsHTMLReflowState@@AAUnsHTMLReflowMetrics@@@Z ; 1
?EnablePrefStyleRules@PresShell@@UAGIHE@Z ; 1
?Reflow@nsHTMLFramesetBorderFrame@@UAGIPAVnsIPresContext@@AAUnsHTMLReflowMetrics@@ABUnsHTMLReflowState@@AAI@Z ; 1
??_EnsPopupSetBoxObject@@UAEPAXI@Z ; 1
??_EnsHTMLFramesetBlankFrame@@MAEPAXI@Z ; 1
?CallOnChange@nsGfxTextControlFrame2@@UAGIXZ ; 1
?Reflow@nsHTMLFramesetFrame@@UAGIPAVnsIPresContext@@AAUnsHTMLReflowMetrics@@ABUnsHTMLReflowState@@AAI@Z ; 1
?GetScrollableView@nsScrollFrame@@UAGIPAVnsIPresContext@@PAPAVnsIScrollableView@@@Z ; 1
?InitFloater@nsBlockReflowState@@QAEXAAVnsLineLayout@@PAVnsPlaceholderFrame@@@Z ; 1
?Initialize@nsLayoutModule@@QAEIXZ ; 1
?GetBorderWidth@nsHTMLFramesetFrame@@IAEHPAVnsIPresContext@@@Z ; 1
?SetFullURL@nsObjectFrame@@IAEIPAVnsIURI@@@Z ; 1
?NotifyError@nsFrameImageLoader@@UAEXPAVnsIImageRequest@@W4nsImageError@@@Z ; 1
?RestoreState@nsComboboxControlFrame@@UAGIPAVnsIPresContext@@PAVnsIPresState@@@Z ; 1
?MouseUp@nsSliderMediator@@UAEIPAVnsIDOMEvent@@@Z ; 1
?Init@nsEditorBoxObject@@UAGIPAVnsIContent@@PAVnsIPresShell@@@Z ; 1
??0nsFramesetDrag@@QAE@XZ ; 1
??_EnsBorderColor@@QAEPAXI@Z ; 1
?QueryInterface@nsPresState@@UAGIABUnsID@@PAPAX@Z ; 1
?AddRefTable@nsCSSProps@@SAXXZ ; 1
??0nsLayoutModule@@QAE@XZ ; 1
??1nsEditorBoxObject@@UAE@XZ ; 1
?SetInstance@nsPluginInstanceOwner@@UAGIPAVnsIPluginInstance@@@Z ; 1
?InitFloater@nsLineLayout@@QAEXPAVnsPlaceholderFrame@@@Z ; 1
?RestoreStateInternal@nsListControlFrame@@UAGIPAVnsIPresContext@@PAVnsIPresState@@@Z ; 1
?SetDocument@nsEditorBoxObject@@UAGIPAVnsIDocument@@@Z ; 1
??0nsPopupSetBoxObject@@QAE@XZ ; 1
??1nsPopupSetBoxObject@@UAE@XZ ; 1
?GetEditorShell@nsEditorBoxObject@@UAGIPAPAVnsIEditorShell@@@Z ; 1
??1nsHTMLFramesetBlankFrame@@MAE@XZ ; 1
?GetDesiredSize@nsHTMLFramesetBlankFrame@@MAEXPAVnsIPresContext@@ABUnsHTMLReflowState@@AAUnsHTMLReflowMetrics@@@Z ; 1
?CreateWidget@nsPluginInstanceOwner@@UAGIXZ ; 1
?GetFramesetParent@nsHTMLFramesetFrame@@SAPAV1@PAVnsIFrame@@@Z ; 1
??_EDefaultArea@@UAEPAXI@Z ; 1
??0nsRepeatService@@IAE@XZ ; 1
?NS_NewEditorBoxObject@@YAIPAPAVnsIBoxObject@@@Z ; 1
?StopAutoScrollTimer@nsTextInputSelectionImpl@@UAGIXZ ; 1
?RemoveFloater@nsLineBox@@QAEHPAVnsIFrame@@@Z ; 1
?GetHistoryState@PresShell@@UAGIPAPAVnsILayoutHistoryState@@@Z ; 1
?GetTagType@nsPluginInstanceOwner@@UAGIPAW4nsPluginTagType@@@Z ; 1
?SetDisplayNonTextSelection@PresShell@@UAGIH@Z ; 1
?RemoveState@nsLayoutHistoryState@@UAGIIW4StateType@nsIStatefulFrame@@@Z ; 1
?SetImageAnimationMode@nsPresContext@@UAGIW4nsImageAnimation@@@Z ; 1
?GetFrameBorder@nsHTMLFramesetFrame@@IAE?AW4nsFrameborder@@PAVnsIContent@@H@Z ; 1
??0DefaultArea@@QAE@PAVnsIContent@@HH@Z ; 1
?NS_NewPopupSetBoxObject@@YAIPAPAVnsIBoxObject@@@Z ; 1
?ParseRowColSpec@nsHTMLFramesetFrame@@IAEHPAVnsIPresContext@@AAVnsString@@HPAUnsFramesetSpec@@@Z ; 1
?RemoveFrame@nsAbsoluteContainingBlock@@QAEIPAVnsIFrame@@PAVnsIPresContext@@AAVnsIPresShell@@PAVnsIAtom@@0@Z ; 1
?RemoveHorizontalScrollbar@nsGfxScrollFrameInner@@QAEHAAVnsBoxLayoutState@@AAUnsRect@@H@Z ; 1
?ReinstantiatePlugin@nsObjectFrame@@IAEIPAVnsIPresContext@@AAUnsHTMLReflowMetrics@@ABUnsHTMLReflowState@@@Z ; 1
?AttributeChanged@nsDeckFrame@@UAGIPAVnsIPresContext@@PAVnsIContent@@HPAVnsIAtom@@H@Z ; 1
?First@DrawSelectionIterator@@QAEHXZ ; 1
?RemoveOption@nsComboboxControlFrame@@UAGIPAVnsIPresContext@@H@Z ; 1
?AddRefAtoms@nsCSSAtoms@@SAXXZ ; 1
?GetDelayedCaretData@nsTextInputSelectionImpl@@UAGIPAPAUnsMouseEvent@@@Z ; 1
?NS_NewHTMLFramesetFrame@@YAIPAVnsIPresShell@@PAPAVnsIFrame@@@Z ; 1
?CreateWidget@nsObjectFrame@@QAEIPAVnsIPresContext@@HHH@Z ; 1
??_EnsHTMLFramesetFrame@@UAEPAXI@Z ; 1
??_EnsTreeBoxObject@@UAEPAXI@Z ; 1
??0nsHTMLFramesetFrame@@QAE@XZ ; 1
??0CircleArea@@QAE@PAVnsIContent@@HH@Z ; 1
?Focus@nsImageMap@@UAEIPAVnsIDOMEvent@@@Z ; 1
??0nsTreeBoxObject@@QAE@XZ ; 1
?HandleEvent@CanvasFrame@@UAGIPAVnsIPresContext@@PAUnsGUIEvent@@PAW4nsEventStatus@@@Z ; 1
?SetProperty@nsBoxObject@@UAGIPBG0@Z ; 1
??1nsTreeBoxObject@@UAE@XZ ; 1
?Cancel@DummyLayoutRequest@@UAGII@Z ; 1
?AddRefTable@nsCSSKeywords@@SAXXZ ; 1
?Initialize@nsTextTransformer@@SAIXZ ; 1
?AddRefAtoms@nsLayoutAtoms@@SAXXZ ; 1
?IndexChanged@nsDeckFrame@@MAEXPAVnsIPresContext@@@Z ; 1
?AddRefAtoms@nsXULAtoms@@SAXXZ ; 1
?HandleClick@nsTextInputSelectionImpl@@UAGIPAVnsIContent@@IIHHH@Z ; 1
??_EnsEditorBoxObject@@UAEPAXI@Z ; 1
_NSGetModule ; 1
??1DefaultArea@@UAE@XZ ; 1
?AdjustOffsetsFromStyle@nsTextInputSelectionImpl@@UAGIPAVnsIFrame@@PAHPAPAVnsIContent@@11@Z ; 1
??0LayoutScriptNameSet@@QAE@XZ ; 1
?RestoreState@nsListControlFrame@@UAGIPAVnsIPresContext@@PAVnsIPresState@@@Z ; 1
??0nsEditorBoxObject@@QAE@XZ ; 1
?GetCursor@nsHTMLFramesetFrame@@UAGIPAVnsIPresContext@@AAUnsPoint@@AAH@Z ; 1
?InstantiatePlugin@nsObjectFrame@@IAEIPAVnsIPresContext@@AAUnsHTMLReflowMetrics@@ABUnsHTMLReflowState@@PAUnsIPluginHost@@PBDPAVnsIURI@@@Z ; 1
?SetUserAgent@nsLayoutModule@@IAEXXZ ; 1
?Init@nsHTMLFramesetFrame@@UAGIPAVnsIPresContext@@PAVnsIContent@@PAVnsIFrame@@PAVnsIStyleContext@@2@Z ; 1
