_NS_CurrentThread ; 70136976
_NS_CheckThreadSafe ; 69317291
?LogAddRef@nsTraceRefcnt@@SAXPAXKPBDI@Z ; 51176084
?LogRelease@nsTraceRefcnt@@SAXPAXKPBD@Z ; 51030128
?Count@nsVoidArray@@QBEHXZ ; 24309313
?assign@?$nsCharTraits@G@@SAXAAGABG@Z ; 22333538
??0nsCOMPtr_helper@@QAE@XZ ; 16273844
??0nsCOMPtr_helper@@QAE@ABV0@@Z ; 16189529
??0nsQueryInterface@@QAE@PAVnsISupports@@PAI@Z ; 16177951
??0nsQueryInterface@@QAE@ABV0@@Z ; 16177951
??RnsQueryInterface@@UBEIABUnsID@@PAPAX@Z ; 16177951
?ElementAt@nsVoidArray@@QBEPAXH@Z ; 15305589
?get@?$nsReadingIterator@G@@QBEPBGXZ ; 14827356
?LogCtor@nsTraceRefcnt@@SAXPAXPBDI@Z ; 13591766
?LogDtor@nsTraceRefcnt@@SAXPAXPBDI@Z ; 13509482
?AddRef@AtomImpl@@UAGKXZ ; 12184576
?Release@AtomImpl@@UAGKXZ ; 12154316
?GetReadableFragment@nsString@@MBEPBGAAU?$nsReadableFragment@G@@W4nsFragmentRequest@@I@Z ; 10851608
?AddNullTerminator@@YAXAAUnsStr@@@Z ; 9833210
?Length@nsString@@UBEIXZ ; 8724980
??0nsStr@@QAE@XZ ; 8032806
??1nsStr@@QAE@XZ ; 8016872
?eq@?$nsCharTraits@G@@SAHABG0@Z ; 7935632
?Initialize@nsStr@@SAXAAU1@W4eCharSize@@@Z ; 7406514
??0?$nsPrivateSharableString@G@@QAE@XZ ; 5798886
??0?$basic_nsAReadableString@G@@QAE@XZ ; 5798886
??1?$basic_nsAReadableString@G@@UAE@XZ ; 5784668
?Free@nsStr@@CAHAAU1@@Z ; 5512427
?Destroy@nsStr@@SAXAAU1@@Z ; 5422789
?StrTruncate@nsStr@@SAXAAU1@I@Z ; 5382131
?NS_MIN@@YAABHABH0@Z ; 5155141
??0?$basic_nsAWritableString@G@@QAE@XZ ; 5021774
??1?$basic_nsAWritableString@G@@UAE@XZ ; 5007557
??1nsString@@UAE@XZ ; 5007557
?get@?$nsReadingIterator@D@@QBEPBDXZ ; 4991601
??0nsString@@QAE@XZ ; 4740131
??9@YAHABV?$nsReadingIterator@G@@0@Z ; 4660024
??0?$nsReadableFragment@G@@QAE@XZ ; 4572148
??0?$nsReadingIterator@G@@QAE@XZ ; 4572148
?normalize_forward@?$nsReadingIterator@G@@QAEXXZ ; 4497614
??0nsHashKey@@IAE@XZ ; 4474694
??1nsHashKey@@UAE@XZ ; 4465438
?Get@nsHashtable@@QAEPAXPAVnsHashKey@@@Z ; 4165413
??0nsHashtable@@QAE@IH@Z ; 4165413
?Equals@nsID@@QBEHABU1@@Z ; 4138068
?Initialize@nsStr@@SAXAAU1@PADIIW4eCharSize@@H@Z ; 4104355
?size_forward@?$nsWritingIterator@G@@QBEHXZ ; 4075913
?SetLength@nsString@@UAEXI@Z ; 4073144
?GetWritableFragment@nsString@@MAEPAGAAU?$nsWritableFragment@G@@W4nsFragmentRequest@@I@Z ; 4042925
??1nsAutoString@@UAE@XZ ; 3492037
?normalize_forward@?$nsWritingIterator@G@@QAEXXZ ; 3458128
?fragment@?$nsReadingIterator@G@@QBEABU?$nsReadableFragment@G@@XZ ; 3423268
??0nsAutoString@@QAE@XZ ; 3368157
?GetIID@nsIAtom@@SAABUnsID@@XZ ; 3329581
?QueryInterface@AtomImpl@@UAGIABUnsID@@PAPAX@Z ; 3329581
?GetIID@?$nsCOMTypeInfo@VnsIAtom@@@@SAABUnsID@@XZ ; 3329581
?size_forward@?$nsWritingIterator@D@@QBEHXZ ; 2537577
?BeginReading@?$basic_nsAReadableString@G@@QBEAAV?$nsReadingIterator@G@@AAV2@@Z ; 2475657
?EndReading@?$basic_nsAReadableString@G@@QBEAAV?$nsReadingIterator@G@@AAV2@@Z ; 2260517
??0nsHashtable@@QAE@IH@Z ; 2223619
?NS_MIN@@YAABIABI0@Z ; 2151785
??0?$nsWritingIterator@G@@QAE@XZ ; 2069084
??0?$nsWritableFragment@G@@QAE@XZ ; 2069084
?size_forward@?$nsReadingIterator@G@@QBEHXZ ; 2066676
?advance@?$nsWritingIterator@G@@QAEAAV1@H@Z ; 2054294
?BeginWriting@?$basic_nsAWritableString@G@@QAEAAV?$nsWritingIterator@G@@AAV2@@Z ; 2044009
?copy_string@@YAAAV?$nsWritingIterator@G@@AAV?$nsReadingIterator@G@@ABV2@AAV1@@Z ; 2043530
?advance@?$nsReadingIterator@G@@QAEAAV1@H@Z ; 1953867
?normalize_forward@?$nsWritingIterator@D@@QAEXXZ ; 1830936
?memset@nsCRT@@SAXPAXEI@Z ; 1799777
?GetReadableFragment@?$basic_nsLiteralString@D@@MBEPBDAAU?$nsReadableFragment@D@@W4nsFragmentRequest@@I@Z ; 1783461
?memcpy@nsCRT@@SAXPAXPBXI@Z ; 1648489
?GetReadableFragment@?$basic_nsLiteralString@G@@MBEPBGAAU?$nsReadableFragment@G@@W4nsFragmentRequest@@I@Z ; 1622845
?SameFragment@@YAHABV?$nsReadingIterator@G@@0@Z ; 1620619
?read@?$nsCharSourceTraits@V?$nsReadingIterator@G@@@@SAPBGABV?$nsReadingIterator@G@@@Z ; 1618620
?advance@?$nsCharSourceTraits@V?$nsReadingIterator@G@@@@SAXAAV?$nsReadingIterator@G@@H@Z ; 1618620
?readable_distance@?$nsCharSourceTraits@V?$nsReadingIterator@G@@@@SAIABV?$nsReadingIterator@G@@0@Z ; 1618620
?normalize_forward@?$nsReadingIterator@D@@QAEXXZ ; 1439345
??0?$nsReadableFragment@D@@QAE@XZ ; 1434019
??0?$nsReadingIterator@D@@QAE@XZ ; 1434019
?move@?$nsCharTraits@G@@SAPAGPAGPBGI@Z ; 1433260
??9@YAHABV?$nsReadingIterator@D@@0@Z ; 1427788
?GetWritableFragment@nsCString@@MAEPADAAU?$nsWritableFragment@D@@W4nsFragmentRequest@@I@Z ; 1426774
?fragment@?$nsReadingIterator@D@@QBEABU?$nsReadableFragment@D@@XZ ; 1423036
?advance@?$nsWritingIterator@D@@QAEAAV1@H@Z ; 1349857
?write@?$nsCharSinkTraits@V?$nsWritingIterator@G@@@@SAIAAV?$nsWritingIterator@G@@PBGI@Z ; 1330897
?write@?$nsWritingIterator@G@@QAEIPBGI@Z ; 1330897
?do_AssignFromReadable@?$basic_nsAWritableString@G@@MAEXABV?$basic_nsAReadableString@G@@@Z ; 1323718
?MinInt@@YAHHH@Z ; 1285202
?StrAppend@nsStr@@SAXAAU1@ABU1@IH@Z ; 1275113
?GetKeyType@nsHashKey@@QBE?AW4nsHashKeyType@1@XZ ; 1166567
?Count@nsSupportsArray@@UAGIPAI@Z ; 1154971
??AnsVoidArray@@QBEPAXH@Z ; 1151404
?FindChar1@@YAHPBDIHGHH@Z ; 1111723
??0?$basic_nsAReadableString@D@@QAE@XZ ; 1090938
??0?$nsPrivateSharableString@D@@QAE@XZ ; 1090938
??1?$basic_nsAReadableString@D@@UAE@XZ ; 1089221
?AssignFromReadable@?$basic_nsAWritableString@G@@IAEXABV?$basic_nsAReadableString@G@@@Z ; 1061476
?Assign@?$basic_nsAWritableString@G@@QAEXABV?$basic_nsAReadableString@G@@@Z ; 1061476
??4nsString@@QAEAAV0@ABV0@@Z ; 1033907
?Free@nsMemoryImpl@@UAGXPAX@Z ; 954215
?GetArraySize@nsVoidArray@@IBEHXZ ; 946874
?EnumerateForwards@nsSupportsArray@@UAGHP6AHPAVnsISupports@@PAX@Z1@Z ; 946386
?Length@nsCString@@UBEIXZ ; 943850
?Free@nsMemory@@SAXPAX@Z ; 934884
?InsertElementAt@nsVoidArray@@QAEHPAXH@Z ; 927073
?GetUnicode@nsString@@QBEPBGXZ ; 916720
?Alloc@nsMemoryImpl@@UAGPAXI@Z ; 878650
?AppendElement@nsVoidArray@@QAEHPAX@Z ; 862044
?strlen@nsCRT@@SAIPBD@Z ; 851072
?copy@?$nsCharTraits@G@@SAPAGPAGPBGI@Z ; 841006
?Alloc@nsMemory@@SAPAXI@Z ; 819486
?SetLength@nsCString@@UAEXI@Z ; 817387
?Compare2To1@@YAHPBD0IH@Z ; 812983
?GetParamCount@nsXPTMethodInfo@@QBEEXZ ; 795308
?Get@nsSupportsHashtable@@QAEPAVnsISupports@@PAVnsHashKey@@@Z ; 766298
?AddRef@nsSupportsArray@@UAGKXZ ; 737844
?ElementAt@nsSupportsArray@@UAGPAVnsISupports@@I@Z ; 736933
?Release@nsSupportsArray@@UAGKXZ ; 735470
?CopyChars2To2@@YAXPADHPBDII@Z ; 727705
?size_forward@?$nsReadingIterator@D@@QBEHXZ ; 723078
?advance@?$nsReadingIterator@D@@QAEAAV1@H@Z ; 721597
?BeginReading@?$basic_nsAReadableString@D@@QBEAAV?$nsReadingIterator@D@@AAV2@@Z ; 717749
?EndReading@?$basic_nsAReadableString@D@@QBEAAV?$nsReadingIterator@D@@AAV2@@Z ; 716270
?BeginWriting@?$basic_nsAWritableString@D@@QAEAAV?$nsWritingIterator@D@@AAV2@@Z ; 716141
??0?$nsWritingIterator@D@@QAE@XZ ; 716141
?copy_string@@YAAAV?$nsWritingIterator@D@@AAV?$nsReadingIterator@D@@ABV2@AAV1@@Z ; 716141
??0?$nsWritableFragment@D@@QAE@XZ ; 716141
?readable_distance@?$nsCharSourceTraits@V?$nsReadingIterator@D@@@@SAIABV?$nsReadingIterator@D@@0@Z ; 711518
?read@?$nsCharSourceTraits@V?$nsReadingIterator@D@@@@SAPBDABV?$nsReadingIterator@D@@@Z ; 711518
?SameFragment@@YAHABV?$nsReadingIterator@D@@0@Z ; 711518
?advance@?$nsCharSourceTraits@V?$nsReadingIterator@D@@@@SAXAAV?$nsReadingIterator@D@@H@Z ; 711518
?write@?$nsCharSinkTraits@V?$nsWritingIterator@D@@@@SAIAAV?$nsWritingIterator@D@@PBDI@Z ; 711391
?write@?$nsWritingIterator@D@@QAEIPBDI@Z ; 711391
?move@?$nsCharTraits@D@@SAPADPADPBDI@Z ; 711391
?IndexOf@nsVoidArray@@QBEHPAX@Z ; 707758
??0nsXPTType@@QAE@ABUXPTTypeDescriptorPrefix@@@Z ; 704125
?GetParam@nsXPTMethodInfo@@QBE?BVnsXPTParamInfo@@E@Z ; 704123
??0nsXPTParamInfo@@QAE@ABUXPTParamDescriptor@@@Z ; 704123
?GetType@nsXPTParamInfo@@QBE?BVnsXPTType@@XZ ; 704123
?StrCompare@nsStr@@SAHABU1@0HH@Z ; 663181
?Implementation@nsCString@@MBEPBXXZ ; 655492
?do_AppendFromReadable@nsCString@@UAEXABV?$basic_nsAReadableString@D@@@Z ; 641940
?SameImplementation@@YAHABV?$basic_nsAReadableString@D@@0@Z ; 641940
?do_AppendFromReadable@?$basic_nsAWritableString@D@@MAEXABV?$basic_nsAReadableString@D@@@Z ; 628388
?Implementation@?$basic_nsAReadableString@D@@UBEPBXXZ ; 628386
?GrowCapacity@nsStr@@SAHAAU1@I@Z ; 626332
?Alloc@nsStr@@CAHAAU1@I@Z ; 626332
?Realloc@nsStr@@CAHAAU1@I@Z ; 626332
?EnsureCapacity@nsStr@@SAHAAU1@I@Z ; 626332
?strncmp@nsCRT@@SAHPBGPBDI@Z ; 607040
??1?$basic_nsLiteralString@D@@UAE@XZ ; 594487
?Length@?$basic_nsLiteralString@D@@UBEIXZ ; 594487
?InsertElementAt@nsSupportsArray@@UAGHPAVnsISupports@@I@Z ; 590159
??0?$basic_nsLiteralString@D@@QAE@PBD@Z ; 584037
?length@?$nsCharTraits@D@@SAIPBD@Z ; 584037
?RemoveElementAt@nsVoidArray@@QAEHH@Z ; 574238
?do_AppendFromReadable@?$basic_nsAWritableString@G@@MAEXABV?$basic_nsAReadableString@G@@@Z ; 573399
?do_AppendFromElementPtr@?$basic_nsAWritableString@D@@MAEXPBD@Z ; 539903
?AppendElement@nsSupportsArray@@UAGIPAVnsISupports@@@Z ; 539544
?Length@?$basic_nsLiteralString@G@@UBEIXZ ; 537014
?GetCharAt@@YAGABUnsStr@@I@Z ; 534336
??1?$basic_nsLiteralString@G@@UAE@XZ ; 533731
?TagPart@nsXPTType@@QBEEXZ ; 518622
?strlen@nsCRT@@SAIPBG@Z ; 499316
?FindChar@nsStr@@SAHABU1@GHHH@Z ; 481054
?FindChar2@@YAHPBDIHGHH@Z ; 449588
?do_AppendFromElement@nsString@@UAEXG@Z ; 439837
?IsArrayOwner@nsVoidArray@@IBEHXZ ; 436854
??0?$basic_nsAWritableString@D@@QAE@XZ ; 416909
?strcmp@nsCRT@@SAHPBG0@Z ; 415966
??1nsCString@@UAE@XZ ; 415192
??1?$basic_nsAWritableString@D@@UAE@XZ ; 415192
??0nsCString@@QAE@XZ ; 405159
??0nsVoidArray@@QAE@XZ ; 401151
?CopyChars1To2@@YAXPADHPBDII@Z ; 391867
??1nsVoidArray@@UAE@XZ ; 389636
?GetIID@nsISupportsArray@@SAABUnsID@@XZ ; 387789
?GetIID@?$nsCOMTypeInfo@VnsISupportsArray@@@@SAABUnsID@@XZ ; 387788
?FindChar@nsString@@QBEHGHHH@Z ; 383855
?SetArrayOwner@nsVoidArray@@IAEXH@Z ; 381147
?SetArraySize@nsVoidArray@@IAEXH@Z ; 381147
?AppendWithConversion@nsString@@QAEXPBDH@Z ; 376952
??1nsCAutoString@@UAE@XZ ; 375144
?ns_if_addref@@YAKPAVnsISupports@@@Z ; 366008
?Compare2To2@@YAHPBD0IH@Z ; 362294
?vsmprintf@nsTextFormatter@@SAPAGPBGPAD@Z ; 361513
?Distance@@YAIABV?$nsReadingIterator@G@@0@Z ; 357402
?copy_string@@YAAAV?$CalculateLength@G@@AAV?$nsReadingIterator@G@@ABV2@AAV1@@Z ; 357402
??0?$CalculateLength@G@@QAE@XZ ; 357402
?GetDistance@?$CalculateLength@G@@QBEIXZ ; 357402
?Distance_Impl@@YAIABV?$nsReadingIterator@G@@0@Z ; 357402
?GetSize@nsDeque@@QBEHXZ ; 347753
?strncasecmp@nsCRT@@SAHPBG0I@Z ; 344371
?ObjectAt@nsDeque@@QBEPAXH@Z ; 333728
?EqualsWithConversion@nsString@@QBEHABV1@HH@Z ; 318986
?EqualsIgnoreCase@nsString@@QBEHABV1@@Z ; 318984
??BnsXPTType@@QBEEXZ ; 318781
?IsOut@nsXPTParamInfo@@QBEHXZ ; 312483
?do_QueryInterface@@YA?BVnsQueryInterface@@PAVnsISupports@@PAI@Z ; 310800
?IsPtrData@nsXPTCVariant@@QBEHXZ ; 299170
?GetReadableFragment@nsSlidingSubstring@@MBEPBGAAU?$nsReadableFragment@G@@W4nsFragmentRequest@@I@Z ; 299016
?Clear@nsVoidArray@@QAEXXZ ; 294139
?Clear@nsSupportsArray@@UAGIXZ ; 293300
??0nsAutoVoidArray@@QAE@XZ ; 289880
??1nsAutoVoidArray@@UAE@XZ ; 287862
?length@?$nsCharTraits@G@@SAIPBG@Z ; 287278
??0?$basic_nsLiteralString@G@@QAE@PBG@Z ; 286715
?StrAssign@nsStr@@SAXAAU1@ABU1@IH@Z ; 281973
??0nsString@@QAE@ABV0@@Z ; 273773
?get@?$nsCOMPtr@VnsProxyObject@@@@QBEPAV?$nsDerivedSafe@VnsProxyObject@@@@XZ ; 269293
?CompareWithConversion@nsString@@QBEHPBDHH@Z ; 268613
??D?$nsReadingIterator@G@@QBEGXZ ; 267452
?IsIn@nsXPTParamInfo@@QBEHXZ ; 266382
?zero@nsCRT@@SAXPAXI@Z ; 260977
?strncasecmp@nsCRT@@SAHPBGPBDI@Z ; 260015
?EqualsWithConversion@nsString@@QBEHPBDHH@Z ; 258647
?IsInterfacePointer@nsXPTType@@QBEHXZ ; 257626
?SetCapacity@nsString@@UAEXI@Z ; 256655
??0?$basic_nsLiteralString@G@@QAE@PBGI@Z ; 247016
?do_AppendFromElementPtrLength@?$basic_nsAWritableString@G@@MAEXPBGI@Z ; 243619
?get@?$nsCOMPtr@VnsProxyEventClass@@@@QBEPAV?$nsDerivedSafe@VnsProxyEventClass@@@@XZ ; 242856
??0nsISupports@@QAE@XZ ; 240041
?GetReadableFragment@?$basic_nsLiteralChar@D@@MBEPBDAAU?$nsReadableFragment@D@@W4nsFragmentRequest@@I@Z ; 238626
?strdup@nsCRT@@SAPADPBD@Z ; 238352
?get_refcount@?$nsSharedBufferHandle@G@@IBEIXZ ; 233542
??1NS_ConvertASCIItoUCS2@@UAE@XZ ; 233291
??0nsCAutoString@@QAE@XZ ; 230962
?GetUnicode@AtomImpl@@UAGIPAPBG@Z ; 229045
??0NS_ConvertASCIItoUCS2@@QAE@PBD@Z ; 227682
?RemoveElement@nsVoidArray@@QAEHPAX@Z ; 226283
??0nsAutoLockBase@@IAE@PAXW4nsAutoLockType@0@@Z ; 225956
??1nsAutoLockBase@@IAE@XZ ; 225954
??B?$nsCOMPtr@VnsProxyEventClass@@@@QBEPAV?$nsDerivedSafe@VnsProxyEventClass@@@@XZ ; 221386
?Append@?$basic_nsAWritableString@G@@QAEXPBGI@Z ; 217194
?ToString@AtomImpl@@UAGIAAV?$basic_nsAWritableString@G@@@Z ; 216659
?get@nsXPIDLCString@@QBEPBDXZ ; 210261
?write@?$nsCharSinkTraits@V?$CalculateLength@G@@@@SAIAAV?$CalculateLength@G@@PBGI@Z ; 209024
?write@?$CalculateLength@G@@QAEIPBGI@Z ; 209024
??BnsXPIDLCString@@QBEPBDXZ ; 208679
?set_refcount@?$nsSharedBufferHandle@G@@IAEII@Z ; 204587
?QueryReferent@nsWeakReference@@UAGIABUnsID@@PAPAX@Z ; 203757
??RnsQueryReferent@@UBEIABUnsID@@PAPAX@Z ; 203690
?GetClass@nsProxyEventObject@@QBEPAVnsProxyEventClass@@XZ ; 201781
?QueryInterface@nsSupportsArray@@UAGIABUnsID@@PAPAX@Z ; 201560
?Alloc@nsFixedSizeAllocator@@QAEPAXI@Z ; 193695
?get@?$nsCOMPtr@VnsIEventQueue@@@@QBEPAV?$nsDerivedSafe@VnsIEventQueue@@@@XZ ; 190862
?Push@nsDeque@@QAEAAV1@PAX@Z ; 188766
?Free@nsFixedSizeAllocator@@SAXPAXI@Z ; 186899
?free@nsCRT@@SAXPAD@Z ; 186445
??0nsICollection@@QAE@XZ ; 186070
??0nsSupportsArray@@QAE@XZ ; 186070
??0nsISupportsArray@@QAE@XZ ; 186070
?Create@nsSupportsArray@@SGIPAVnsISupports@@ABUnsID@@PAPAX@Z ; 186059
?NS_NewISupportsArray@@YAIPAPAVnsISupportsArray@@@Z ; 186017
??Y?$nsReadingIterator@G@@QAEAAV0@H@Z ; 184209
??1nsSupportsArray@@UAE@XZ ; 183695
?DeleteArray@nsSupportsArray@@IAEXXZ ; 183695
??_EnsSupportsArray@@UAEPAXI@Z ; 183685
?GetReadableFragment@nsCString@@MBEPBDAAU?$nsReadableFragment@D@@W4nsFragmentRequest@@I@Z ; 182298
?IsArithmetic@nsXPTType@@QBEHXZ ; 177268
??0nsAutoMonitor@@QAE@PAUPRMonitor@@@Z ; 171036
??1nsAutoMonitor@@QAE@XZ ; 171036
?NS_NewAtom@@YAPAVnsIAtom@@ABV?$basic_nsAReadableString@G@@@Z ; 171023
?do_AssignFromElementPtr@?$basic_nsAWritableString@G@@MAEXPBG@Z ; 168198
??0?$basic_nsPromiseFlatString@G@@QAE@ABV?$basic_nsAReadableString@G@@@Z ; 165528
??1?$basic_nsPromiseFlatString@G@@UAE@XZ ; 165528
?get@?$basic_nsPromiseFlatString@G@@QBEPBGXZ ; 165528
?assign_assuming_AddRef@nsCOMPtr_base@@IAEXPAVnsISupports@@@Z ; 165440
?get@?$nsCOMPtr@VnsIInterfaceInfo@@@@QBEPAV?$nsDerivedSafe@VnsIInterfaceInfo@@@@XZ ; 165050
?NS_NewAtom@@YAPAVnsIAtom@@ABV?$basic_nsAReadableString@G@@@Z ; 162652
?ns_if_addref@@YAKPAVAtomImpl@@@Z ; 162652
?NS_NewAtom@@YAPAVnsIAtom@@ABV?$basic_nsAReadableString@G@@@Z ; 159420
?Compare1To1@@YAHPBD0IH@Z ; 158621
??0GetterCopies@nsXPIDLCString@@QAE@AAV1@@Z ; 152329
?StartAssignmentByValue@nsXPIDLCString@@AAEPAPADXZ ; 152329
??BGetterCopies@nsXPIDLCString@@QAEPAPADXZ ; 152329
?get@?$nsCOMPtr@VnsISupports@@@@QBEPAV?$nsDerivedSafe@VnsISupports@@@@XZ ; 150973
??0nsIDKey@@QAE@ABUnsID@@@Z ; 147691
??0nsXPIDLCString@@QAE@XZ ; 147274
?HashCode@nsIDKey@@UBEIXZ ; 147154
??1nsIDKey@@UAE@XZ ; 146712
??1nsXPIDLCString@@UAE@XZ ; 145841
?Equals@nsIDKey@@UBEHPBVnsHashKey@@@Z ; 145147
?IsValid@xptiInterfaceInfo@@QBEHXZ ; 144091
?memmove@nsCRT@@SAXPAXPBXI@Z ; 142191
?GetFlags@xptiInterfaceInfo@@ABEAAVxptiInfoFlags@@XZ ; 141537
?GetStateMask@xptiInfoFlags@@SAEXZ ; 141423
?GetResolveState@xptiInterfaceInfo@@QBEEXZ ; 138880
?GetState@xptiInfoFlags@@QBEEXZ ; 138880
?AddRef@xptiInterfaceInfo@@UAGKXZ ; 137348
?IsAsciiSpace@nsCRT@@SAHG@Z ; 136093
?Release@xptiInterfaceInfo@@UAGKXZ ; 135874
?IsFullyResolved@xptiInterfaceInfo@@QBEHXZ ; 132351
?EnsureResolved@xptiInterfaceInfo@@AAEHPAVxptiWorkingSet@@@Z ; 132229
?IsAsciiAlpha@nsCRT@@SAHG@Z ; 129312
??4nsXPTType@@QAEAAV0@ABV0@@Z ; 128815
?Init@nsXPTCVariant@@QAEXABUnsXPTCMiniVariant@@ABVnsXPTType@@E@Z ; 128813
?assign_assuming_AddRef@?$nsCOMPtr@VnsProxyObject@@@@AAEXPAVnsProxyObject@@@Z ; 126793
??4Position@nsSharedBufferList@@QAEAAU01@ABV?$nsReadingIterator@G@@@Z ; 126617
?strcmp@nsCRT@@SAHPBD0@Z ; 124801
?assign_from_helper@nsCOMPtr_base@@QAEXABVnsCOMPtr_helper@@ABUnsID@@@Z ; 124764
?ToNewCString@nsCString@@QBEPADXZ ; 124615
?PopFront@nsDeque@@QAEPAXXZ ; 123474
?HashCode@nsCRT@@SAIPBDPAI@Z ; 120627
?HashCode@nsCStringKey@@UBEIXZ ; 120355
??1nsCStringKey@@UAE@XZ ; 119506
?memcmp@nsCRT@@SAHPAXPBXI@Z ; 117883
?AssignWithConversion@nsString@@QAEXPBD@Z ; 117877
?Append@?$basic_nsAWritableString@D@@QAEXPBD@Z ; 116938
??C?$nsCOMPtr@VnsProxyObject@@@@QBEPAV?$nsDerivedSafe@VnsProxyObject@@@@XZ ; 116022
??0nsCAutoString@@QAE@PBD@Z ; 112049
?Equals@nsCStringKey@@UBEHPBVnsHashKey@@@Z ; 111591
?GetIID@?$nsCOMTypeInfo@VnsIEventQueue@@@@SAABUnsID@@XZ ; 111460
?GetIID@nsIEventQueue@@SAABUnsID@@XZ ; 111460
??B?$nsCOMPtr@VnsProxyObject@@@@QBEPAV?$nsDerivedSafe@VnsProxyObject@@@@XZ ; 110997
?strncasecmp@nsCRT@@SAHPBD0I@Z ; 109919
?AddRef@nsWeakReference@@UAGKXZ ; 108961
?Release@nsWeakReference@@UAGKXZ ; 108325
??B?$nsCOMPtr@VnsIEventQueue@@@@QBEPAV?$nsDerivedSafe@VnsIEventQueue@@@@XZ ; 107772
??B?$nsCOMPtr@VnsIInterfaceInfo@@@@QBEPAV?$nsDerivedSafe@VnsIInterfaceInfo@@@@XZ ; 107424
?GetProxyType@nsProxyObject@@QBEHXZ ; 107391
?ChangeCase@nsStr@@SAXAAU1@H@Z ; 107200
?do_AppendFromElementPtr@?$basic_nsAWritableString@G@@MAEXPBG@Z ; 106714
?assign_assuming_AddRef@?$nsCOMPtr@VnsIEventQueue@@@@AAEXPAVnsIEventQueue@@@Z ; 106472
??1?$nsCOMPtr@VnsIEventQueue@@@@QAE@XZ ; 104846
?GetInterfaceInfo@nsProxyEventClass@@QBEPAVnsIInterfaceInfo@@XZ ; 103785
?GetReadableFragment@?$basic_nsLiteralChar@G@@MBEPBGAAU?$nsReadableFragment@G@@W4nsFragmentRequest@@I@Z ; 103452
?Length@nsSlidingSubstring@@UBEIXZ ; 102359
?AcquireNonOwningReference@Buffer@nsSharedBufferList@@QBEXXZ ; 102294
?Distance@Position@nsSharedBufferList@@SAHABU12@0@Z ; 102294
?ReleaseNonOwningReference@Buffer@nsSharedBufferList@@QBEXXZ ; 102293
?DiscardUnreferencedPrefix@nsSlidingSharedBufferList@@QAEXPAVBuffer@nsSharedBufferList@@@Z ; 102293
??B?$nsCOMPtr@VnsISupports@@@@QBEPAV?$nsDerivedSafe@VnsISupports@@@@XZ ; 101373
?CopyChars2To1@@YAXPADHPBDII@Z ; 94347
?GetMethodInfo@xptiInterfaceInfo@@UAGIGPAPBVnsXPTMethodInfo@@@Z ; 94159
?get@nsCString@@QBEPBDXZ ; 93338
?GetBuffer@nsCString@@QBEPBDXZ ; 93335
?GetGlobalServiceManager@nsServiceManager@@SAIPAPAVnsIServiceManager@@@Z ; 91222
?AddRef@nsEventQueueImpl@@UAGKXZ ; 90280
?Release@nsEventQueueImpl@@UAGKXZ ; 90173
?GetService@nsServiceManagerImpl@@UAGIABUnsID@@0PAPAVnsISupports@@PAVnsIShutdownListener@@@Z ; 89038
?AddListener@nsServiceEntry@@QAEIPAVnsIShutdownListener@@@Z ; 89034
?get@?$nsCOMPtr@VnsIFactory@@@@QBEPAV?$nsDerivedSafe@VnsIFactory@@@@XZ ; 88653
?Remove@nsHashtable@@QAEPAXPAVnsHashKey@@@Z ; 88304
?release_ownership_of_buffer_list@nsSlidingSubstring@@AAEXXZ ; 87106
??0Position@nsSharedBufferList@@QAE@PAVBuffer@1@PAG@Z ; 86736
?Trim@nsStr@@SAXAAU1@PBDHH@Z ; 86461
?AddRef@nsProxyObject@@UAGKXZ ; 84548
?Assert_NoQueryNeeded@?$nsCOMPtr@VnsProxyObject@@@@QAEXXZ ; 84519
?Release@nsProxyObject@@UAGKXZ ; 84519
??4?$nsCOMPtr@VnsProxyObject@@@@QAEAAV0@PAVnsProxyObject@@@Z ; 84519
?assign_with_AddRef@?$nsCOMPtr@VnsProxyObject@@@@AAEXPAVnsISupports@@@Z ; 84519
??1?$nsCOMPtr@VnsProxyObject@@@@QAE@XZ ; 84519
?GetIID@?$nsCOMTypeInfo@VnsIServiceManager@@@@SAABUnsID@@XZ ; 84315
?GetIID@nsIServiceManager@@SAABUnsID@@XZ ; 84315
?get@?$nsCOMPtr@VnsIServiceManager@@@@QBEPAV?$nsDerivedSafe@VnsIServiceManager@@@@XZ ; 84310
?assign_from_helper@?$nsCOMPtr@VnsIServiceManager@@@@AAEXABVnsCOMPtr_helper@@ABUnsID@@@Z ; 84308
??B?$nsCOMPtr@VnsIServiceManager@@@@QBEPAV?$nsDerivedSafe@VnsIServiceManager@@@@XZ ; 84308
??0?$nsCOMPtr@VnsIServiceManager@@@@QAE@ABVnsQueryInterface@@@Z ; 84308
?assign_assuming_AddRef@?$nsCOMPtr@VnsIServiceManager@@@@AAEXPAVnsIServiceManager@@@Z ; 84308
??1?$nsCOMPtr@VnsIServiceManager@@@@QAE@XZ ; 84308
??0nsAutoLockBase@@IAE@PAXW4nsAutoLockType@0@@Z ; 83781
?SetCapacity@nsCString@@UAEXI@Z ; 83734
?Pop@nsDeque@@QAEPAXXZ ; 82108
?GetBuffer@UnicharBufferImpl@@UBGPAGXZ ; 80365
?Read@ConverterInputStream@@UAGIPAGIIPAI@Z ; 80228
?Read@nsPersistentProperties@@QAEHXZ ; 79777
??0?$basic_nsLiteralChar@D@@QAE@D@Z ; 79542
?Length@?$basic_nsLiteralChar@D@@UBEIXZ ; 79542
??1?$basic_nsLiteralChar@D@@UAE@XZ ; 79542
?do_AppendFromElement@?$basic_nsAWritableString@D@@MAEXD@Z ; 79542
?copy_string@@YAAAPAGAAV?$nsReadingIterator@G@@ABV1@AAPAG@Z ; 78874
?write@?$nsCharSinkTraits@PAG@@SAIAAPAGPBGI@Z ; 78389
?get@?$nsCOMPtr@VnsIInterfaceRequestor@@@@QBEPAV?$nsDerivedSafe@VnsIInterfaceRequestor@@@@XZ ; 78363
?do_AssignFromReadable@?$basic_nsAWritableString@D@@MAEXABV?$basic_nsAReadableString@D@@@Z ; 77675
??E?$nsReadingIterator@G@@QAEAAV0@XZ ; 76659
?Cut@?$basic_nsAWritableString@G@@UAEXII@Z ; 74648
?size_backward@?$nsReadingIterator@G@@QBEHXZ ; 73291
?normalize_backward@?$nsReadingIterator@G@@QAEXXZ ; 73291
?NS_MAX@@YAABHABH0@Z ; 73291
?Put@nsHashtable@@QAEPAXPAVnsHashKey@@PAX@Z ; 72178
?GetIID@?$nsCOMTypeInfo@VnsISupports@@@@SAABUnsID@@XZ ; 71385
?AppendFromReadable@?$basic_nsAWritableString@G@@IAEXABV?$basic_nsAReadableString@G@@@Z ; 70834
?Append@?$basic_nsAWritableString@G@@QAEXABV?$basic_nsAReadableString@G@@@Z ; 70834
_PL_GetEventOwner ; 70528
?RefCountInInterfacePointers@nsProxyObjectCallInfo@@AAEXH@Z ; 70392
?GetProxyObject@nsProxyObjectCallInfo@@QBEPAVnsProxyObject@@XZ ; 70392
?AssignWithConversion@nsCString@@QAEXPBGH@Z ; 68878
?GetService@nsServiceManager@@SAIABUnsID@@0PAPAVnsISupports@@PAVnsIShutdownListener@@@Z ; 68740
?NS_GetGlobalComponentManager@@YAIPAPAVnsIComponentManager@@@Z ; 67671
?PL_HashTableFinalize@@YAXPAUPLHashTable@@@Z ; 67492
?AssignWithConversion@nsCString@@QAEXABVnsString@@@Z ; 66464
?GetProxiedIID@nsProxyEventClass@@QBEABUnsID@@XZ ; 66406
?get@?$nsCOMPtr@VnsPIEventQueueChain@@@@QBEPAV?$nsDerivedSafe@VnsPIEventQueueChain@@@@XZ ; 66331
??BnsCString@@QAEPADXZ ; 66021
?Append@?$basic_nsAWritableString@G@@QAEXG@Z ; 65702
?get@?$nsCOMPtr@VnsProxyEventObject@@@@QBEPAV?$nsDerivedSafe@VnsProxyEventObject@@@@XZ ; 65532
??0nsCStringKey@@QAE@PBDHW4Ownership@0@@Z ; 65528
??E?$nsReadingIterator@G@@QAE?AV0@H@Z ; 65438
?EqualsIgnoreCase@nsString@@QBEHPBDH@Z ; 65280
?Assert_NoQueryNeeded@?$nsCOMPtr@VnsIEventQueue@@@@QAEXXZ ; 64533
??1nsGetServiceByCID@@UAE@XZ ; 64355
??0nsGetServiceByCID@@QAE@ABUnsID@@PAVnsISupports@@PAI@Z ; 64355
??RnsGetServiceByCID@@UBEIABUnsID@@PAPAX@Z ; 64355
?QueryInterface@nsEventQueueImpl@@UAGIABUnsID@@PAPAX@Z ; 63954
?GetIID@nsIInterfaceInfo@@SAABUnsID@@XZ ; 63618
?GetIID@?$nsCOMTypeInfo@VnsIInterfaceInfo@@@@SAABUnsID@@XZ ; 63618
?Remove@nsSupportsHashtable@@QAEHPAVnsHashKey@@PAPAVnsISupports@@@Z ; 63036
?ConvertCase1@@YAHPADIH@Z ; 62581
??0nsAutoString@@QAE@ABV?$basic_nsAReadableString@G@@@Z ; 61884
?CopyChars1To1@@YAXPADHPBDII@Z ; 61073
??C?$nsCOMPtr@VnsIEventQueue@@@@QBEPAV?$nsDerivedSafe@VnsIEventQueue@@@@XZ ; 60818
??B?$nsCOMPtr@VnsPIEventQueueChain@@@@QBEPAV?$nsDerivedSafe@VnsPIEventQueueChain@@@@XZ ; 60778
??0?$nsCOMPtr@VnsIEventQueue@@@@QAE@XZ ; 58892
?DiscardPrefix@nsSlidingString@@QAEXABV?$nsReadingIterator@G@@@Z ; 58555
?FindCharInSet@nsStr@@SAHABU1@0HH@Z ; 58415
?PL_HashTableFinalize@@YAXPAUPLHashTable@@@Z ; 58246
?GetIID@?$nsCOMTypeInfo@VnsIEventQueueService@@@@SAABUnsID@@XZ ; 58147
?GetIID@nsIEventQueueService@@SAABUnsID@@XZ ; 58147
?get@nsXPIDLString@@QBEPBGXZ ; 57796
??BnsXPIDLString@@QBEPBGXZ ; 57793
?assign_assuming_AddRef@?$nsCOMPtr@VnsIInterfaceInfo@@@@AAEXPAVnsIInterfaceInfo@@@Z ; 57637
?ToNewUnicode@@YAPAGABV?$basic_nsAReadableString@G@@@Z ; 56686
?AllocateStringCopy@@YAPAGABV?$basic_nsAReadableString@G@@PAG@Z ; 56686
?ToLowerCase@nsCString@@QAEXXZ ; 56327
??0nsCStringKey@@QAE@ABVnsCString@@@Z ; 56263
?Stub3@nsXPTCStubBase@@UAGIXZ ; 55989
??1?$nsCOMPtr@VnsIInterfaceInfo@@@@QAE@XZ ; 55812
?GetIID@?$nsCOMTypeInfo@VnsIWeakReference@@@@SAABUnsID@@XZ ; 54527
?GetIID@nsIWeakReference@@SAABUnsID@@XZ ; 54527
?QueryInterface@nsWeakReference@@UAGIABUnsID@@PAPAX@Z ; 54324
?EqualsWithConversion@nsCString@@QBEHPBGHH@Z ; 53890
?CompareWithConversion@nsCString@@QBEHPBGHH@Z ; 53890
?Compare1To2@@YAHPBD0IH@Z ; 53890
?get@?$nsCOMPtr@VnsIOutputStream@@@@QBEPAV?$nsDerivedSafe@VnsIOutputStream@@@@XZ ; 53620
?Init@NS_ConvertUTF8toUCS2@@IAEXPBDI@Z ; 53415
??1NS_ConvertUTF8toUCS2@@UAE@XZ ; 53415
?Trim@nsString@@QAEXPBDHHH@Z ; 52935
??0nsAutoLock@@QAE@PAUPRLock@@@Z ; 52277
??1nsAutoLock@@QAE@XZ ; 52275
??B?$nsCOMPtr@VnsIInterfaceRequestor@@@@QBEPAV?$nsDerivedSafe@VnsIInterfaceRequestor@@@@XZ ; 52242
?AppendUnicodeTo@@YAXABV?$nsReadingIterator@G@@0AAV?$basic_nsAWritableString@G@@@Z ; 51777
?LookupLowercasedKeyword@@YAHABVnsCString@@PAVnsHashtable@@@Z ; 50339
?NextLine@ManifestLineReader@@QAEHXZ ; 50188
??0?$nsCppSharedAllocator@G@@QAE@XZ ; 49841
??1?$nsCppSharedAllocator@G@@QAE@XZ ; 49841
?GetElementAt@nsSupportsArray@@UAGIIPAPAVnsISupports@@@Z ; 49785
_XPTC_InvokeByIndex ; 49428
_XPTC_InvokeByIndex ; 49428
?IsPtrData@nsXPTCVariant@@QBEHXZ ; 49428
?GetSegmentCount@nsSegmentedBuffer@@QAEIXZ ; 48311
?normalize_backward@?$nsWritingIterator@G@@QAEXXZ ; 47948
?size_backward@?$nsWritingIterator@G@@QBEHXZ ; 47948
?assign_from_helper@?$nsCOMPtr@VnsIEventQueue@@@@AAEXABVnsCOMPtr_helper@@ABUnsID@@@Z ; 47506
?Write@FileImpl@@UAGIPBDIPAI@Z ; 47466
?PostEvent@nsEventQueueImpl@@UAG?AW4PRStatus@@PAUPLEvent@@@Z ; 46921
_PL_InitEvent ; 46625
_PL_DestroyEvent ; 46624
?strcasecmp@nsCRT@@SAHPBD0@Z ; 46369
?Append@?$basic_nsAWritableString@G@@QAEXPBG@Z ; 46212
??0nsAutoString@@QAE@PBG@Z ; 46212
?GetFactoryEntry@nsComponentManagerImpl@@IAEPAVnsFactoryEntry@@ABUnsID@@H@Z ; 45185
?IsAsciiDigit@nsCRT@@SAHG@Z ; 44666
?ConvertCase2@@YAHPADIH@Z ; 44619
?FindFactory@nsComponentManagerImpl@@UAGIABUnsID@@PAPAVnsIFactory@@@Z ; 44436
??B?$nsCOMPtr@VnsIFactory@@@@QBEPAV?$nsDerivedSafe@VnsIFactory@@@@XZ ; 44433
?GetFactory@nsFactoryEntry@@QAEIPAPAVnsIFactory@@PAVnsComponentManagerImpl@@@Z ; 44432
?CreateInstance@nsComponentManagerImpl@@UAGIABUnsID@@PAVnsISupports@@0PAPAX@Z ; 44409
?do_AssignFromElementPtr@?$basic_nsAWritableString@D@@MAEXPBD@Z ; 44134
?Lookup@nsStaticCaseInsensitiveNameTable@@QAEHABVnsString@@@Z ; 44086
??1nsSlidingSubstring@@UAE@XZ ; 43745
?acquire_ownership_of_buffer_list@nsSlidingSubstring@@ABEXXZ ; 43739
?AcquireReference@nsSlidingSharedBufferList@@QAEXXZ ; 43739
?ReleaseReference@nsSlidingSharedBufferList@@QAEXXZ ; 43738
??0?$nsPromiseReadable@G@@QAE@XZ ; 43369
??_DnsSlidingSubstring@@QAEXXZ ; 43368
??0nsSlidingSubstring@@QAE@XZ ; 43368
??1?$nsPromiseReadable@G@@UAE@XZ ; 43368
?Assign@?$basic_nsAWritableString@D@@QAEXPBD@Z ; 42347
?assign_with_AddRef@?$nsCOMPtr@VnsIEventQueue@@@@AAEXPAVnsISupports@@@Z ; 42338
??4?$nsCOMPtr@VnsIEventQueue@@@@QAEAAV0@PAVnsIEventQueue@@@Z ; 42338
?QueryInterface@nsProxyObject@@UAGIABUnsID@@PAPAX@Z ; 42274
?GetIID@nsProxyObject@@SAABUnsID@@XZ ; 42274
??0?$nsCOMPtr@VnsProxyObject@@@@QAE@ABVnsQueryInterface@@@Z ; 42274
??0?$nsCOMPtr@VnsProxyObject@@@@QAE@XZ ; 42274
?GetIID@?$nsCOMTypeInfo@VnsProxyObject@@@@SAABUnsID@@XZ ; 42274
?assign_from_helper@?$nsCOMPtr@VnsProxyObject@@@@AAEXABVnsCOMPtr_helper@@ABUnsID@@@Z ; 42274
??B?$nsCOMPtr@VnsProxyEventObject@@@@QBEPAV?$nsDerivedSafe@VnsProxyEventObject@@@@XZ ; 41717
??0?$nsCOMPtr@VnsIEventQueue@@@@QAE@ABVnsQueryInterface@@@Z ; 40416
??0NS_ConvertUTF8toUCS2@@QAE@PBDI@Z ; 40109
?ToLowerCase@nsString@@QAEXXZ ; 40107
?Clone@nsMemory@@SAPAXPBXI@Z ; 39204
?ContractIDToClassID@nsComponentManagerImpl@@UAGIPBDPAUnsID@@@Z ; 38614
?ToInteger@nsString@@QBEHPAHI@Z ; 37007
?GetRealObject@nsProxyObject@@QBEPAVnsISupports@@XZ ; 36999
?HashCode@nsCRT@@SAIPBGPAI@Z ; 35816
?QueryInterface@xptiInterfaceInfo@@UAGIABUnsID@@PAPAX@Z ; 35712
?ModSegArraySize@nsSegmentedBuffer@@IAEHH@Z ; 35437
?FindCharInSet@nsString@@QBEHPBDH@Z ; 35354
?CallMethod@nsProxyEventObject@@UAGIGPBVnsXPTMethodInfo@@PAUnsXPTCMiniVariant@@@Z ; 35196
?IsNotXPCOM@nsXPTMethodInfo@@QBEHXZ ; 35196
?GetMethodIndex@nsProxyObjectCallInfo@@QBEIXZ ; 35196
?convertMiniVariantToVariant@nsProxyObject@@AAEIPAVnsXPTMethodInfo@@PAUnsXPTCMiniVariant@@PAPAUnsXPTCVariant@@PAE@Z ; 35196
??_EnsProxyObjectCallInfo@@UAEPAXI@Z ; 35196
??0nsProxyObjectCallInfo@@QAE@PAVnsProxyObject@@PAVnsXPTMethodInfo@@IPAUnsXPTCVariant@@IPAUPLEvent@@@Z ; 35196
?Post@nsProxyObject@@QAEIIPAVnsXPTMethodInfo@@PAUnsXPTCMiniVariant@@PAVnsIInterfaceInfo@@@Z ; 35196
?IsNotXPCOM@nsXPTMethodInfo@@QBEHXZ ; 35196
?SetResult@nsProxyObjectCallInfo@@QAEXI@Z ; 35196
?IsNotXPCOM@nsXPTMethodInfo@@QBEHXZ ; 35196
??1nsProxyObjectCallInfo@@UAE@XZ ; 35196
?GetParameterCount@nsProxyObjectCallInfo@@QBEIXZ ; 35196
?GetParameterList@nsProxyObjectCallInfo@@QBEPAUnsXPTCVariant@@XZ ; 35196
?CopyStrings@nsProxyObjectCallInfo@@AAEXH@Z ; 34898
??1?$basic_nsLiteralChar@G@@UAE@XZ ; 34484
??0?$basic_nsLiteralChar@G@@QAE@G@Z ; 34484
?Length@?$basic_nsLiteralChar@G@@UBEIXZ ; 34484
?AddRef@FileImpl@@UAGKXZ ; 34404
?Release@FileImpl@@UAGKXZ ; 34403
?strndup@nsCRT@@SAPAGPBGI@Z ; 34205
?strdup@nsCRT@@SAPAGPBG@Z ; 34205
?allocate@?$nsCppSharedAllocator@G@@QAEPAGIPBX@Z ; 34205
?Rebind@nsSlidingSubstring@@QAEXABVnsSlidingString@@ABV?$nsReadingIterator@G@@1@Z ; 34031
?GetInterfaceInfo@nsProxyEventObject@@UAGIPAPAVnsIInterfaceInfo@@@Z ; 33393
?AddRef@nsEventQueueServiceImpl@@UAGKXZ ; 33071
?QueryInterface@nsEventQueueServiceImpl@@UAGIABUnsID@@PAPAX@Z ; 33069
?Release@nsEventQueueServiceImpl@@UAGKXZ ; 33038
?FindSubstr@nsStr@@SAHABU1@0HHH@Z ; 32898
?AddRef@nsProxyEventObject@@UAGKXZ ; 32869
?Release@nsProxyEventObject@@UAGKXZ ; 32815
??0nsVoidKey@@QAE@PAX@Z ; 31651
?HashCode@nsVoidKey@@UBEIXZ ; 31647
??1nsVoidKey@@UAE@XZ ; 31641
?Equals@nsVoidKey@@UBEHPBVnsHashKey@@@Z ; 31623
?Enumerate@nsHashtable@@QAEXP6AHPAVnsHashKey@@PAX1@Z1@Z ; 30524
??C?$nsCOMPtr@VnsIOutputStream@@@@QBEPAV?$nsDerivedSafe@VnsIOutputStream@@@@XZ ; 30411
?GetInfoCount@xptiTypelibGuts@@QBEGXZ ; 30396
?Assign@?$basic_nsAWritableString@G@@QAEXPBG@Z ; 30159
?GetMonitor@nsPipe@@QAEPAUPRMonitor@@XZ ; 29885
?Assert_NoQueryNeeded@?$nsCOMPtr@VnsIInterfaceInfo@@@@QAEXXZ ; 29720
??C?$nsCOMPtr@VnsIInterfaceInfo@@@@QBEPAV?$nsDerivedSafe@VnsIInterfaceInfo@@@@XZ ; 29720
??0GetterCopies@nsXPIDLString@@QAE@AAV1@@Z ; 29262
??BGetterCopies@nsXPIDLString@@QAEPAPAGXZ ; 29262
?StartAssignmentByValue@nsXPIDLString@@AAEPAPAGXZ ; 29262
??0nsCAutoString@@QAE@ABVCBufDescriptor@@@Z ; 29218
??0CBufDescriptor@@QAE@PADHIH@Z ; 29191
?assign_with_AddRef@nsCOMPtr_base@@QAEXPAVnsISupports@@@Z ; 29144
?GetIID@nsProxyEventObject@@SAABUnsID@@XZ ; 29085
_PL_GetEvent ; 29044
_PL_PostEvent ; 28963
_PL_HandleEvent ; 28961
?IsReferenced@?$nsSharedBufferHandle@G@@QBEHXZ ; 28955
?Length@nsSimpleCharString@@QBEIXZ ; 28653
?CreateInstance@nsComponentManager@@SAIABUnsID@@PAVnsISupports@@0PAPAX@Z ; 28582
?AddRef@nsProxyEventClass@@UAGKXZ ; 28421
?GetIID@nsProxyEventClass@@SAABUnsID@@XZ ; 28410
?GetIID@?$nsCOMTypeInfo@VnsProxyEventClass@@@@SAABUnsID@@XZ ; 28410
??1?$nsCOMPtr@VnsProxyEventClass@@@@QAE@XZ ; 28381
?Release@nsProxyEventClass@@UAGKXZ ; 28381
?GetFileAt@xptiWorkingSet@@QBEAAVxptiFile@@I@Z ; 27965
?StartAssignment@?$nsCOMPtr@VnsIInterfaceInfo@@@@QAEPAPAVnsIInterfaceInfo@@XZ ; 27906
??0?$nsGetterAddRefs@VnsIInterfaceInfo@@@@QAE@AAV?$nsCOMPtr@VnsIInterfaceInfo@@@@@Z ; 27906
?getter_AddRefs@@YA?AV?$nsGetterAddRefs@VnsIInterfaceInfo@@@@AAV?$nsCOMPtr@VnsIInterfaceInfo@@@@@Z ; 27906
??1?$nsGetterAddRefs@VnsIInterfaceInfo@@@@QAE@XZ ; 27906
??0?$nsCOMPtr@VnsIInterfaceInfo@@@@QAE@ABVnsQueryInterface@@@Z ; 27906
??B?$nsGetterAddRefs@VnsIInterfaceInfo@@@@QAEPAPAVnsIInterfaceInfo@@XZ ; 27906
?assign_from_helper@?$nsCOMPtr@VnsIInterfaceInfo@@@@AAEXABVnsCOMPtr_helper@@ABUnsID@@@Z ; 27906
??0nsXPIDLString@@QAE@XZ ; 27898
??1nsXPIDLString@@UAE@XZ ; 27897
??0nsCOMPtr_base@@QAE@PAVnsISupports@@@Z ; 27778
??1?$nsCOMPtr@VnsISupports@@@@QAE@XZ ; 27749
?AddRef@nsPipe@@UAGKXZ ; 27079
?Release@nsPipe@@UAGKXZ ; 27066
?Compact@nsSupportsArray@@UAGIXZ ; 26590
?get@?$nsWritingIterator@G@@QBEPAGXZ ; 26553
?GetIID@nsIInterfaceRequestor@@SAABUnsID@@XZ ; 26154
?GetIID@?$nsCOMTypeInfo@VnsIInterfaceRequestor@@@@SAABUnsID@@XZ ; 26154
??RnsGetInterface@@UBEIABUnsID@@PAPAX@Z ; 26137
??1?$nsCOMPtr@VnsIInterfaceRequestor@@@@QAE@XZ ; 26121
?assign_assuming_AddRef@?$nsCOMPtr@VnsIInterfaceRequestor@@@@AAEXPAVnsIInterfaceRequestor@@@Z ; 26121
??C?$nsCOMPtr@VnsIInterfaceRequestor@@@@QBEPAV?$nsDerivedSafe@VnsIInterfaceRequestor@@@@XZ ; 26121
?assign_from_helper@?$nsCOMPtr@VnsIInterfaceRequestor@@@@AAEXABVnsCOMPtr_helper@@ABUnsID@@@Z ; 26121
??0?$nsCOMPtr@VnsIInterfaceRequestor@@@@QAE@ABVnsQueryInterface@@@Z ; 26121
??0?$nsCOMPtr@VnsIInterfaceInfo@@@@QAE@XZ ; 26103
?Get@nsInt2StrHashtable@@QAEPADI@Z ; 26084
?ToUpper@nsCRT@@SAGG@Z ; 25896
_PL_IsQueueOnCurrentThread ; 25726
??4nsCString@@QAEAAV0@PBD@Z ; 25662
?assign_assuming_AddRef@?$nsCOMPtr@VnsProxyEventObject@@@@AAEXPAVnsProxyEventObject@@@Z ; 25615
?First@?$basic_nsAReadableString@G@@QBEGXZ ; 25343
?IsEmpty@?$basic_nsAReadableString@G@@QBEHXZ ; 25343
?Last@?$basic_nsAReadableString@G@@QBEGXZ ; 25343
?GetIID@xptiInterfaceInfo@@UAGIPAPAUnsID@@@Z ; 25326
?assign_assuming_AddRef@?$nsCOMPtr@VnsIEventQueueService@@@@AAEXPAVnsIEventQueueService@@@Z ; 25078
?assign_from_helper@?$nsCOMPtr@VnsIEventQueueService@@@@AAEXABVnsCOMPtr_helper@@ABUnsID@@@Z ; 25078
??1?$nsCOMPtr@VnsIEventQueueService@@@@QAE@XZ ; 25049
??BnsCString@@QBEPBDXZ ; 24973
?CompressSet@nsStr@@SAXAAU1@PBDHH@Z ; 24950
?IsQueueOnCurrentThread@nsEventQueueImpl@@UAGIPAH@Z ; 24796
?IsZip@xptiTypelib@@QBEHXZ ; 24630
?EndWriting@?$basic_nsAWritableString@G@@QAEAAV?$nsWritingIterator@G@@AAV2@@Z ; 24324
?FindChar@nsCString@@QBEHGHHH@Z ; 24145
?strncmp@nsCRT@@SAHPBG0I@Z ; 24096
??0?$nsCOMPtr@VnsISupports@@@@QAE@XZ ; 24073
?copy_string_backward@@YAAAV?$nsWritingIterator@G@@ABV?$nsReadingIterator@G@@AAV2@AAV1@@Z ; 23974
?do_InsertFromReadable@?$basic_nsAWritableString@G@@MAEXABV?$basic_nsAReadableString@G@@I@Z ; 23974
?GetFileIndex@xptiTypelib@@QBEGXZ ; 23953
?GetGuts@xptiFile@@QAEPAVxptiTypelibGuts@@XZ ; 23893
?GetInfoAtNoAddRef@xptiTypelibGuts@@QAEPAVxptiInterfaceInfo@@G@Z ; 23732
?do_InsertFromElement@?$basic_nsAWritableString@G@@MAEXGI@Z ; 23654
?Insert@?$basic_nsAWritableString@G@@QAEXGI@Z ; 23651
?Truncate@?$basic_nsAWritableString@G@@QAEXI@Z ; 23651
?GetSegmentSize@nsSegmentedBuffer@@QAEIXZ ; 23334
?FindCharInSet@nsCString@@QBEHPBDH@Z ; 23061
?ContractIDToClassID@nsComponentManager@@SAIPBDPAUnsID@@@Z ; 23025
?GetTypelibGuts@xptiWorkingSet@@QAEPAVxptiTypelibGuts@@ABVxptiTypelib@@@Z ; 22584
?GetInfoForParam@xptiInterfaceInfo@@UAGIGPBVnsXPTParamInfo@@PAPAVnsIInterfaceInfo@@@Z ; 22533
?GetIIDForParam@xptiInterfaceInfo@@UAGIGPBVnsXPTParamInfo@@PAPAUnsID@@@Z ; 22464
?GetService@nsServiceManager@@SAIPBDABUnsID@@PAPAVnsISupports@@PAVnsIShutdownListener@@@Z ; 22048
?GetService@nsServiceManagerImpl@@UAGIPBDABUnsID@@PAPAVnsISupports@@PAVnsIShutdownListener@@@Z ; 22048
??1NS_ConvertUCS2toUTF8@@UAE@XZ ; 21983
?Append@NS_ConvertUCS2toUTF8@@IAEXPBGI@Z ; 21979
?DataLength@?$nsBufferHandle@G@@QBEHXZ ; 21794
?Assert_NoQueryNeeded@?$nsCOMPtr@VnsProxyEventClass@@@@QAEXXZ ; 21254
?assign_assuming_AddRef@?$nsCOMPtr@VnsProxyEventClass@@@@AAEXPAVnsProxyEventClass@@@Z ; 21254
?Promises@?$basic_nsAReadableString@D@@UBEHABV1@@Z ; 20858
?CopyUnicodeTo@@YAXABV?$nsReadingIterator@G@@0AAV?$basic_nsAWritableString@G@@@Z ; 20739
??4nsString@@QAEAAV0@PBG@Z ; 20335
?Equals@nsSupportsArray@@UAGHPBVnsISupportsArray@@@Z ; 20327
?GetStringValue@nsStaticCaseInsensitiveNameTable@@QAEABVnsCString@@H@Z ; 20245
??1?$nsCOMPtr@VnsProxyEventObject@@@@QAE@XZ ; 20215
?CalculateAllocLength@@YAII@Z ; 20212
?PointTo@Position@nsSharedBufferList@@QAEXPAVBuffer@2@PAG@Z ; 20192
??C?$nsCOMPtr@VnsProxyEventObject@@@@QBEPAV?$nsDerivedSafe@VnsProxyEventObject@@@@XZ ; 19983
??RnsGetServiceByContractID@@UBEIABUnsID@@PAPAX@Z ; 19952
??1nsGetServiceByContractID@@UAE@XZ ; 19952
??0nsGetServiceByContractID@@QAE@PBDPAVnsISupports@@PAI@Z ; 19952
?GetSegment@nsSegmentedBuffer@@QAEPADI@Z ; 19425
?GetIID@?$nsCOMTypeInfo@VnsIOutputStream@@@@SAABUnsID@@XZ ; 19175
?GetIID@nsIOutputStream@@SAABUnsID@@XZ ; 19175
??0nsDeque@@QAE@PAVnsDequeFunctor@@@Z ; 19000
?Empty@nsDeque@@QAEAAV1@XZ ; 18975
?Erase@nsDeque@@QAEAAV1@XZ ; 18975
??1nsDeque@@QAE@XZ ; 18975
?CompareWithConversion@nsCString@@QBEHPBDHH@Z ; 18906
?get@?$nsCOMPtr@VnsISupportsWeakReference@@@@QBEPAV?$nsDerivedSafe@VnsISupportsWeakReference@@@@XZ ; 18902
?GetIID@?$nsCOMTypeInfo@VnsIInputStream@@@@SAABUnsID@@XZ ; 18893
?GetIID@nsIInputStream@@SAABUnsID@@XZ ; 18893
?MaxInt@@YAHHH@Z ; 18523
?GetIID@?$nsCOMTypeInfo@VnsPIEventQueueChain@@@@SAABUnsID@@XZ ; 18254
?GetIID@nsPIEventQueueChain@@SAABUnsID@@XZ ; 18254
?get@?$nsCOMPtr@VnsIEventQueueService@@@@QBEPAV?$nsDerivedSafe@VnsIEventQueueService@@@@XZ ; 18182
?QueryInterface@nsProxyEventObject@@UAGIABUnsID@@PAPAX@Z ; 18175
??B?$nsCOMPtr@VnsIOutputStream@@@@QBEPAV?$nsDerivedSafe@VnsIOutputStream@@@@XZ ; 18174
?write@nsOutputStream@@QAEHPBXH@Z ; 18149
?AddRef@nsLocalFile@@UAGKXZ ; 17798
??0nsAutoLockBase@@IAE@PAXW4nsAutoLockType@0@@Z ; 17781
?PostCompleted@nsProxyObjectCallInfo@@QAEXXZ ; 17747
?SetCompleted@nsProxyObjectCallInfo@@QAEXXZ ; 17747
?GetResult@nsProxyObjectCallInfo@@QBEIXZ ; 17747
?Release@nsLocalFile@@UAGKXZ ; 17640
?CompressSet@nsString@@QAEXPBDGHH@Z ; 17621
?ReplaceChar@nsString@@QAEXPBDG@Z ; 17621
?CompressChars2@@YAHPADIPBD@Z ; 17621
?CompressWhitespace@nsString@@QAEXHH@Z ; 17621
??0nsAutoLockBase@@IAE@PAXW4nsAutoLockType@0@@Z ; 17484
?GetReadSegment@nsPipe@@QAEIIPAPBDPAI@Z ; 17397
?AddRef@nsGenericFactory@@UAGKXZ ; 17013
?ToNewCString@nsString@@QBEPADXZ ; 16972
??1?$nsGetterAddRefs@VnsIEventQueue@@@@QAE@XZ ; 16618
??B?$nsGetterAddRefs@VnsIEventQueue@@@@QAEPAPAVnsIEventQueue@@XZ ; 16618
?getter_AddRefs@@YA?AV?$nsGetterAddRefs@VnsIEventQueue@@@@AAV?$nsCOMPtr@VnsIEventQueue@@@@@Z ; 16618
??0?$nsGetterAddRefs@VnsIEventQueue@@@@QAE@AAV?$nsCOMPtr@VnsIEventQueue@@@@@Z ; 16618
?StartAssignment@?$nsCOMPtr@VnsIEventQueue@@@@QAEPAPAVnsIEventQueue@@XZ ; 16618
?Release@nsGenericFactory@@UAGKXZ ; 16602
?AddRef@nsPipeOutputStream@nsPipe@@UAGKXZ ; 16571
?Release@nsPipeOutputStream@nsPipe@@UAGKXZ ; 16564
??0?$nsCOMPtr@VnsProxyEventObject@@@@QAE@XZ ; 16383
?GetInstance@nsProxyObjectManager@@SAPAV1@XZ ; 16078
?GetStringProperty@nsPersistentProperties@@UAGIABVnsString@@AAV2@@Z ; 15973
??0nsPersistentProperties@@QAE@XZ ; 15892
?CreateInstance@nsGenericFactory@@UAGIPAVnsISupports@@ABUnsID@@PAPAX@Z ; 15744
?RemoveElementAt@nsSupportsArray@@UAGHI@Z ; 15719
?deallocate@?$nsCppSharedAllocator@G@@QAEXPAGI@Z ; 15636
?free@nsCRT@@SAXPAG@Z ; 15636
?CreateInstanceByContractID@nsComponentManagerImpl@@UAGIPBDPAVnsISupports@@ABUnsID@@PAPAX@Z ; 15589
?CreateInstance@nsComponentManager@@SAIPBDPAVnsISupports@@ABUnsID@@PAPAX@Z ; 15576
?QueryElementAt@nsSupportsArray@@UAGIIABUnsID@@PAPAX@Z ; 15500
??0nsAutoLockBase@@IAE@PAXW4nsAutoLockType@0@@Z ; 15469
_NS_QuickSort ; 15368
?ReadSegments@nsPipeInputStream@nsPipe@@UAGIP6GIPAVnsIInputStream@@PAXPBDIIPAI@Z1I3@Z ; 15355
?AppendWithConversion@nsString@@QAEXD@Z ; 15349
?Write@nsStorageStream@@UAGIPBDIPAI@Z ; 15265
?Find@nsString@@QBEHPBDHHH@Z ; 14912
?do_GetService@@YA?BVnsGetServiceByCID@@ABUnsID@@PAI@Z ; 14899
?vsmprintf@nsTextFormatter@@SAPAGPBGPAD@Z ; 14867
?vsmprintf@nsTextFormatter@@SAPAGPBGPAD@Z ; 14867
?vsmprintf@nsTextFormatter@@SAPAGPBGPAD@Z ; 14865
?vsmprintf@nsTextFormatter@@SAPAGPBGPAD@Z ; 14865
?vsmprintf@nsTextFormatter@@SAPAGPBGPAD@Z ; 14727
?smprintf@nsTextFormatter@@SAPAGPBGZZ ; 14727
?Assert_NoQueryNeeded@?$nsCOMPtr@VnsProxyEventObject@@@@QAEXXZ ; 14705
?ToNewUnicode@nsString@@QBEPAGXZ ; 14435
??0NS_ConvertUCS2toUTF8@@QAE@PBG@Z ; 14407
??0?$nsCOMPtr@VnsProxyEventClass@@@@QAE@ABVnsQueryInterface@@@Z ; 14205
?assign_from_helper@?$nsCOMPtr@VnsProxyEventClass@@@@AAEXABVnsCOMPtr_helper@@ABUnsID@@@Z ; 14205
?QueryInterface@nsProxyEventClass@@UAGIABUnsID@@PAPAX@Z ; 14205
??4?$nsCOMPtr@VnsISupports@@@@QAEAAV0@PAVnsISupports@@@Z ; 14129
?QueryInterface@nsPipe@@UAGIABUnsID@@PAPAX@Z ; 14082
?ReplaceElementAt@nsVoidArray@@QAEHPAXH@Z ; 13895
?Recycle@@YAXPAD@Z ; 13608
??0NS_ConvertUTF8toUCS2@@QAE@PBD@Z ; 13306
?GetIID@?$nsCOMTypeInfo@VnsILocalFile@@@@SAABUnsID@@XZ ; 13264
?GetIID@nsILocalFile@@SAABUnsID@@XZ ; 13264
?GetErrorStringBundle@nsErrorService@@UAGIFPAPAD@Z ; 13042
?GetErrorStringBundleKey@nsErrorService@@UAGIIPAPAD@Z ; 13042
??4nsAutoString@@QAEAAV0@ABV0@@Z ; 12850
?GetOutputStream@nsPipe@@QAEPAVnsPipeOutputStream@1@XZ ; 12832
??B?$nsCOMPtr@VnsISupportsWeakReference@@@@QBEPAV?$nsDerivedSafe@VnsISupportsWeakReference@@@@XZ ; 12708
?Assert_NoQueryNeeded@?$nsCOMPtr@VnsIEventQueueService@@@@QAEXXZ ; 12539
??0?$nsCOMPtr@VnsIEventQueueService@@@@QAE@ABVnsQueryInterface@@@Z ; 12539
?ToNewUTF8String@nsString@@QBEPADXZ ; 11896
?NS_NewAtom@@YAPAVnsIAtom@@PBG@Z ; 11803
??0nsIAtom@@QAE@XZ ; 11603
??0AtomImpl@@QAE@XZ ; 11603
??2AtomImpl@@SAPAXIABV?$basic_nsAReadableString@G@@@Z ; 11603
?AssignWithConversion@nsCString@@QAEXABV?$basic_nsAReadableString@G@@@Z ; 11424
?getter_AddRefs@@YA?AV?$nsGetterAddRefs@VnsISupports@@@@AAV?$nsCOMPtr@VnsISupports@@@@@Z ; 11373
?StartAssignment@?$nsCOMPtr@VnsISupports@@@@QAEPAPAVnsISupports@@XZ ; 11373
??0?$nsGetterAddRefs@VnsISupports@@@@QAE@AAV?$nsCOMPtr@VnsISupports@@@@@Z ; 11373
??1?$nsCOMPtr@VnsIOutputStream@@@@QAE@XZ ; 11371
?WriteFully@nsBinaryOutputStream@@QAEIPBDI@Z ; 11359
?DataEnd@?$nsBufferHandle@G@@QAEPAGXZ ; 11354
?GetSize@nsSegmentedBuffer@@QAEIXZ ; 11269
?NS_NewAtom@@YAPAVnsIAtom@@PBD@Z ; 11255
?Find@nsString@@QBEHABV1@HHH@Z ; 11073
?ns_if_addref@@YAKPAVnsIEventQueue@@@Z ; 11062
?Find@nsProxyEventObject@@QAEPAV1@ABUnsID@@@Z ; 11048
_NS_QuickSort ; 10990
?Copy@nsXPIDLCString@@SAPADPBD@Z ; 10933
??0nsCreateInstanceByContractID@@QAE@PBDPAVnsISupports@@PAI@Z ; 10930
??RnsCreateInstanceByContractID@@UBEIABUnsID@@PAPAX@Z ; 10930
??0nsCreateInstanceByContractID@@QAE@ABV0@@Z ; 10930
??B?$nsGetterAddRefs@VnsISupports@@@@QAEPAPAXXZ ; 10922
?assign_from_helper@?$nsCOMPtr@VnsProxyEventObject@@@@AAEXABVnsCOMPtr_helper@@ABUnsID@@@Z ; 10910
?GetIID@?$nsCOMTypeInfo@VnsProxyEventObject@@@@SAABUnsID@@XZ ; 10910
?Peek@nsDeque@@QAEPAXXZ ; 10903
_NS_QuickSort ; 10830
?do_AssignFromElement@?$basic_nsAWritableString@G@@MAEXG@Z ; 10830
??0nsCString@@QAE@PBD@Z ; 10827
?QueryInterface@nsLocalFile@@UAGIABUnsID@@PAPAX@Z ; 10706
?DataStart@?$nsBufferHandle@G@@QAEPAGXZ ; 10578
?AddRef@nsPipeInputStream@nsPipe@@UAGKXZ ; 10508
?Release@nsPipeInputStream@nsPipe@@UAGKXZ ; 10502
?GetLastBuffer@nsSharedBufferList@@QAEPAVBuffer@1@XZ ; 10484
??0?$nsSharedBufferHandle@G@@QAE@PAG0@Z ; 10484
?PointAfter@Position@nsSharedBufferList@@QAEXPAVBuffer@2@@Z ; 10484
??0?$nsFlexBufferHandle@G@@QAE@PAG000@Z ; 10484
??0?$nsBufferHandle@G@@QAE@PAG0@Z ; 10484
??0Buffer@nsSharedBufferList@@QAE@PAG000H@Z ; 10484
??_GBuffer@nsSharedBufferList@@QAEPAXI@Z ; 10483
??1?$nsSharedBufferHandle@G@@QAE@XZ ; 10483
??1Buffer@nsSharedBufferList@@QAE@XZ ; 10483
??1?$nsFlexBufferHandle@G@@QAE@XZ ; 10483
?UnlinkBuffer@nsSharedBufferList@@QAEPAVBuffer@1@PAV21@@Z ; 10483
??0?$basic_nsLiteralString@D@@QAE@PBDI@Z ; 10450
?GetInputStream@nsPipe@@QAEPAVnsPipeInputStream@1@XZ ; 10346
?GetParent@xptiInterfaceInfo@@UAGIPAPAVnsIInterfaceInfo@@@Z ; 10338
?get@?$nsCOMPtr@VnsIInputStreamObserver@@@@QBEPAV?$nsDerivedSafe@VnsIInputStreamObserver@@@@XZ ; 10140
?ReallocData@nsSimpleCharString@@IAEXI@Z ; 10106
?AddRef@nsStorageStream@@UAGKXZ ; 10089
?Cut@?$basic_nsAWritableString@D@@UAEXII@Z ; 10078
?GetIID@nsIFile@@SAABUnsID@@XZ ; 10028
?GetIID@?$nsCOMTypeInfo@VnsIFile@@@@SAABUnsID@@XZ ; 10028
?get@?$nsCOMPtr@VnsILocalFile@@@@QBEPAV?$nsDerivedSafe@VnsILocalFile@@@@XZ ; 9878
?Assign@?$basic_nsAWritableString@D@@QAEXABV?$basic_nsAReadableString@D@@@Z ; 9846
?AssignFromReadable@?$basic_nsAWritableString@D@@IAEXABV?$basic_nsAReadableString@D@@@Z ; 9846
?PointBefore@Position@nsSharedBufferList@@QAEXPAVBuffer@2@@Z ; 9708
??0nsSharedBufferList@@QAE@PAVBuffer@0@@Z ; 9708
?init_range_from_buffer_list@nsSlidingSubstring@@AAEXXZ ; 9708
??0nsSlidingSharedBufferList@@QAE@PAVBuffer@nsSharedBufferList@@@Z ; 9708
?GetFirstBuffer@nsSharedBufferList@@QAEPAVBuffer@1@XZ ; 9708
??1nsSlidingSharedBufferList@@UAE@XZ ; 9707
?DestroyBuffers@nsSharedBufferList@@IAEXXZ ; 9707
??1nsSharedBufferList@@UAE@XZ ; 9707
??_EnsSlidingSharedBufferList@@UAEPAXI@Z ; 9707
?HashCode@nsStringKey@@UBEIXZ ; 9588
?get@?$nsCOMPtr@VnsIFile@@@@QBEPAV?$nsDerivedSafe@VnsIFile@@@@XZ ; 9563
?GetYoungest@nsEventQueueImpl@@UAGIPAPAVnsIEventQueue@@@Z ; 9526
?read@ConstCharImpl@@MAEHPADI@Z ; 9462
?Read@BasicStringImpl@@UAGIPADIPAI@Z ; 9462
?Release@nsStorageStream@@UAGKXZ ; 9450
?PeekFront@nsDeque@@QAEPAXXZ ; 9416
?StripChars@nsStr@@SAXAAU1@PBD@Z ; 9375
??2@YAPAXIPAX@Z ; 9331
??0nsSlidingSubstring@@QAE@ABV?$basic_nsAReadableString@G@@@Z ; 9331
?NS_AlignedHandleSize@@YAIPBVBuffer@nsSharedBufferList@@PBG@Z ; 9331
?Rebind@nsSlidingSubstring@@QAEXABV?$basic_nsAReadableString@G@@@Z ; 9330
??4?$nsCOMPtr@VnsProxyEventObject@@@@QAEAAV0@PAVnsProxyEventObject@@@Z ; 9244
?assign_with_AddRef@?$nsCOMPtr@VnsProxyEventObject@@@@AAEXPAVnsISupports@@@Z ; 9244
?GetIID@?$nsCOMTypeInfo@VnsIMemory@@@@SAABUnsID@@XZ ; 9101
?GetIID@nsIMemory@@SAABUnsID@@XZ ; 9101
?strcasecmp@nsCRT@@SAHPBG0@Z ; 9006
?do_AppendFromElementPtrLength@?$basic_nsAWritableString@D@@MAEXPBDI@Z ; 8941
??0nsProxyEventKey@@QAE@PAX0H@Z ; 8814
?HashCode@nsProxyEventKey@@UBEIXZ ; 8814
??1nsProxyEventKey@@UAE@XZ ; 8811
?Open@nsRegistry@@UAGIPBD@Z ; 8707
??1nsStringKey@@UAE@XZ ; 8698
?Delete@nsStr@@SAXAAU1@II@Z ; 8664
?AddRef@nsProxyObjectManager@@UAGKXZ ; 8643
?GetIID@nsIProxyObjectManager@@SAABUnsID@@XZ ; 8642
?Release@nsProxyObjectManager@@UAGKXZ ; 8642
?Trim@nsCString@@QAEXPBDHHH@Z ; 8576
??1?$nsCOMPtr@VnsIRandomAccessStore@@@@QAE@XZ ; 8556
??1?$nsCOMPtr@VnsIOpenFile@@@@QAE@XZ ; 8556
??1nsFileClient@@UAE@XZ ; 8545
??1nsRandomAccessStoreClient@@UAE@XZ ; 8545
?Reset@nsHashtable@@QAEXP6AHPAVnsHashKey@@PAX1@Z1@Z ; 8428
?AddRef@nsMemoryImpl@@UAGKXZ ; 8420
??0?$nsCOMPtr@VnsIOpenFile@@@@QAE@ABV0@@Z ; 8417
??0nsRandomAccessStoreClient@@QAE@ABV0@@Z ; 8417
??0nsFileClient@@QAE@ABV0@@Z ; 8417
??0?$nsCOMPtr@VnsIRandomAccessStore@@@@QAE@ABV0@@Z ; 8417
??3AtomImpl@@SAXPAX@Z ; 8371
??1AtomImpl@@UAE@XZ ; 8371
??_GAtomImpl@@UAEPAXI@Z ; 8371
?QueryInterface@nsPipeOutputStream@nsPipe@@UAGIABUnsID@@PAPAX@Z ; 8284
?MakeDirty@nsLocalFile@@AAEXXZ ; 8282
?EnumerateForwards@nsVoidArray@@QAEHP6AHPAX0@Z0@Z ; 8159
?Promises@?$basic_nsAReadableString@G@@UBEHABV1@@Z ; 8041
?Release@nsMemoryImpl@@UAGKXZ ; 7784
??1?$nsCOMPtr@VnsIInputStream@@@@QAE@XZ ; 7766
?ShiftCharsLeft@@YAXPADIII@Z ; 7732
??4nsCString@@QAEAAV0@ABV0@@Z ; 7716
?StripChar@nsString@@QAEXGH@Z ; 7596
?RemoveElement@nsSupportsArray@@UAGIPAVnsISupports@@@Z ; 7571
?RemoveElement@nsSupportsArray@@UAGHPBVnsISupports@@I@Z ; 7571
??0NS_ConvertUCS2toUTF8@@QAE@ABV?$basic_nsAReadableString@G@@@Z ; 7469
?WriteFrom@nsPipeOutputStream@nsPipe@@UAGIPAVnsIInputStream@@IPAI@Z ; 7455
?AddRef@nsArrayEnumerator@@UAGKXZ ; 7418
?Release@nsArrayEnumerator@@UAGKXZ ; 7418
?Read@nsPipeInputStream@nsPipe@@UAGIPADIPAI@Z ; 7418
?get@?$nsCOMPtr@VnsIInputStream@@@@QBEPAV?$nsDerivedSafe@VnsIInputStream@@@@XZ ; 7349
?ToCString@nsString@@QBEPADPADII@Z ; 7347
?CompressSet@nsCString@@QAEXPBDGHH@Z ; 7329
?ReplaceChar@nsCString@@QAEXPBDG@Z ; 7329
?CompressChars1@@YAHPADIPBD@Z ; 7329
?GetIID@ProxyEventClassIdentity@@SAABUnsID@@XZ ; 7265
??C?$nsCOMPtr@VnsProxyEventClass@@@@QBEPAV?$nsDerivedSafe@VnsProxyEventClass@@@@XZ ; 7265
?GetIID@?$nsCOMTypeInfo@VProxyEventClassIdentity@@@@SAABUnsID@@XZ ; 7265
?DelegatedQueryInterface@nsProxyEventClass@@UAGIPAVnsProxyEventObject@@ABUnsID@@PAPAX@Z ; 7265
??1?$nsCOMPtr@VnsIFileInputStream@@@@QAE@XZ ; 7244
??1nsRandomAccessInputStream@@UAE@XZ ; 7244
??1nsInputFileStream@@UAE@XZ ; 7244
??1nsInputStream@@UAE@XZ ; 7244
??4nsAutoString@@QAEAAV0@PBG@Z ; 7236
?get@?$nsCOMPtr@VnsISupportsArray@@@@QBEPAV?$nsDerivedSafe@VnsISupportsArray@@@@XZ ; 7227
??0?$nsCOMPtr@VnsIInputStream@@@@QAE@ABV0@@Z ; 7208
??0nsInputStream@@QAE@ABV0@@Z ; 7208
??0nsInputFileStream@@QAE@ABV0@@Z ; 7208
??0?$nsCOMPtr@VnsIFileInputStream@@@@QAE@ABV0@@Z ; 7208
??0nsRandomAccessInputStream@@QAE@ABV0@@Z ; 7208
?GetIIDToProxyClassMap@nsProxyObjectManager@@QBEPAVnsHashtable@@XZ ; 7138
?GetRealObjectToProxyObjectMap@nsProxyObjectManager@@QBEPAVnsHashtable@@XZ ; 7136
??0?$nsCOMPtr@VnsProxyEventClass@@@@QAE@ABU?$already_AddRefed@VnsProxyEventClass@@@@@Z ; 7127
?GetNewOrUsedClass@nsProxyEventClass@@SAPAV1@ABUnsID@@@Z ; 7127
??0?$already_AddRefed@VnsProxyEventClass@@@@QAE@PAVnsProxyEventClass@@@Z ; 7127
?getter_AddRefs@@YA?BU?$already_AddRefed@VnsProxyEventClass@@@@PAVnsProxyEventClass@@@Z ; 7127
??0?$nsCOMPtr@VnsIEventQueueService@@@@QAE@XZ ; 7078
??0nsXPTCStubBase@@QAE@XZ ; 7078
??0nsProxyObject@@QAE@PAVnsIEventQueue@@HPAVnsISupports@@@Z ; 7078
??4?$nsCOMPtr@VnsProxyEventObject@@@@QAEAAV0@ABVnsQueryInterface@@@Z ; 7078
??4?$nsCOMPtr@VnsIEventQueue@@@@QAEAAV0@ABVnsQueryInterface@@@Z ; 7078
??0nsProxyEventObject@@QAE@PAVnsIEventQueue@@HPAVnsISupports@@PAVnsProxyEventClass@@PAV0@@Z ; 7078
??0?$nsCOMPtr@VnsProxyEventClass@@@@QAE@PAVnsProxyEventClass@@@Z ; 7078
??4?$nsCOMPtr@VnsIEventQueueService@@@@QAEAAV0@ABVnsCOMPtr_helper@@@Z ; 7078
??1nsProxyEventObject@@UAE@XZ ; 7049
??1nsProxyObject@@UAE@XZ ; 7049
??_EnsProxyObject@@UAEPAXI@Z ; 7049
?assign_with_AddRef@?$nsCOMPtr@VnsProxyEventClass@@@@AAEXPAVnsISupports@@@Z ; 7049
??_EnsProxyEventObject@@UAEPAXI@Z ; 7049
??4?$nsCOMPtr@VnsProxyEventClass@@@@QAEAAV0@PAVnsProxyEventClass@@@Z ; 7049
?Write32@nsBinaryOutputStream@@UAGII@Z ; 6989
?QueryInterface@nsProxyObjectManager@@UAGIABUnsID@@PAPAX@Z ; 6967
?GetIID@?$nsCOMTypeInfo@VnsIProxyObjectManager@@@@SAABUnsID@@XZ ; 6967
?ReleaseData@nsSimpleCharString@@IAEXXZ ; 6960
??C?$nsCOMPtr@VnsIInputStream@@@@QBEPAV?$nsDerivedSafe@VnsIInputStream@@@@XZ ; 6883
?Read@nsPipeInputStream@nsPipe@@UAGIPADIPAI@Z ; 6868
??4nsAutoString@@QAEAAV0@ABV?$basic_nsAReadableString@G@@@Z ; 6840
?get@?$nsCOMPtr@VnsIMemory@@@@QBEPAV?$nsDerivedSafe@VnsIMemory@@@@XZ ; 6824
?ResolveAndStat@nsLocalFile@@AAEIH@Z ; 6751
?Read@nsBinaryInputStream@@UAGIPADIPAI@Z ; 6691
?AppendWithConversion@nsCString@@QAEXABVnsString@@H@Z ; 6645
??0nsAutoString@@QAE@ABVCBufDescriptor@@@Z ; 6628
?AppendNewSegment@nsSegmentedBuffer@@QAEPADXZ ; 6621
_PL_RevokeEvents ; 6610
??0CBufDescriptor@@QAE@PAGHIH@Z ; 6546
?get@?$nsCOMPtr@VnsIComponentLoader@@@@QBEPAV?$nsDerivedSafe@VnsIComponentLoader@@@@XZ ; 6452
?StripChars1@@YAHPADIPBD@Z ; 6426
?StripChars@nsCString@@QAEXPBD@Z ; 6426
?IsEmpty@nsSimpleCharString@@QBEHXZ ; 6405
?GetIID@nsISupportsWeakReference@@SAABUnsID@@XZ ; 6388
?GetIID@?$nsCOMTypeInfo@VnsISupportsWeakReference@@@@SAABUnsID@@XZ ; 6388
??1?$nsCOMPtr@VnsISupportsWeakReference@@@@QAE@XZ ; 6355
?assign_assuming_AddRef@?$nsCOMPtr@VnsISupportsWeakReference@@@@AAEXPAVnsISupportsWeakReference@@@Z ; 6355
?assign_from_helper@?$nsCOMPtr@VnsISupportsWeakReference@@@@AAEXABVnsCOMPtr_helper@@ABUnsID@@@Z ; 6355
??0?$nsCOMPtr@VnsISupportsWeakReference@@@@QAE@ABVnsQueryInterface@@@Z ; 6355
??0nsAutoString@@QAE@ABV0@@Z ; 6322
?IsFull@nsSegmentedBuffer@@IAEHXZ ; 6302
?NS_GetWeakReference@@YAPAVnsIWeakReference@@PAVnsISupports@@PAI@Z ; 6288
?ToLowerCase@nsCString@@QBEXAAV1@@Z ; 6253
?Lookup@nsStaticCaseInsensitiveNameTable@@QAEHABVnsCString@@@Z ; 6253
?AppendInt@nsString@@QAEXHH@Z ; 6225
?Compact@nsVoidArray@@QAEXXZ ; 6219
??C?$nsCOMPtr@VnsISupportsWeakReference@@@@QBEPAV?$nsDerivedSafe@VnsISupportsWeakReference@@@@XZ ; 6194
?GetWeakReference@nsSupportsWeakReference@@UAGIPAPAVnsIWeakReference@@@Z ; 6194
??0nsStringKey@@QAE@PBGHW4Ownership@0@@Z ; 6136
?ToNewUTF8String@@YAPADABV?$basic_nsAReadableString@G@@@Z ; 6113
?Put@nsSupportsHashtable@@QAEHPAVnsHashKey@@PAVnsISupports@@PAPAV3@@Z ; 6032
??C?$nsCOMPtr@VnsISupportsArray@@@@QBEPAV?$nsDerivedSafe@VnsISupportsArray@@@@XZ ; 5999
??0nsIOutputStream@@QAE@XZ ; 5973
?Equals@nsStringKey@@UBEHPBVnsHashKey@@@Z ; 5920
?GetIID@nsIComponentLoader@@SAABUnsID@@XZ ; 5903
?GetIID@?$nsCOMTypeInfo@VnsIComponentLoader@@@@SAABUnsID@@XZ ; 5903
??B?$nsCOMPtr@VnsIInputStreamObserver@@@@QBEPAV?$nsDerivedSafe@VnsIInputStreamObserver@@@@XZ ; 5901
?AddRef@nsNativeComponentLoader@@UAGKXZ ; 5866
?QueryInterface@nsPipeInputStream@nsPipe@@UAGIABUnsID@@PAPAX@Z ; 5798
?Empty@nsSegmentedBuffer@@QAEXXZ ; 5733
?ResolveEventQueue@nsEventQueueServiceImpl@@UAGIPAVnsIEventQueue@@PAPAV2@@Z ; 5729
??0NS_ConvertASCIItoUCS2@@QAE@PBDI@Z ; 5609
?RFindChar@nsStr@@SAHABU1@GHHH@Z ; 5607
??1?$nsCOMPtr@VnsPIEventQueueChain@@@@QAE@XZ ; 5573
?assign_assuming_AddRef@?$nsCOMPtr@VnsPIEventQueueChain@@@@AAEXPAVnsPIEventQueueChain@@@Z ; 5563
??C?$nsCOMPtr@VnsIEventQueueService@@@@QBEPAV?$nsDerivedSafe@VnsIEventQueueService@@@@XZ ; 5558
?assign_from_helper@?$nsCOMPtr@VnsPIEventQueueChain@@@@AAEXABVnsCOMPtr_helper@@ABUnsID@@@Z ; 5549
??0?$nsCOMPtr@VnsPIEventQueueChain@@@@QAE@ABVnsQueryInterface@@@Z ; 5549
??C?$nsCOMPtr@VnsPIEventQueueChain@@@@QBEPAV?$nsDerivedSafe@VnsPIEventQueueChain@@@@XZ ; 5547
?getter_AddRefs@@YA?BU?$already_AddRefed@VnsIEventQueue@@@@PAVnsIEventQueue@@@Z ; 5545
??0?$already_AddRefed@VnsIEventQueue@@@@QAE@PAVnsIEventQueue@@@Z ; 5545
??0?$nsCOMPtr@VnsIEventQueue@@@@QAE@ABU?$already_AddRefed@VnsIEventQueue@@@@@Z ; 5535
?GetYoungestEventQueue@nsEventQueueServiceImpl@@AAEIPAVnsIEventQueue@@PAPAV2@@Z ; 5525
?GetThreadEventQueue@nsEventQueueServiceImpl@@UAGIPAUPRThread@@PAPAVnsIEventQueue@@@Z ; 5523
?GetReadableFragment@nsSlidingString@@MBEPBGAAU?$nsReadableFragment@G@@W4nsFragmentRequest@@I@Z ; 5514
??0?$nsGetterAddRefs@VnsProxyEventObject@@@@QAE@AAV?$nsCOMPtr@VnsProxyEventObject@@@@@Z ; 5461
?GetNewOrUsedProxy@nsProxyEventObject@@SAPAV1@PAVnsIEventQueue@@HPAVnsISupports@@ABUnsID@@@Z ; 5461
??1?$nsGetterAddRefs@VnsProxyEventObject@@@@QAE@XZ ; 5461
??B?$nsGetterAddRefs@VnsProxyEventObject@@@@QAEPAPAXXZ ; 5461
?getter_AddRefs@@YA?AV?$nsGetterAddRefs@VnsProxyEventObject@@@@AAV?$nsCOMPtr@VnsProxyEventObject@@@@@Z ; 5461
?GetProxyForObject@nsProxyObjectManager@@UAGIPAVnsIEventQueue@@ABUnsID@@PAVnsISupports@@HPAPAX@Z ; 5461
??0?$nsCOMPtr@VnsIEventQueueService@@@@QAE@ABVnsCOMPtr_helper@@@Z ; 5461
?StartAssignment@?$nsCOMPtr@VnsProxyEventObject@@@@QAEPAPAVnsProxyEventObject@@XZ ; 5461
??4?$nsCOMPtr@VnsISupports@@@@QAEAAV0@ABVnsCOMPtr_helper@@@Z ; 5461
?Equals@nsProxyEventKey@@UBEHPBVnsHashKey@@@Z ; 5458
?get@?$nsCOMPtr@VnsIInterfaceInfoManager@@@@QBEPAV?$nsDerivedSafe@VnsIInterfaceInfoManager@@@@XZ ; 5445
?ns_if_addref@@YAKPAVnsProxyEventObject@@@Z ; 5400
?AddRef@xptiInterfaceInfoManager@@UAGKXZ ; 5322
?Release@xptiInterfaceInfoManager@@UAGKXZ ; 5320
?assign_assuming_AddRef@?$nsCOMPtr@VnsIComponentLoader@@@@AAEXPAVnsIComponentLoader@@@Z ; 5296
??0nsString@@QAE@ABV?$basic_nsAReadableString@G@@@Z ; 5267
?GetWriteSegment@nsPipe@@QAEIPAPADPAI@Z ; 5253
?ns_if_addref@@YAKPAVnsIInterfaceInfo@@@Z ; 5234
?Release@nsNativeComponentLoader@@UAGKXZ ; 5228
?assign_assuming_AddRef@?$nsCOMPtr@VnsIOutputStream@@@@AAEXPAVnsIOutputStream@@@Z ; 5219
?assign_from_helper@?$nsCOMPtr@VnsIOutputStream@@@@AAEXABVnsCOMPtr_helper@@ABUnsID@@@Z ; 5219
?GetName@xptiFile@@QBEPBDXZ ; 5183
??0?$nsCOMPtr@VnsIOutputStream@@@@QAE@ABVnsQueryInterface@@@Z ; 5127
?Find@nsCString@@QBEHPBDHHH@Z ; 5110
??0nsIInputStream@@QAE@XZ ; 5067
?Assert_NoQueryNeeded@?$nsCOMPtr@VnsIOutputStream@@@@QAEXXZ ; 5035
??0?$nsCOMPtr@VnsIOutputStream@@@@QAE@PAVnsIOutputStream@@@Z ; 5035
??1?$nsCOMPtr@VnsIInputStreamObserver@@@@QAE@XZ ; 4954
?GetNext@nsArrayEnumerator@@UAGIPAPAVnsISupports@@@Z ; 4876
?AddRef@BasicStringImpl@@UAGKXZ ; 4871
??BnsSimpleCharString@@QAEPADXZ ; 4868
?Release@BasicStringImpl@@UAGKXZ ; 4865
?Available@nsPipeInputStream@nsPipe@@UAGIPAI@Z ; 4648
?assign_assuming_AddRef@?$nsCOMPtr@VnsILocalFile@@@@AAEXPAVnsILocalFile@@@Z ; 4614
?ToInteger@nsCString@@QBEHPAHI@Z ; 4604
?get@?$nsCOMPtr@VnsIOutputStreamObserver@@@@QBEPAV?$nsDerivedSafe@VnsIOutputStreamObserver@@@@XZ ; 4587
??1?$nsCOMPtr@VnsIComponentLoader@@@@QAE@XZ ; 4557
?QueryInterface@nsMemoryImpl@@UAGIABUnsID@@PAPAX@Z ; 4551
??1?$nsCOMPtr@VnsIMemory@@@@QAE@XZ ; 4550
?assign_from_helper@?$nsCOMPtr@VnsIMemory@@@@AAEXABVnsCOMPtr_helper@@ABUnsID@@@Z ; 4549
?Assert_NoQueryNeeded@?$nsCOMPtr@VnsIMemory@@@@QAEXXZ ; 4549
?assign_assuming_AddRef@?$nsCOMPtr@VnsIMemory@@@@AAEXPAVnsIMemory@@@Z ; 4549
??4nsXPIDLCString@@QAEAAV0@PBD@Z ; 4533
??0xptiWorkingSet@@QAE@XZ ; 4531
?QueryInterface@nsStorageStream@@UAGIABUnsID@@PAPAX@Z ; 4475
?GetIID@?$nsCOMTypeInfo@VnsIStorageStream@@@@SAABUnsID@@XZ ; 4475
?GetIID@nsIStorageStream@@SAABUnsID@@XZ ; 4475
?HasInterfaceRecord@xptiInterfaceInfo@@QBEHXZ ; 4416
?RemoveListener@nsServiceEntry@@QAEIPAVnsIShutdownListener@@@Z ; 4401
?ReleaseService@nsServiceManagerImpl@@UAGIABUnsID@@PAVnsISupports@@PAVnsIShutdownListener@@@Z ; 4401
??B?$nsCOMPtr@VnsIOutputStreamObserver@@@@QBEPAV?$nsDerivedSafe@VnsIOutputStreamObserver@@@@XZ ; 4371
??1nsSimpleCharString@@QAE@XZ ; 4335
??C?$nsCOMPtr@VnsIFile@@@@QBEPAV?$nsDerivedSafe@VnsIFile@@@@XZ ; 4307
?GetIID@nsIInterfaceInfoManager@@SAABUnsID@@XZ ; 4223
?GetIID@?$nsCOMTypeInfo@VnsIInterfaceInfoManager@@@@SAABUnsID@@XZ ; 4223
?WriteSegments@nsPipeOutputStream@nsPipe@@UAGIP6GIPAVnsIOutputStream@@PAXPADIIPAI@Z1I3@Z ; 4162
??4nsCAutoString@@QAEAAV0@PBD@Z ; 4154
?AddItem@nsAVLTree@@QAE?AW4eAVLStatus@@PAX@Z ; 4140
?Count@nsStringArray@@QBEHXZ ; 4126
??1?$nsCOMPtr@VnsIFile@@@@QAE@XZ ; 4096
?assign_assuming_AddRef@?$nsCOMPtr@VnsIInputStreamObserver@@@@AAEXPAVnsIInputStreamObserver@@@Z ; 4030
?Read@StringUnicharInputStream@@UAGIPAGIIPAI@Z ; 4018
?PL_HashTableFinalize@@YAXPAUPLHashTable@@@Z ; 4010
?ReleaseService@nsServiceManager@@SAIABUnsID@@PAVnsISupports@@PAVnsIShutdownListener@@@Z ; 3998
?WriteFrom@nsPipeOutputStream@nsPipe@@UAGIPAVnsIInputStream@@IPAI@Z ; 3942
??0nsSegmentedBuffer@@QAE@XZ ; 3902
?Init@nsSegmentedBuffer@@QAEIIIPAVnsIMemory@@@Z ; 3867
?assign_assuming_AddRef@?$nsCOMPtr@VnsIFile@@@@AAEXPAVnsIFile@@@Z ; 3862
?Copy@nsXPIDLString@@SAPAGPBG@Z ; 3855
?AddRef@nsThread@@UAGKXZ ; 3846
??0?$nsCOMPtr@VnsProxyEventObject@@@@QAE@ABVnsQueryInterface@@@Z ; 3832
?Release@nsThread@@UAGKXZ ; 3830
?GetIID@nsISimpleEnumerator@@SAABUnsID@@XZ ; 3784
?GetIID@?$nsCOMTypeInfo@VnsISimpleEnumerator@@@@SAABUnsID@@XZ ; 3784
?AddBucket@nsFixedSizeAllocator@@IAEII@Z ; 3772
?EqualsWithConversion@nsCString@@QBEHPBDHH@Z ; 3769
?EqualsIgnoreCase@nsCString@@QBEHPBDH@Z ; 3765
?SegOffset@nsStorageStream@@AAEII@Z ; 3711
?QueryInterface@nsArrayEnumerator@@UAGIABUnsID@@PAPAX@Z ; 3703
?GetIID@?$nsCOMTypeInfo@VnsIThread@@@@SAABUnsID@@XZ ; 3698
?GetIID@nsIThread@@SAABUnsID@@XZ ; 3698
?assign_assuming_AddRef@?$nsCOMPtr@VnsIThread@@@@AAEXPAVnsIThread@@@Z ; 3696
?get@?$nsCOMPtr@VnsIThread@@@@QBEPAV?$nsDerivedSafe@VnsIThread@@@@XZ ; 3695
??1?$nsCOMPtr@VnsIThread@@@@QAE@XZ ; 3694
_PL_ProcessPendingEvents ; 3680
?Notify@nsAutoMonitor@@QAEIXZ ; 3659
??1?$nsCOMPtr@VnsIInterfaceInfoManager@@@@QAE@XZ ; 3630
??B?$nsCOMPtr@VnsIFile@@@@QBEPAV?$nsDerivedSafe@VnsIFile@@@@XZ ; 3600
??0nsOpaqueKey@@QAE@PBDIW4Ownership@0@@Z ; 3512
?PL_HashTableFinalize@@YAXPAUPLHashTable@@@Z ; 3467
?Enumerate@nsHashtable@@QAEXP6AHPAVnsHashKey@@PAX1@Z1@Z ; 3430
?Clone@nsCStringKey@@UBEPAVnsHashKey@@XZ ; 3387
??0?$nsCOMPtr@VnsISupports@@@@QAE@ABVnsCOMPtr_helper@@@Z ; 3372
?AddRefData@nsSimpleCharString@@IAEXXZ ; 3365
?ToUpperCase@nsString@@QAEXXZ ; 3354
??1?$nsCOMPtr@VnsProxyObjectManager@@@@QAE@XZ ; 3350
?get@?$nsCOMPtr@VnsProxyObjectManager@@@@QBEPAV?$nsDerivedSafe@VnsProxyObjectManager@@@@XZ ; 3350
?AddRef@nsStorageInputStream@@UAGKXZ ; 3342
?FindItem@nsAVLTree@@QBEPAXPAX@Z ; 3336
?Release@nsStorageInputStream@@UAGKXZ ; 3320
?RFindChar2@@YAHPBDIHGHH@Z ; 3269
?RFindChar@nsString@@QBEHGHHH@Z ; 3269
??1nsSegmentedBuffer@@QAE@XZ ; 3268
?do_AssignFromElementPtrLength@?$basic_nsAWritableString@G@@MAEXPBGI@Z ; 3254
?Assert_NoQueryNeeded@?$nsCOMPtr@VnsIComponentLoader@@@@QAEXXZ ; 3110
?SetLength@nsStorageStream@@UAGII@Z ; 3100
?SegNum@nsStorageStream@@AAEII@Z ; 3098
?GetTypelibRecord@xptiInterfaceInfo@@QBEABVxptiTypelib@@XZ ; 3082
__md_EventReceiverProc@16 ; 3060
?Enter@nsAutoMonitor@@QAEXXZ ; 3017
?Exit@nsAutoMonitor@@QAEXXZ ; 3017
?SetStringUTF8@nsRegistry@@UAGIIPBD0@Z ; 3004
?GetIID@?$nsCOMTypeInfo@VnsIRandomAccessStore@@@@SAABUnsID@@XZ ; 2976
?GetIID@nsIRandomAccessStore@@SAABUnsID@@XZ ; 2976
?Seek@nsStorageStream@@AAGIH@Z ; 2974
?assign_from_helper@?$nsCOMPtr@VnsIComponentLoader@@@@AAEXABVnsCOMPtr_helper@@ABUnsID@@@Z ; 2971
??0?$nsCOMPtr@VnsIComponentLoader@@@@QAE@ABVnsQueryInterface@@@Z ; 2970
?AppendInt@nsCString@@QAEXHH@Z ; 2967
?IndexOf@nsSupportsArray@@UAGHPBVnsISupports@@@Z ; 2955
?IndexOfStartingAt@nsSupportsArray@@UAGHPBVnsISupports@@I@Z ; 2955
?StripChars@nsString@@QAEXPBD@Z ; 2949
?QueryInterface@nsNativeComponentLoader@@UAGIABUnsID@@PAPAX@Z ; 2932
_PL_EventLoop ; 2931
?RFindSubstr@nsStr@@SAHABU1@0HHH@Z ; 2911
??1?$nsCOMPtr@VnsILocalFile@@@@QAE@XZ ; 2906
?ToFloat@nsString@@QBEMPAH@Z ; 2898
??C?$nsCOMPtr@VnsIInputStreamObserver@@@@QBEPAV?$nsDerivedSafe@VnsIInputStreamObserver@@@@XZ ; 2894
?StripChars2@@YAHPADIPBD@Z ; 2885
??0nsStringKey@@QAE@ABV?$basic_nsAReadableString@G@@@Z ; 2876
?GetConstant@xptiInterfaceInfo@@UAGIGPAPBVnsXPTConstant@@@Z ; 2867
?CopyFrom@nsSimpleCharString@@QAEXPBDI@Z ; 2834
?DataStart@?$nsBufferHandle@G@@QBEPBGXZ ; 2822
?EqualsWithConversion@nsString@@QBEHPBGHH@Z ; 2786
?CompareWithConversion@nsString@@QBEHPBGHH@Z ; 2786
?SetAtEOF@BasicStringImpl@@UAGIH@Z ; 2771
?GetPath@nsLocalFile@@UAGIPAPAD@Z ; 2697
?IsIID@xptiInterfaceInfo@@UAGIPBUnsID@@PAH@Z ; 2689
?assign_with_AddRef@?$nsCOMPtr@VnsIInputStreamObserver@@@@AAEXPAVnsISupports@@@Z ; 2685
?Assert_NoQueryNeeded@?$nsCOMPtr@VnsIInputStreamObserver@@@@QAEXXZ ; 2685
??4?$nsCOMPtr@VnsIInputStreamObserver@@@@QAEAAV0@PAVnsIInputStreamObserver@@@Z ; 2685
?GetTheIID@xptiInterfaceInfo@@QBEPBUnsID@@XZ ; 2668
?PL_HashTableInit@@YA?AW4PRStatus@@PAUPLHashTable@@IP6AIPBX@ZP6AH11@Z3PBUPLHashAllocOps@@PAX@Z ; 2666
??0nsHashtable@@QAE@IH@Z ; 2666
?GetScriptableFlag@xptiInterfaceInfo@@QBEHXZ ; 2657
?GetFlagBit@xptiInfoFlags@@QBEHE@Z ; 2657
??0nsAutoCMonitor@@QAE@PAX@Z ; 2643
??1nsAutoCMonitor@@QAE@XZ ; 2643
?GetLength@nsStorageStream@@UAGIPAI@Z ; 2636
?Enumerate@nsSupportsHashtable@@QAEXP6AHPAVnsHashKey@@PAX1@Z1@Z ; 2633
??4nsString@@QAEAAV0@ABV?$basic_nsAReadableString@G@@@Z ; 2610
??4nsSimpleCharString@@QAEXABV0@@Z ; 2608
??0nsString@@QAE@PBG@Z ; 2583
?Release@nsSupportsVoidImpl@@UAGKXZ ; 2544
?AddRef@nsSupportsVoidImpl@@UAGKXZ ; 2544
??0nsAutoString@@QAE@ABVnsString@@@Z ; 2543
?GetFlags@xptiInterfaceInfo@@AAEAAVxptiInfoFlags@@XZ ; 2543
?Alloc@ArenaImpl@@UAGPAXI@Z ; 2470
?SetInfoAt@xptiTypelibGuts@@QAEIGPAVxptiInterfaceInfo@@@Z ; 2457
??B?$nsCOMPtr@VnsILocalFile@@@@QBEPAV?$nsDerivedSafe@VnsILocalFile@@@@XZ ; 2439
?QueryInterface@BasicStringImpl@@UAGIABUnsID@@PAPAX@Z ; 2434
?QueryInterface@xptiInterfaceInfoManager@@UAGIABUnsID@@PAPAX@Z ; 2408
?AppendFromReadable@?$basic_nsAWritableString@D@@IAEXABV?$basic_nsAReadableString@D@@@Z ; 2400
?Append@?$basic_nsAWritableString@D@@QAEXABV?$basic_nsAReadableString@D@@@Z ; 2400
??0nsCAutoString@@QAE@ABVnsCString@@@Z ; 2398
??C?$nsCOMPtr@VnsILocalFile@@@@QBEPAV?$nsDerivedSafe@VnsILocalFile@@@@XZ ; 2384
??8@YAHABV?$nsReadingIterator@G@@0@Z ; 2371
?GetLeafName@nsLocalFile@@UAGIPAPAD@Z ; 2361
?assign_from_helper@?$nsCOMPtr@VnsILocalFile@@@@AAEXABVnsCOMPtr_helper@@ABUnsID@@@Z ; 2356
??6nsOutputStream@@QAEAAV0@PBD@Z ; 2343
?RFindChar1@@YAHPBDIHGHH@Z ; 2338
?RFindChar@nsCString@@QBEHGHHH@Z ; 2338
?SetFollowLinks@nsLocalFile@@UAGIH@Z ; 2313
??6nsOutputFileStream@@QAEAAVnsOutputStream@@PBD@Z ; 2298
?GetStringArena@xptiWorkingSet@@QAEPAUXPTArena@@XZ ; 2298
??0?$nsCOMPtr@VnsIMemory@@@@QAE@ABVnsQueryInterface@@@Z ; 2275
??B?$nsCOMPtr@VnsIMemory@@@@QBEPAV?$nsDerivedSafe@VnsIMemory@@@@XZ ; 2275
??0?$nsCOMPtr@VnsIOutputStreamObserver@@@@QAE@XZ ; 2274
??0?$nsCOMPtr@VnsIMemory@@@@QAE@PAVnsIMemory@@@Z ; 2274
??0nsPipe@@QAE@XZ ; 2274
??1?$nsCOMPtr@VnsIOutputStreamObserver@@@@QAE@XZ ; 2274
??0nsPipeInputStream@nsPipe@@QAE@XZ ; 2274
?Initialize@nsPipe@@UAGIIIHHPAVnsIMemory@@@Z ; 2274
?SetNonBlocking@nsPipeOutputStream@nsPipe@@UAGIH@Z ; 2274
?NS_NewPipe@@YAIPAPAVnsIInputStream@@PAPAVnsIOutputStream@@IIHHPAVnsIMemory@@@Z ; 2274
??0nsPipeOutputStream@nsPipe@@QAE@XZ ; 2274
??0nsIPipe@@QAE@XZ ; 2274
??0?$nsCOMPtr@VnsIInputStreamObserver@@@@QAE@XZ ; 2274
??4?$nsCOMPtr@VnsIMemory@@@@QAEAAV0@ABVnsCOMPtr_helper@@@Z ; 2274
?SetNonBlocking@nsPipeInputStream@nsPipe@@UAGIH@Z ; 2274
??8@YAHABV?$nsCOMPtr@VnsIMemory@@@@PAVNSCAP_Zero@@@Z ; 2274
?Close@nsPipeOutputStream@nsPipe@@UAGIXZ ; 2272
?Close@nsPipeInputStream@nsPipe@@UAGIXZ ; 2270
??_GnsPipe@@UAEPAXI@Z ; 2269
??1nsPipeOutputStream@nsPipe@@QAE@XZ ; 2269
??1nsPipeInputStream@nsPipe@@QAE@XZ ; 2269
??1nsPipe@@UAE@XZ ; 2269
?GetSpecialEventQueue@nsEventQueueServiceImpl@@UAGIHPAPAVnsIEventQueue@@@Z ; 2266
?Assert_NoQueryNeeded@?$nsCOMPtr@VnsILocalFile@@@@QAEXXZ ; 2264
?StripWhitespace@nsString@@QAEXXZ ; 2259
?GetInfoForName@xptiInterfaceInfoManager@@UAGIPBDPAPAVnsIInterfaceInfo@@@Z ; 2258
?BufferHashCode@nsCRT@@SAIPBDI@Z ; 2256
??1nsOpaqueKey@@UAE@XZ ; 2256
?HashCode@nsOpaqueKey@@UBEIXZ ; 2256
?CurrentItem@nsSupportsArrayEnumerator@@UAGIPAPAVnsISupports@@@Z ; 2240
??B?$nsCOMPtr@VnsIComponentLoader@@@@QBEPAV?$nsDerivedSafe@VnsIComponentLoader@@@@XZ ; 2229
?AppendString@nsStringArray@@QAEHABV?$basic_nsAReadableString@G@@@Z ; 2216
?InsertStringAt@nsStringArray@@QAEHABV?$basic_nsAReadableString@G@@H@Z ; 2216
?assign_from_helper@?$nsCOMPtr@VnsIFile@@@@AAEXABVnsCOMPtr_helper@@ABUnsID@@@Z ; 2208
?Next@nsSupportsArrayEnumerator@@UAGIXZ ; 2184
?get@NS_ConvertUCS2toUTF8@@QBEPBDXZ ; 2183
??BNS_ConvertUCS2toUTF8@@QBEPBDXZ ; 2154
??0?$nsCOMPtr@VnsIFile@@@@QAE@ABVnsQueryInterface@@@Z ; 2141
??_EnsString@@UAEPAXI@Z ; 2139
?get@NS_ConvertASCIItoUCS2@@QBEPBGXZ ; 2139
??1nsHashtable@@UAE@XZ ; 2123
?PL_HashTableFinalize@@YAXPAUPLHashTable@@@Z ; 2123
?GetInterfaceInfoManagerNoAddRef@xptiInterfaceInfoManager@@SAPAV1@XZ ; 2115
?SkipWhiteSpace@nsPersistentProperties@@QAEHH@Z ; 2113
?Read32@nsBinaryInputStream@@UAGIPAI@Z ; 2096
?AddSubtreeRaw@nsRegistry@@UAGIIPBDPAI@Z ; 2051
??0?$nsCOMPtr@VnsIFile@@@@QAE@XZ ; 2043
??0nsSimpleCharString@@QAE@PBD@Z ; 2035
?get@?$nsCOMPtr@VnsIRandomAccessStore@@@@QBEPAV?$nsDerivedSafe@VnsIRandomAccessStore@@@@XZ ; 2017
??0nsInt64@@QAE@_J@Z ; 2005
?CopyName@xptiInterfaceInfo@@AAEXPBDPAVxptiWorkingSet@@@Z ; 2001
??0nsIInterfaceInfo@@QAE@XZ ; 2001
?GetTheName@xptiInterfaceInfo@@QBEPBDXZ ; 2001
?find@?$nsCharTraits@G@@SAPBGPBGIABG@Z ; 1999
??0nsISimpleEnumerator@@QAE@XZ ; 1998
?ns_if_addref@@YAKPAVxptiInterfaceInfo@@@Z ; 1976
?FindCharInReadable_Impl@@YAHGAAV?$nsReadingIterator@G@@0@Z ; 1949
?FindCharInReadable@@YAHGAAV?$nsReadingIterator@G@@0@Z ; 1949
?GetStringUTF8@nsRegistry@@UAGIIPBDPAPAD@Z ; 1915
??0nsArrayEnumerator@@QAE@PAVnsISupportsArray@@@Z ; 1912
?ns_if_addref@@YAKPAVnsISupportsArray@@@Z ; 1912
??1nsArrayEnumerator@@UAE@XZ ; 1912
??0nsInt64@@QAE@ABV0@@Z ; 1870
?ns_if_addref@@YAKPAVnsIInterfaceInfoManager@@@Z ; 1865
_XPTI_GetInterfaceInfoManager ; 1865
?QueryInterface@nsThread@@UAGIABUnsID@@PAPAX@Z ; 1850
??0?$nsCOMPtr@VnsIThread@@@@QAE@XZ ; 1848
?assign_from_helper@?$nsCOMPtr@VnsIThread@@@@AAEXABVnsCOMPtr_helper@@ABUnsID@@@Z ; 1848
?Assert_NoQueryNeeded@?$nsCOMPtr@VnsIThread@@@@QAEXXZ ; 1848
?StartAssignment@?$nsCOMPtr@VnsIThread@@@@QAEPAPAVnsIThread@@XZ ; 1848
??1?$nsGetterAddRefs@VnsIThread@@@@QAE@XZ ; 1848
??B?$nsGetterAddRefs@VnsIThread@@@@QAEPAPAVnsIThread@@XZ ; 1848
??0?$nsCOMPtr@VnsIThread@@@@QAE@ABVnsQueryInterface@@@Z ; 1848
?getter_AddRefs@@YA?AV?$nsGetterAddRefs@VnsIThread@@@@AAV?$nsCOMPtr@VnsIThread@@@@@Z ; 1848
??0?$nsGetterAddRefs@VnsIThread@@@@QAE@AAV?$nsCOMPtr@VnsIThread@@@@@Z ; 1848
?ToString@nsID@@QBEPADXZ ; 1836
?assign_with_AddRef@?$nsCOMPtr@VnsIInterfaceInfo@@@@AAEXPAVnsISupports@@@Z ; 1825
?vsmprintf@nsTextFormatter@@SAPAGPBGPAD@Z ; 1821
?vsmprintf@nsTextFormatter@@SAPAGPBGPAD@Z ; 1821
?assign_from_helper@?$nsCOMPtr@VnsIInterfaceInfoManager@@@@AAEXABVnsCOMPtr_helper@@ABUnsID@@@Z ; 1815
??B?$nsCOMPtr@VnsIInterfaceInfoManager@@@@QBEPAV?$nsDerivedSafe@VnsIInterfaceInfoManager@@@@XZ ; 1815
?Assert_NoQueryNeeded@?$nsCOMPtr@VnsIInterfaceInfoManager@@@@QAEXXZ ; 1815
?assign_assuming_AddRef@?$nsCOMPtr@VnsIInterfaceInfoManager@@@@AAEXPAVnsIInterfaceInfoManager@@@Z ; 1815
??C?$nsCOMPtr@VnsIInterfaceInfoManager@@@@QBEPAV?$nsDerivedSafe@VnsIInterfaceInfoManager@@@@XZ ; 1815
??0?$already_AddRefed@VnsIInterfaceInfoManager@@@@QAE@PAVnsIInterfaceInfoManager@@@Z ; 1815
??0?$nsCOMPtr@VnsIInterfaceInfoManager@@@@QAE@ABU?$already_AddRefed@VnsIInterfaceInfoManager@@@@@Z ; 1815
_NS_NewArrayEnumerator ; 1815
??_EnsArrayEnumerator@@UAEPAXI@Z ; 1815
??0?$nsCOMPtr@VnsIInterfaceInfoManager@@@@QAE@ABVnsQueryInterface@@@Z ; 1815
??4?$nsCOMPtr@VnsIInterfaceInfo@@@@QAEAAV0@ABV0@@Z ; 1814
?getter_AddRefs@@YA?BU?$already_AddRefed@VnsIInterfaceInfoManager@@@@PAVnsIInterfaceInfoManager@@@Z ; 1814
??8@YAHABV?$nsCOMPtr@VnsILocalFile@@@@PAVNSCAP_Zero@@@Z ; 1810
?HasMoreElements@nsDirEnumerator@@UAGIPAH@Z ; 1810
?GetQueue@nsProxyEventObject@@QBEPAVnsIEventQueue@@XZ ; 1803
?CallQueryInterfaceOnProxy@nsProxyEventClass@@AAEIPAVnsProxyEventObject@@ABUnsID@@PAPAV2@@Z ; 1803
?Init@nsFixedSizeAllocator@@QAEIPBDPBIHHH@Z ; 1803
?GetProxyType@nsProxyEventObject@@QBEHXZ ; 1803
?GetRealObject@nsProxyEventObject@@QBEPAVnsISupports@@XZ ; 1803
??0?$nsCOMPtr@VnsIInterfaceInfo@@@@QAE@PAVnsIInterfaceInfo@@@Z ; 1803
?GetQueue@nsProxyObject@@QBEPAVnsIEventQueue@@XZ ; 1803
??0nsFixedSizeAllocator@@QAE@XZ ; 1785
??9@YAHABV?$nsCOMPtr@VnsILocalFile@@@@PAVNSCAP_Zero@@@Z ; 1770
?GetType@xptiFileType@@SA?AW4Type@1@PBD@Z ; 1757
?WriteStringZ@nsBinaryOutputStream@@UAGIPBD@Z ; 1751
?Release@nsBinaryOutputStream@@UAGKXZ ; 1746
?AddRef@nsBinaryOutputStream@@UAGKXZ ; 1746
?Write8@nsBinaryOutputStream@@UAGIE@Z ; 1746
?RFind@nsCString@@QBEHPBDHHH@Z ; 1731
?GetFileSize@nsLocalFile@@UAGIPA_J@Z ; 1708
??0nsLocalFile@@QAE@XZ ; 1704
??0nsILocalFile@@QAE@XZ ; 1704
??0nsIFile@@QAE@XZ ; 1704
?InitWithPath@nsLocalFile@@UAGIPBD@Z ; 1704
?Find@nsString@@QBEHPBGHHH@Z ; 1696
?GetIID@?$nsCOMTypeInfo@VnsISupportsVoid@@@@SAABUnsID@@XZ ; 1694
?QueryInterface@nsSupportsVoidImpl@@UAGIABUnsID@@PAPAX@Z ; 1694
?GetIID@nsISupportsVoid@@SAABUnsID@@XZ ; 1694
?Clone@nsProxyEventKey@@UBEPAVnsHashKey@@XZ ; 1678
_NS_NewLocalFile ; 1676
??0?$nsCOMPtr@VnsProxyObjectManager@@@@QAE@PAVnsProxyObjectManager@@@Z ; 1675
?assign_assuming_AddRef@?$nsCOMPtr@VnsProxyObjectManager@@@@AAEXPAVnsProxyObjectManager@@@Z ; 1675
??C?$nsCOMPtr@VnsProxyObjectManager@@@@QBEPAV?$nsDerivedSafe@VnsProxyObjectManager@@@@XZ ; 1675
?GetIID@?$nsCOMTypeInfo@VnsProxyObjectManager@@@@SAABUnsID@@XZ ; 1675
??0?$nsCOMPtr@VnsProxyObjectManager@@@@QAE@ABVnsQueryInterface@@@Z ; 1675
?assign_from_helper@?$nsCOMPtr@VnsProxyObjectManager@@@@AAEXABVnsCOMPtr_helper@@ABUnsID@@@Z ; 1675
??_GnsProxyEventKey@@UAEPAXI@Z ; 1675
?Assert_NoQueryNeeded@?$nsCOMPtr@VnsProxyObjectManager@@@@QAEXXZ ; 1675
?IsManagerShutdown@nsProxyObjectManager@@SAHXZ ; 1675
?Release@nsSupportsArrayEnumerator@@UAGKXZ ; 1672
?AddRef@nsSupportsArrayEnumerator@@UAGKXZ ; 1672
?QueryInterface@nsStorageInputStream@@UAGIABUnsID@@PAPAX@Z ; 1671
?Assert_NoQueryNeeded@?$nsCOMPtr@VnsIFile@@@@QAEXXZ ; 1655
??0nsSimpleCharString@@QAE@XZ ; 1626
??0nsISupportsWeakReference@@QAE@XZ ; 1618
??0nsSupportsWeakReference@@QAE@XZ ; 1618
?GetGlobalMemoryService@nsMemory@@SAPAVnsIMemory@@XZ ; 1594
?StringAt@nsStringArray@@QBEPAVnsString@@H@Z ; 1594
?GetIID@nsIUnicharInputStream@@SAABUnsID@@XZ ; 1592
?GetIID@?$nsCOMTypeInfo@VnsIUnicharInputStream@@@@SAABUnsID@@XZ ; 1592
??4?$nsCOMPtr@VnsIComponentLoader@@@@QAEAAV0@PAVnsIComponentLoader@@@Z ; 1582
?assign_with_AddRef@?$nsCOMPtr@VnsIComponentLoader@@@@AAEXPAVnsISupports@@@Z ; 1582
?GetFileCount@xptiWorkingSet@@QBEIXZ ; 1579
?GetTarget@nsLocalFile@@UAGIPAPAD@Z ; 1568
??1nsFixedSizeAllocator@@QAE@XZ ; 1554
??_EnsLocalFile@@UAEPAXI@Z ; 1546
??1nsLocalFile@@UAE@XZ ; 1546
?do_AssignFromElementPtrLength@?$basic_nsAWritableString@D@@MAEXPBDI@Z ; 1509
?Assign@?$basic_nsAWritableString@D@@QAEXPBDI@Z ; 1506
?Exists@nsLocalFile@@UAGIPAH@Z ; 1501
??0nsStorageStream@@QAE@XZ ; 1501
?NS_NewStorageStream@@YAIIIPAPAVnsIStorageStream@@@Z ; 1501
?Init@nsStorageStream@@QAGIIIPAVnsIMemory@@@Z ; 1501
??0nsIStorageStream@@QAE@XZ ; 1501
?Available@nsStorageInputStream@@UAGIPAI@Z ; 1496
?ToCString@nsCString@@QBEPADPADII@Z ; 1491
??0?$nsCOMPtr@VnsIComponentLoader@@@@QAE@XZ ; 1490
?GetOutputStream@nsStorageStream@@UAGIHPAPAVnsIOutputStream@@@Z ; 1487
??YnsSimpleCharString@@QAEXPBD@Z ; 1467
??0?$nsCOMPtr@VnsILocalFile@@@@QAE@ABVnsQueryInterface@@@Z ; 1465
??0nsVoidArray@@QAE@H@Z ; 1463
?ScriptableFlagIsValid@xptiInterfaceInfo@@ABEHXZ ; 1443
??0?$nsCOMPtr@VnsILocalFile@@@@QAE@XZ ; 1438
?Init@xptiTypelib@@QAEXGG@Z ; 1433
?Release@StringUnicharInputStream@@UAGKXZ ; 1432
?AddRef@StringUnicharInputStream@@UAGKXZ ; 1432
?GetIID@nsIBidirectionalEnumerator@@SAABUnsID@@XZ ; 1429
?GetIID@?$nsCOMTypeInfo@VnsIBidirectionalEnumerator@@@@SAABUnsID@@XZ ; 1429
??0?$nsGetterAddRefs@VnsIFile@@@@QAE@AAV?$nsCOMPtr@VnsIFile@@@@@Z ; 1399
??1?$nsGetterAddRefs@VnsIFile@@@@QAE@XZ ; 1399
?StartAssignment@?$nsCOMPtr@VnsIFile@@@@QAEPAPAVnsIFile@@XZ ; 1399
?getter_AddRefs@@YA?AV?$nsGetterAddRefs@VnsIFile@@@@AAV?$nsCOMPtr@VnsIFile@@@@@Z ; 1399
?Read@nsStorageInputStream@@UAGIPADIPAI@Z ; 1395
?GetIID@?$nsCOMTypeInfo@VnsIFileSpec@@@@SAABUnsID@@XZ ; 1390
?GetIID@nsIFileSpec@@SAABUnsID@@XZ ; 1390
?HasMoreElements@nsArrayEnumerator@@UAGIPAH@Z ; 1378
?IsXPT@xptiFileType@@SAHPBD@Z ; 1375
?GetIID@?$nsCOMTypeInfo@VnsIObserverService@@@@SAABUnsID@@XZ ; 1373
?GetIID@nsIObserverService@@SAABUnsID@@XZ ; 1373
?ClearWeakReferences@nsSupportsWeakReference@@IAEXXZ ; 1348
??0?$nsCOMPtr@VnsIInputStreamObserver@@@@QAE@ABVnsQueryInterface@@@Z ; 1345
?GetIID@?$nsCOMTypeInfo@VnsIInputStreamObserver@@@@SAABUnsID@@XZ ; 1345
?SetObserver@nsPipeInputStream@nsPipe@@UAGIPAVnsIInputStreamObserver@@@Z ; 1345
?GetIID@nsIInputStreamObserver@@SAABUnsID@@XZ ; 1345
?assign_from_helper@?$nsCOMPtr@VnsIInputStreamObserver@@@@AAEXABVnsCOMPtr_helper@@ABUnsID@@@Z ; 1345
??BnsSimpleCharString@@QBEPBDXZ ; 1343
??0?$nsCOMPtr@VnsIInputStreamObserver@@@@QAE@ABV0@@Z ; 1340
?DataEnd@?$nsBufferHandle@G@@QBEPBGXZ ; 1338
?SetFlagBit@xptiInfoFlags@@QAEXEH@Z ; 1334
??0xptiInterfaceInfo@@QAE@PBDABUnsID@@ABVxptiTypelib@@PAVxptiWorkingSet@@@Z ; 1334
?ClearHashTables@xptiWorkingSet@@QAEXXZ ; 1334
??_ExptiInterfaceInfo@@UAEPAXI@Z ; 1334
?StartAssignment@?$nsCOMPtr@VnsILocalFile@@@@QAEPAPAVnsILocalFile@@XZ ; 1334
?SetScriptableFlag@xptiInterfaceInfo@@QAEXH@Z ; 1334
?getter_AddRefs@@YA?AV?$nsGetterAddRefs@VnsILocalFile@@@@AAV?$nsCOMPtr@VnsILocalFile@@@@@Z ; 1334
??1xptiInterfaceInfo@@UAE@XZ ; 1334
?ClearHashTables@xptiWorkingSet@@QAEXXZ ; 1334
??0?$nsGetterAddRefs@VnsILocalFile@@@@QAE@AAV?$nsCOMPtr@VnsILocalFile@@@@@Z ; 1334
??1?$nsGetterAddRefs@VnsILocalFile@@@@QAE@XZ ; 1334
?get@?$nsCOMPtr@VnsISimpleEnumerator@@@@QBEPAV?$nsDerivedSafe@VnsISimpleEnumerator@@@@XZ ; 1326
??0nsIRandomAccessStore@@QAE@XZ ; 1325
??C?$nsCOMPtr@VnsISimpleEnumerator@@@@QBEPAV?$nsDerivedSafe@VnsISimpleEnumerator@@@@XZ ; 1320
?GetLeafName@nsFileSpec@@QBEPADXZ ; 1314
?GetLeaf@nsSimpleCharString@@QBEPADD@Z ; 1314
??1nsOutputFileStream@@UAE@XZ ; 1301
??1nsOutputStream@@UAE@XZ ; 1301
??1?$nsCOMPtr@VnsIFileOutputStream@@@@QAE@XZ ; 1301
??1nsRandomAccessOutputStream@@UAE@XZ ; 1301
_PL_EventLoop ; 1289
?DeleteFirstSegment@nsSegmentedBuffer@@QAEHXZ ; 1279
?IsXPT@xptiFileType@@SAHPBD@Z ; 1276
??0?$nsCOMPtr@VnsIOutputStream@@@@QAE@ABV0@@Z ; 1275
??1nsSupportsWeakReference@@UAE@XZ ; 1269
?GetIID@?$nsCOMTypeInfo@VnsIGenericFactory@@@@SAABUnsID@@XZ ; 1262
?GetIID@nsIGenericFactory@@SAABUnsID@@XZ ; 1262
?GetIID@?$nsCOMTypeInfo@VnsIEnumerator@@@@SAABUnsID@@XZ ; 1261
?GetIID@nsIEnumerator@@SAABUnsID@@XZ ; 1261
?Clone@nsOpaqueKey@@UBEPAVnsHashKey@@XZ ; 1256
??0xptiWorkingSet@@QAE@XZ ; 1233
?GetPRThread@nsThread@@UAGIPAPAUPRThread@@@Z ; 1218
??C?$nsCOMPtr@VnsIThread@@@@QBEPAV?$nsDerivedSafe@VnsIThread@@@@XZ ; 1217
?GetMainThread@nsIThread@@SAIPAPAV1@@Z ; 1217
?SetResolvedState@xptiInterfaceInfo@@AAEXH@Z ; 1209
??0?$nsCOMPtr@VnsIFileOutputStream@@@@QAE@ABV0@@Z ; 1209
?SetState@xptiInfoFlags@@QAEXE@Z ; 1209
??0nsOutputFileStream@@QAE@ABV0@@Z ; 1209
??0nsRandomAccessOutputStream@@QAE@ABV0@@Z ; 1209
??0nsOutputStream@@QAE@ABV0@@Z ; 1209
??0ConstCharImpl@@QAE@PBDH@Z ; 1198
??0BasicStringImpl@@QAE@XZ ; 1198
??1ConstCharImpl@@UAE@XZ ; 1195
??1BasicStringImpl@@UAE@XZ ; 1195
??_EConstCharImpl@@UAEPAXI@Z ; 1185
?RFind@nsString@@QBEHPBDHHH@Z ; 1180
??B?$nsGetterAddRefs@VnsIFile@@@@QAEPAPAVnsIFile@@XZ ; 1179
?AddRef@nsObserverService@@UAGKXZ ; 1163
?QueryInterface@nsObserverService@@UAGIABUnsID@@PAPAX@Z ; 1161
?ToLowerCase@nsString@@QBEXAAV1@@Z ; 1158
??1nsFileSpec@@UAE@XZ ; 1157
?Release@nsObserverService@@UAGKXZ ; 1156
?SetStringProperty@nsPersistentProperties@@UAGIABVnsString@@AAV2@1@Z ; 1153
?StorageStart@?$nsFlexBufferHandle@G@@QAEPAGXZ ; 1153
?VerifyAndAddInterfaceIfNew@xptiInterfaceInfoManager@@AAEHPAVxptiWorkingSet@@PAUXPTInterfaceDirectoryEntry@@ABVxptiTypelib@@PAPAVxptiInterfaceInfo@@@Z ; 1148
??0nsStorageInputStream@@QAE@PAVnsStorageStream@@I@Z ; 1139
?NewInputStream@nsStorageStream@@UAGIHPAPAVnsIInputStream@@@Z ; 1139
??1nsStorageInputStream@@UAE@XZ ; 1128
??_GnsStorageInputStream@@UAEPAXI@Z ; 1128
?get@?$nsCOMPtr@VnsThreadPool@@@@QBEPAV?$nsDerivedSafe@VnsThreadPool@@@@XZ ; 1124
?strncmp@nsCRT@@SAHPBD0H@Z ; 1110
?ToLower@nsCRT@@SAGG@Z ; 1110
??_EnsCStringKey@@UAEPAXI@Z ; 1102
?ShiftDoubleCharsRight@@YAXPADIII@Z ; 1101
?StrInsert@nsStr@@SAXAAU1@IABU1@IH@Z ; 1101
?InsertWithConversion@nsString@@QAEXPBDIH@Z ; 1101
?GetInterfaceIsArgNumberForParam@xptiInterfaceInfo@@UAGIGPBVnsXPTParamInfo@@PAE@Z ; 1100
??B?$nsGetterAddRefs@VnsILocalFile@@@@QAEPAPAVnsILocalFile@@XZ ; 1088
?Flush@nsPipeOutputStream@nsPipe@@UAGIXZ ; 1076
?AddRef@nsFileSpecImpl@@UAGKXZ ; 1056
??0nsIEnumerator@@QAE@XZ ; 1035
?Clone@nsLocalFile@@UAGIPAPAVnsIFile@@@Z ; 1031
?IsScriptable@xptiInterfaceInfo@@UAGIPAH@Z ; 1029
??B?$nsCOMPtr@VnsISupportsArray@@@@QBEPAV?$nsDerivedSafe@VnsISupportsArray@@@@XZ ; 1020
??0nsIBidirectionalEnumerator@@QAE@XZ ; 1020
??B?$nsCOMPtr@VnsIRandomAccessStore@@@@QBEPAV?$nsDerivedSafe@VnsIRandomAccessStore@@@@XZ ; 1014
?GetTargetArraySize@nsObserverListEnumerator@@ABEIXZ ; 1011
??C?$nsCOMPtr@VnsIRandomAccessStore@@@@QBEPAV?$nsDerivedSafe@VnsIRandomAccessStore@@@@XZ ; 1003
?CountCharInReadable@@YAIABV?$basic_nsAReadableString@G@@G@Z ; 998
?Release@nsFileSpecImpl@@UAGKXZ ; 998
?CountCharInReadable_Impl@@YAIABV?$basic_nsAReadableString@G@@G@Z ; 998
??C?$nsCOMPtr@VnsIComponentLoader@@@@QBEPAV?$nsDerivedSafe@VnsIComponentLoader@@@@XZ ; 998
?Exists@nsHashtable@@QAEHPAVnsHashKey@@@Z ; 995
?Parse@nsID@@QAEHPBD@Z ; 989
?GetIID@?$nsCOMTypeInfo@VnsIFactory@@@@SAABUnsID@@XZ ; 980
?GetIID@nsIFactory@@SAABUnsID@@XZ ; 980
?Clone@nsIDKey@@UBEPAVnsHashKey@@XZ ; 979
?Next@nsRegSubtreeEnumerator@@UAGIXZ ; 978
?advance@nsRegSubtreeEnumerator@@MAGIXZ ; 978
?IsDone@nsRegSubtreeEnumerator@@UAGIXZ ; 978
?WriteToLog@xptiInterfaceInfoManager@@SAXPBDZZ ; 975
?GetOpenLogFile@xptiInterfaceInfoManager@@QAEPAUPRFileDesc@@XZ ; 975
?AppendRelativePath@nsLocalFile@@UAGIPBD@Z ; 960
?CurrentItemInPlaceUTF8@nsRegSubtreeEnumerator@@UAGIPAIPAPBD@Z ; 957
?QueryInterface@nsFileSpecImpl@@UAGIABUnsID@@PAPAX@Z ; 955
?Clone@nsStringKey@@UBEPAVnsHashKey@@XZ ; 953
?Append@nsLocalFile@@UAGIPBD@Z ; 952
?IsUpper@nsCRT@@SAHG@Z ; 946
?ToNewUnicode@nsCString@@QBEPAGXZ ; 941
?ShiftDoubleCharsLeft@@YAXPADIII@Z ; 932
??4?$nsCOMPtr@VnsILocalFile@@@@QAEAAV0@PAVnsILocalFile@@@Z ; 924
_NS_NewCharInputStream ; 924
?assign_with_AddRef@?$nsCOMPtr@VnsILocalFile@@@@AAEXPAVnsISupports@@@Z ; 924
?SkipLine@nsPersistentProperties@@QAEHH@Z ; 920
?Error@nsFileSpec@@QBEIXZ ; 918
??1nsFilePath@@UAE@XZ ; 917
??BnsFilePath@@QBEPBDXZ ; 917
?NativeToUnix@nsFileSpecHelpers@@YAXAAVnsSimpleCharString@@@Z ; 917
?GetAtEOF@FileImpl@@UAGIPAH@Z ; 916
?get_at_eof@nsRandomAccessInputStream@@MBEHXZ ; 916
?eof@nsInputStream@@QBEHXZ ; 916
?get_at_eof@nsRandomAccessStoreClient@@MBEHXZ ; 916
?GetPLEventQueue@nsEventQueueImpl@@UAGIPAPAUPLEventQueue@@@Z ; 912
??0nsDequeFunctor@@QAE@XZ ; 903
?getter_Copies@@YA?AVGetterCopies@nsXPIDLCString@@AAV2@@Z ; 889
??4?$nsCOMPtr@VnsILocalFile@@@@QAEAAV0@ABVnsQueryInterface@@@Z ; 885
?GetNext@nsDirEnumerator@@UAGIPAPAVnsISupports@@@Z ; 885
?Assert_NoQueryNeeded@?$nsCOMPtr@VnsIFactory@@@@QAEXXZ ; 882
??0nsNamedVector@@QAE@PBDI@Z ; 880
?EscapeKey@nsRegistry@@UAGIPAEIPAIPAPAE@Z ; 880
??_G?$nsPromiseReadable@D@@UAEPAXI@Z ; 880
?WriteBytes@nsBinaryOutputStream@@UAGIPBDI@Z ; 878
?Write@nsBinaryOutputStream@@UAGIPBDIPAI@Z ; 878
?WriteFloat@nsBinaryOutputStream@@UAGIM@Z ; 873
??_EnsBinaryOutputStream@@UAEPAXI@Z ; 873
??0nsIBinaryOutputStream@@QAE@XZ ; 873
??1nsBinaryOutputStream@@UAE@XZ ; 873
?GetIID@?$nsCOMTypeInfo@VnsIBinaryOutputStream@@@@SAABUnsID@@XZ ; 873
?QueryInterface@nsBinaryOutputStream@@UAGIABUnsID@@PAPAX@Z ; 873
??1nsStorageStream@@UAE@XZ ; 873
??0nsBinaryOutputStream@@QAE@PAVnsIOutputStream@@@Z ; 873
??_EnsStorageStream@@UAEPAXI@Z ; 873
??_GnsSegmentedBuffer@@QAEPAXI@Z ; 873
?GetIID@nsIBinaryOutputStream@@SAABUnsID@@XZ ; 873
?NS_NewBinaryOutputStream@@YAIPAPAVnsIBinaryOutputStream@@PAVnsIOutputStream@@@Z ; 873
?Write16@nsBinaryOutputStream@@UAGIG@Z ; 873
?strtok@nsCRT@@SAPADPADPBDPAPAD@Z ; 872
?QueryInterface@nsGenericFactory@@UAGIABUnsID@@PAPAX@Z ; 871
?GetLength@ByteBufferImpl@@UBGIXZ ; 861
?GetObserverList@nsObserverService@@EAGIABVnsString@@PAPAVnsIObserverList@@@Z ; 857
?CheckForDeactivation@nsEventQueueImpl@@AAEXXZ ; 850
_nsUnescapeCount ; 847
_nsUnescape ; 847
?SetData@nsSupportsVoidImpl@@UAGIPAX@Z ; 844
??0nsSupportsVoidImpl@@QAE@XZ ; 844
??_EnsSupportsVoidImpl@@UAEPAXI@Z ; 844
?GetCID@nsDirectoryService@@SAABUnsID@@XZ ; 844
??0nsISupportsVoid@@QAE@XZ ; 844
??1nsSupportsVoidImpl@@UAE@XZ ; 844
??4nsSimpleCharString@@QAEXPBD@Z ; 833
??0nsCString@@QAE@ABV0@@Z ; 833
??0nsStringArray@@QAE@XZ ; 819
?First@nsSupportsArrayEnumerator@@UAGIXZ ; 815
?Enumerate@nsSupportsArray@@UAGIPAPAVnsIEnumerator@@@Z ; 815
??0nsSupportsArrayEnumerator@@QAE@PAVnsISupportsArray@@@Z ; 815
??1nsSupportsArrayEnumerator@@UAE@XZ ; 815
?QueryInterface@nsSupportsArrayEnumerator@@UAGIABUnsID@@PAPAX@Z ; 815
??_EnsSupportsArrayEnumerator@@UAEPAXI@Z ; 815
?UnixToNative@nsFileSpecHelpers@@YAXAAVnsSimpleCharString@@@Z ; 809
?RegistryNameForLib@nsComponentManagerImpl@@IAEIPBDPAPAD@Z ; 808
??0nsIUnicharInputStream@@QAE@XZ ; 796
??0nsInt64@@QAE@XZ ; 792
??4nsInt64@@QAEABV0@ABV0@@Z ; 792
??0?$nsCOMPtr@VnsIComponentLoader@@@@QAE@PAVnsIComponentLoader@@@Z ; 784
?HasMoreElements@nsAdapterEnumerator@@UAGIPAH@Z ; 782
?Clear@nsStringArray@@QAEXXZ ; 781
??1nsStringArray@@UAE@XZ ; 781
?LinkBuffer@nsSharedBufferList@@QAEXPAVBuffer@1@00@Z ; 776
?LinePtr@ManifestLineReader@@QAEPADXZ ; 776
?AppendBuffer@nsSlidingString@@QAEXPAG00@Z ; 776
??0nsCAutoString@@QAE@ABV0@@Z ; 775
??BnsInt64@@QBEHXZ ; 773
?NextLine@ManifestLineReader@@QAEHXZ ; 772
?LineLength@ManifestLineReader@@QAEIXZ ; 771
?CopyUnicodeTo@@YAPAGABV?$basic_nsAReadableString@G@@IPAGI@Z ; 770
?RegistryLocationForSpec@nsComponentManagerImpl@@UAGIPAVnsIFile@@PAPAD@Z ; 764
?Contains@nsLocalFile@@UAGIPAVnsIFile@@HPAH@Z ; 764
?LeafReplace@nsSimpleCharString@@QAEXDPBD@Z ; 762
?SetLeafName@nsFileSpec@@QAEXPBD@Z ; 762
??0nsSimpleCharString@@QAE@ABV0@@Z ; 757
??0Position@nsSharedBufferList@@QAE@XZ ; 756
?strncmp@nsCRT@@SAHPBD0I@Z ; 754
?ForEach@nsDeque@@QBEXAAVnsDequeFunctor@@@Z ; 752
?ProcessPendingEvents@nsEventQueueImpl@@UAGIXZ ; 750
?RegisterComponentCommon@nsComponentManagerImpl@@IAEIABUnsID@@PBD11HH1@Z ; 746
?ReleaseElement@nsSupportsHashtable@@CAHPAVnsHashKey@@PAX1@Z ; 745
?IsFile@nsLocalFile@@UAGIPAH@Z ; 744
?getter_AddRefs@@YA?AV?$nsGetterAddRefs@VnsIComponentLoader@@@@AAV?$nsCOMPtr@VnsIComponentLoader@@@@@Z ; 743
??1?$nsGetterAddRefs@VnsIComponentLoader@@@@QAE@XZ ; 743
??B?$nsGetterAddRefs@VnsIComponentLoader@@@@QAEPAPAVnsIComponentLoader@@XZ ; 743
?StartAssignment@?$nsCOMPtr@VnsIComponentLoader@@@@QAEPAPAVnsIComponentLoader@@XZ ; 743
?GetLoaderForType@nsComponentManagerImpl@@IAEIPBDPAPAVnsIComponentLoader@@@Z ; 743
??0?$nsGetterAddRefs@VnsIComponentLoader@@@@QAE@AAV?$nsCOMPtr@VnsIComponentLoader@@@@@Z ; 743
??0?$nsCOMPtr@VnsIFactory@@@@QAE@PAVnsIFactory@@@Z ; 742
??0nsFactoryEntry@@QAE@ABUnsID@@PBD1PAVnsIComponentLoader@@@Z ; 742
?compare@?$nsCharTraits@D@@SAHPBD0I@Z ; 739
?Compare@?$basic_nsAReadableString@D@@QBEHABV1@@Z ; 739
?Compare@@YAHABV?$basic_nsAReadableString@D@@0@Z ; 739
?Equals@?$basic_nsAReadableString@D@@QBEHABV1@@Z ; 739
?OnRegister@nsNativeComponentLoader@@UAGIABUnsID@@PBD111HH@Z ; 733
??0nsSupportsHashtable@@QAE@IH@Z ; 731
?assign_assuming_AddRef@?$nsCOMPtr@VnsIModule@@@@AAEXPAVnsIModule@@@Z ; 724
??1StringUnicharInputStream@@UAE@XZ ; 716
?NS_NewStringUnicharInputStream@@YAIPAPAVnsIUnicharInputStream@@PAVnsString@@@Z ; 716
?QueryInterface@StringUnicharInputStream@@UAGIABUnsID@@PAPAX@Z ; 716
??_GStringUnicharInputStream@@UAEPAXI@Z ; 716
??0StringUnicharInputStream@@QAE@PAVnsString@@@Z ; 716
?HashContractID@nsComponentManagerImpl@@IAEIPBDABUnsID@@@Z ; 709
?fragment@?$nsWritingIterator@G@@QBEABU?$nsWritableFragment@G@@XZ ; 700
??9@YAHABV?$nsWritingIterator@G@@0@Z ; 700
?SetInt@nsRegistry@@UAGIIPBDH@Z ; 698
?AddComponentToRegistry@nsComponentManagerImpl@@IAEIABUnsID@@PBD111@Z ; 698
?GetValueType@nsRegistry@@UAGIIPBDPAI@Z ; 698
?SetBytesUTF8@nsRegistry@@UAGIIPBDIPAE@Z ; 698
?GetInt@nsRegistry@@UAGIIPBDPAH@Z ; 698
?EnumerateObserverList@nsObserverList@@UAGIPAPAVnsIEnumerator@@@Z ; 696
?EnumerateObserverList@nsObserverService@@UAGIPBGPAPAVnsIEnumerator@@@Z ; 696
??AnsSimpleCharString@@QAEAADH@Z ; 684
??0nsFilePath@@QAE@ABVnsFileSpec@@@Z ; 683
??4nsFilePath@@QAEXABVnsFileSpec@@@Z ; 683
?RegisterComponentWithType@nsComponentManagerImpl@@UAGIABUnsID@@PBD1PAVnsIFile@@1HH1@Z ; 681
?GetIID@?$nsCOMTypeInfo@VnsIOpenFile@@@@SAABUnsID@@XZ ; 680
?GetIID@nsIOpenFile@@SAABUnsID@@XZ ; 680
?ReplaceChar@nsCString@@QAEXGG@Z ; 673
?RegisterComponentSpec@nsComponentManagerImpl@@UAGIABUnsID@@PBD1PAVnsIFile@@HH@Z ; 672
?GetZipItemIndex@xptiTypelib@@QBEGXZ ; 667
??0xptiInterfaceInfo@@QAE@ABV0@ABVxptiTypelib@@PAVxptiWorkingSet@@@Z ; 667
??BnsInt64@@QBE_JXZ ; 667
??0TwoWorkingSets@@QAE@PAVxptiWorkingSet@@0@Z ; 667
?GetIID@?$nsCOMTypeInfo@VnsIModule@@@@SAABUnsID@@XZ ; 665
?GetIID@nsIModule@@SAABUnsID@@XZ ; 665
??0nsFileSpec@@QAE@ABV0@@Z ; 659
??0nsCreateInstanceByCID@@QAE@ABUnsID@@PAVnsISupports@@PAI@Z ; 655
??RnsCreateInstanceByCID@@UBEIABUnsID@@PAPAX@Z ; 655
??0nsCreateInstanceByCID@@QAE@ABV0@@Z ; 655
?GetInfoForIID@xptiInterfaceInfoManager@@UAGIPBUnsID@@PAPAVnsIInterfaceInfo@@@Z ; 652
??1?$nsCOMPtr@VnsIModule@@@@QAE@XZ ; 647
?get@?$nsCOMPtr@VnsIGenericFactory@@@@QBEPAV?$nsDerivedSafe@VnsIGenericFactory@@@@XZ ; 640
??_EnsStringKey@@UAEPAXI@Z ; 639
??ZnsInt64@@QAEAAV0@ABV0@@Z ; 638
?BuildOrderedFileArray@xptiInterfaceInfoManager@@AAEPAPAVnsILocalFile@@PAVnsISupportsArray@@PAVxptiWorkingSet@@@Z ; 638
??G@YA?BVnsInt64@@ABV0@0@Z ; 638
??1nsNSPRPath@@UAE@XZ ; 636
??BnsNSPRPath@@QBEPBDXZ ; 636
??0nsNSPRPath@@QAE@ABVnsFileSpec@@@Z ; 636
?IsDirectory@nsLocalFile@@UAGIPAH@Z ; 634
??B?$nsCOMPtr@VnsIThread@@@@QBEPAV?$nsDerivedSafe@VnsIThread@@@@XZ ; 630
?Count@nsHashtable@@QAEHXZ ; 629
?GetConstantCount@xptiInterfaceInfo@@UAGIPAG@Z ; 622
?Realloc@nsMemoryImpl@@UAGPAXPAXI@Z ; 616
?get@?$nsCOMPtr@VnsIModule@@@@QBEPAV?$nsDerivedSafe@VnsIModule@@@@XZ ; 614
?Close@nsStorageStream@@UAGIXZ ; 613
?ReallocLastSegment@nsSegmentedBuffer@@QAEHI@Z ; 612
?GetValueType@nsRegistry@@UAGIIPBDPAI@Z ; 608
?AddRef@nsObserverListEnumerator@@UAGKXZ ; 606
?Release@nsObserverListEnumerator@@UAGKXZ ; 606
?GetMethodCount@xptiInterfaceInfo@@UAGIPAG@Z ; 604
?get@?$nsCOMPtr@VnsIBidirectionalEnumerator@@@@QBEPAV?$nsDerivedSafe@VnsIBidirectionalEnumerator@@@@XZ ; 603
??1xptiFile@@QAE@XZ ; 594
?hash_enumerator@@YAHPAVnsHashKey@@PAX1@Z ; 591
?GetBufferLength@nsOpaqueKey@@QBEIXZ ; 588
?RFindCharInSet@nsStr@@SAHABU1@0HH@Z ; 580
?RFindCharInSet@nsCString@@QBEHPBDH@Z ; 579
??0nsWeakReference@@AAE@PAVnsSupportsWeakReference@@@Z ; 570
??0nsIWeakReference@@QAE@XZ ; 570
?get@?$nsCOMPtr@VnsIRegistry@@@@QBEPAV?$nsDerivedSafe@VnsIRegistry@@@@XZ ; 567
?GetCurrent@nsIThread@@SAIPAPAV1@@Z ; 563
?GetIThread@nsIThread@@SAIPAUPRThread@@PAPAV1@@Z ; 563
??C?$nsCOMPtr@VnsThreadPool@@@@QBEPAV?$nsDerivedSafe@VnsThreadPool@@@@XZ ; 562
?GetRequest@nsThreadPool@@QAEPAVnsIRunnable@@PAVnsIThread@@@Z ; 562
?AssignWithConversion@nsString@@QAEXPBDH@Z ; 552
?AppendWithConversion@nsCString@@QAEXPBGH@Z ; 552
?GrowCapacity@nsDeque@@AAEAAV1@XZ ; 549
??C?$nsCOMPtr@VnsIRegistry@@@@QBEPAV?$nsDerivedSafe@VnsIRegistry@@@@XZ ; 549
?QueryInterface@FileImpl@@UAGIABUnsID@@PAPAX@Z ; 542
?Exists@nsFileSpec@@QBEHXZ ; 540
??0nsAutoString@@QAE@PBGH@Z ; 535
?ReadStringZ@nsBinaryInputStream@@UAGIPAPAD@Z ; 530
??4nsFileSpec@@QAEXABV0@@Z ; 524
?Release@nsBinaryInputStream@@UAGKXZ ; 522
?Read8@nsBinaryInputStream@@UAGIPAE@Z ; 522
?AddRef@nsBinaryInputStream@@UAGKXZ ; 522
?AddItem@nsAVLTree@@QAE?AW4eAVLStatus@@PAX@Z ; 518
??0nsAVLNode@@QAE@PAX@Z ; 518
?AddRef@nsGenericModule@@UAGKXZ ; 518
??AnsSimpleCharString@@QAEAADI@Z ; 516
?IsLoaded@nsDll@@QAEHXZ ; 510
??B?$nsCOMPtr@VnsThreadPool@@@@QBEPAV?$nsDerivedSafe@VnsThreadPool@@@@XZ ; 494
??0nsThreadPoolBusyBody@@QAE@PAVnsThreadPool@@@Z ; 494
?DispatchRequest@nsThreadPool@@UAGIPAVnsIRunnable@@@Z ; 494
??1nsThreadPoolBusyBody@@QAE@XZ ; 494
??0?$already_AddRefed@VnsISupports@@@@QAE@PAVnsISupports@@@Z ; 492
??YnsFileSpec@@QAEXPBD@Z ; 473
?Count@nsSupportsHashtable@@QAEHXZ ; 458
?Release@nsGenericModule@@UAGKXZ ; 452
??B?$nsGetterAddRefs@VnsISupports@@@@QAEPAPAVnsISupports@@XZ ; 451
??1nsWeakReference@@EAE@XZ ; 449
??_EnsWeakReference@@EAEPAXI@Z ; 449
?DeleteLastSegment@nsSegmentedBuffer@@QAEHXZ ; 446
??0nsFileSpec@@QAE@XZ ; 440
?assign_assuming_AddRef@?$nsCOMPtr@VnsIFactory@@@@AAEXPAVnsIFactory@@@Z ; 438
??0nsIFileSpec@@QAE@XZ ; 435
??1nsSupportsHashtable@@UAE@XZ ; 430
?AddRef@nsSupportsStringImpl@@UAGKXZ ; 420
?Assert_NoQueryNeeded@?$nsCOMPtr@VnsIModule@@@@QAEXXZ ; 417
?Equals@xptiTypelib@@QBEHABV1@@Z ; 414
??0xptiInterfaceGuts@@QAE@PAUXPTInterfaceDescriptor@@ABVxptiTypelib@@PAVxptiWorkingSet@@@Z ; 414
?PartiallyResolveLocked@xptiInterfaceInfo@@QAEHPAUXPTInterfaceDescriptor@@PAVxptiWorkingSet@@@Z ; 414
??1?$nsCOMPtr@VnsISupportsArray@@@@QAE@XZ ; 413
?GetIID@?$nsCOMTypeInfo@VnsIProperties@@@@SAABUnsID@@XZ ; 411
?GetIID@nsIProperties@@SAABUnsID@@XZ ; 411
?get@?$nsCOMPtr@VnsIWeakReference@@@@QBEPAV?$nsDerivedSafe@VnsIWeakReference@@@@XZ ; 406
?QueryInterface@nsObserverListEnumerator@@UAGIABUnsID@@PAPAX@Z ; 405
?Release@nsSupportsStringImpl@@UAGKXZ ; 405
?MoveToIndex@nsObserverListEnumerator@@AAEII@Z ; 404
?IsDone@nsObserverListEnumerator@@UAGIXZ ; 404
??1?$nsCOMPtr@VnsIBidirectionalEnumerator@@@@QAE@XZ ; 402
?ReleaseService@nsServiceManager@@SAIPBDPAVnsISupports@@PAVnsIShutdownListener@@@Z ; 399
?ReleaseService@nsServiceManagerImpl@@UAGIPBDPAVnsISupports@@PAVnsIShutdownListener@@@Z ; 399
?PushFront@nsDeque@@QAEAAV1@PAX@Z ; 398
??0xptiFile@@QAE@XZ ; 396
?CopyFields@xptiFile@@AAEXABV1@@Z ; 396
??4xptiFile@@QAEAAV0@ABV0@@Z ; 396
?EnumerateBackwards@nsSupportsArray@@UAGHP6AHPAVnsISupports@@PAX@Z1@Z ; 392
??FnsDequeIterator@@QAEPAXXZ ; 391
??0nsDequeIterator@@QAE@ABVnsDeque@@H@Z ; 391
?End@nsDeque@@QBE?AVnsDequeIterator@@XZ ; 391
??0nsDequeIterator@@QAE@ABV0@@Z ; 391
?CloseStream@nsFileSpecImpl@@UAGIXZ ; 389
??4nsCAutoString@@QAEAAV0@ABV?$basic_nsAReadableString@D@@@Z ; 385
?IsUnknown@xptiFileType@@SAHPBD@Z ; 382
?GetLastModificationDate@nsLocalFile@@UAGIPA_J@Z ; 378
??0nsSlidingSubstring@@IAE@PAVnsSlidingSharedBufferList@@@Z ; 377
??1nsSlidingString@@UAE@XZ ; 377
??0nsSlidingString@@QAE@PAG00@Z ; 377
??_EnsFileSpecImpl@@UAEPAXI@Z ; 377
?NewWrappingBuffer@nsSharedBufferList@@SAPAVBuffer@1@PAG00@Z ; 377
??1nsFileSpecImpl@@UAE@XZ ; 377
?Canonify@nsFileSpecHelpers@@YAXAAVnsSimpleCharString@@H@Z ; 376
?Equals@nsOpaqueKey@@UBEHPBVnsHashKey@@@Z ; 372
?GetNext@nsAdapterEnumerator@@UAGIPAPAVnsISupports@@@Z ; 371
?getter_AddRefs@@YA?BU?$already_AddRefed@VnsISupports@@@@PAVnsISupports@@@Z ; 362
?strcasecmp@nsCRT@@SAHPBGPBD@Z ; 352
?SameFragment@@YAHABV?$nsWritingIterator@G@@0@Z ; 350
?write@?$nsCharSinkTraits@V?$ConvertToUpperCase@G@@@@SAIAAV?$ConvertToUpperCase@G@@PBGI@Z ; 350
?readable_distance@?$nsCharSourceTraits@V?$nsWritingIterator@G@@@@SAIABV?$nsWritingIterator@G@@0@Z ; 350
?copy_string@@YAAAV?$ConvertToUpperCase@G@@AAV?$nsWritingIterator@G@@ABV2@AAV1@@Z ; 350
?read@?$nsCharSourceTraits@V?$nsWritingIterator@G@@@@SAPBGABV?$nsWritingIterator@G@@@Z ; 350
?advance@?$nsCharSourceTraits@V?$nsWritingIterator@G@@@@SAXAAV?$nsWritingIterator@G@@H@Z ; 350
?write@?$ConvertToUpperCase@G@@QAEIPBGI@Z ; 350
?ToUpperCase@@YAXAAV?$basic_nsAWritableString@G@@@Z ; 350
?GetCString@nsFileSpec@@QBEPBDXZ ; 349
?AddRef@nsRegistry@@UAGKXZ ; 345
?GetIID@?$nsCOMTypeInfo@VnsIRegistry@@@@SAABUnsID@@XZ ; 343
?GetIID@nsIRegistry@@SAABUnsID@@XZ ; 343
?NoticeProxyDestruction@nsSupportsWeakReference@@AAEXXZ ; 342
?Load@nsDll@@QAEHXZ ; 341
?GetModule@nsDll@@QAEIPAVnsISupports@@PAPAVnsIModule@@@Z ; 340
??1?$nsGetterAddRefs@VnsIModule@@@@QAE@XZ ; 340
??B?$nsGetterAddRefs@VnsIModule@@@@QAEPAPAVnsIModule@@XZ ; 340
?AddRef@nsByteArrayInputStream@@UAGKXZ ; 340
?getter_AddRefs@@YA?AV?$nsGetterAddRefs@VnsIModule@@@@AAV?$nsCOMPtr@VnsIModule@@@@@Z ; 340
??0?$nsCOMPtr@VnsIModule@@@@QAE@XZ ; 340
?Release@nsByteArrayInputStream@@UAGKXZ ; 340
??0?$nsGetterAddRefs@VnsIModule@@@@QAE@AAV?$nsCOMPtr@VnsIModule@@@@@Z ; 340
?CreateDll@nsNativeComponentLoader@@AAEIPAVnsIFile@@PBDPA_J2PAPAVnsDll@@@Z ; 340
?StartAssignment@?$nsCOMPtr@VnsIModule@@@@QAEPAPAVnsIModule@@XZ ; 340
?QueryInterface@nsRegistry@@UAGIABUnsID@@PAPAX@Z ; 339
?Release@nsRegistry@@UAGKXZ ; 336
?Notify@nsObserverService@@UAGIPAVnsISupports@@PBG1@Z ; 335
??0?$nsCOMPtr@VnsISupports@@@@QAE@ABU?$already_AddRefed@VnsISupports@@@@@Z ; 333
?lt@?$nsCharTraits@G@@SAHABG0@Z ; 330
??1nsSubsumeCStr@@UAE@XZ ; 327
??0nsSubsumeCStr@@QAE@PADHH@Z ; 327
?GetFileSpec@nsFileSpecImpl@@UAGIPAVnsFileSpec@@@Z ; 326
?smprintf_free@nsTextFormatter@@SAXPAG@Z ; 323
?assign_assuming_AddRef@?$nsCOMPtr@VnsIInputStream@@@@AAEXPAVnsIInputStream@@@Z ; 321
?assign_from_helper@?$nsCOMPtr@VnsIInputStream@@@@AAEXABVnsCOMPtr_helper@@ABUnsID@@@Z ; 321
??1?$nsCOMPtr@VnsIGenericFactory@@@@QAE@XZ ; 320
?assign_assuming_AddRef@?$nsCOMPtr@VnsIGenericFactory@@@@AAEXPAVnsIGenericFactory@@@Z ; 320
?Assert_NoQueryNeeded@?$nsCOMPtr@VnsIGenericFactory@@@@QAEXXZ ; 320
?Fill@ConverterInputStream@@IAEHPAI@Z ; 317
?Fill@ByteBufferImpl@@UAGHPAIPAVnsIInputStream@@I@Z ; 317
_nsEscape ; 316
_nsEscapeCount ; 315
??0?$LossyConvertEncoding@GD@@QAE@PAD@Z ; 310
?AllocateStringCopy@@YAPADABV?$basic_nsAReadableString@G@@PAD@Z ; 310
?write_terminator@?$LossyConvertEncoding@GD@@QAEXXZ ; 310
?write@?$LossyConvertEncoding@GD@@QAEIPBGI@Z ; 310
?write@?$nsCharSinkTraits@V?$LossyConvertEncoding@GD@@@@SAIAAV?$LossyConvertEncoding@GD@@PBGI@Z ; 310
?copy_string@@YAAAV?$LossyConvertEncoding@GD@@AAV?$nsReadingIterator@G@@ABV2@AAV1@@Z ; 310
?ToNewCString@@YAPADABV?$basic_nsAReadableString@G@@@Z ; 310
??0?$nsCOMPtr@VnsIModule@@@@QAE@ABVnsQueryInterface@@@Z ; 307
??C?$nsCOMPtr@VnsIModule@@@@QBEPAV?$nsDerivedSafe@VnsIModule@@@@XZ ; 307
?assign_from_helper@?$nsCOMPtr@VnsIModule@@@@AAEXABVnsCOMPtr_helper@@ABUnsID@@@Z ; 307
?QueryInterface@nsDirectoryService@@UAGIABUnsID@@PAPAX@Z ; 304
?IsASCII@@YAHABV?$basic_nsAReadableString@G@@@Z ; 303
?AddRef@nsDirectoryService@@UAGKXZ ; 301
?AddItem@nsAVLTree@@QAE?AW4eAVLStatus@@PAX@Z ; 301
?Release@nsDirectoryService@@UAGKXZ ; 299
?assign_from_helper@?$nsCOMPtr@VnsIFactory@@@@AAEXABVnsCOMPtr_helper@@ABUnsID@@@Z ; 298
?AppendFile@xptiWorkingSet@@QAEXABVxptiFile@@@Z ; 297
?CurrentItem@nsHashtableEnumerator@@UAGIPAPAVnsISupports@@@Z ; 297
?NewMonitor@nsAutoMonitor@@SAPAUPRMonitor@@PBD@Z ; 297
??0?$nsCOMPtr@VnsIInputStream@@@@QAE@ABVnsQueryInterface@@@Z ; 297
?Next@nsHashtableEnumerator@@UAGIXZ ; 297
?IsDone@nsHashtableEnumerator@@UAGIXZ ; 297
?GetBuffer@nsOpaqueKey@@QBEPBDXZ ; 294
?Exit@nsAutoCMonitor@@QAEXXZ ; 292
?Enter@nsAutoCMonitor@@QAEXXZ ; 292
?QueryInterface@nsGenericModule@@UAGIABUnsID@@PAPAX@Z ; 292
??_G?$nsPromiseReadable@D@@UAEPAXI@Z ; 282
??_EnsNamedVector@@UAEPAXI@Z ; 282
??1nsNamedVector@@UAE@XZ ; 282
??0nsAutoLockBase@@IAE@PAXW4nsAutoLockType@0@@Z ; 282
?DestroyMonitor@nsAutoMonitor@@SAXPAUPRMonitor@@@Z ; 282
?AddRef@nsSupportsPRInt32Impl@@UAGKXZ ; 280
?AppendWithConversion@nsCString@@QAEXABV?$basic_nsAReadableString@G@@@Z ; 276
?vsnprintf@nsTextFormatter@@SAIPAGIPBGPAD@Z ; 276
?MakeInterface@nsFileSpecImpl@@SAIABVnsFileSpec@@PAPAVnsIFileSpec@@@Z ; 273
??0nsFileSpecImpl@@QAE@ABVnsFileSpec@@@Z ; 273
?ReadBytes@nsBinaryInputStream@@UAGIPAPADI@Z ; 269
?Release@EmptyEnumeratorImpl@@UAGKXZ ; 265
?NS_NewFileSpecWithSpec@@YAIABVnsFileSpec@@PAPAVnsIFileSpec@@@Z ; 264
?fputs@@YAHABVnsString@@PAU_iobuf@@@Z ; 263
_NS_NewEmptyEnumerator ; 263
?HasMoreElements@EmptyEnumeratorImpl@@UAGIPAH@Z ; 262
??0?$nsCOMPtr@VnsIInputStream@@@@QAE@PAVnsIInputStream@@@Z ; 261
?ReadFloat@nsBinaryInputStream@@UAGIPAM@Z ; 261
?NS_NewBinaryInputStream@@YAIPAPAVnsIBinaryInputStream@@PAVnsIInputStream@@@Z ; 261
?GetIID@?$nsCOMTypeInfo@VnsIBinaryInputStream@@@@SAABUnsID@@XZ ; 261
??0nsIBinaryInputStream@@QAE@XZ ; 261
?Assert_NoQueryNeeded@?$nsCOMPtr@VnsIInputStream@@@@QAEXXZ ; 261
?QueryInterface@nsBinaryInputStream@@UAGIABUnsID@@PAPAX@Z ; 261
?Read16@nsBinaryInputStream@@UAGIPAG@Z ; 261
??0nsBinaryInputStream@@QAE@PAVnsIInputStream@@@Z ; 261
?GetIID@nsIBinaryInputStream@@SAABUnsID@@XZ ; 261
??1nsBinaryInputStream@@UAE@XZ ; 261
??_GnsBinaryInputStream@@UAEPAXI@Z ; 261
_NS_NewByteInputStream ; 261
?GetFactory@nsNativeComponentLoader@@UAGIABUnsID@@PBD1PAPAVnsIFactory@@@Z ; 255
??4?$nsCOMPtr@VnsIFile@@@@QAEAAV0@PAVnsIFile@@@Z ; 255
??4?$nsCOMPtr@VnsIFactory@@@@QAEAAV0@ABVnsQueryInterface@@@Z ; 255
?assign_with_AddRef@?$nsCOMPtr@VnsIFile@@@@AAEXPAVnsISupports@@@Z ; 255
?GetFactoryFromModule@nsNativeComponentLoader@@AAEIPAVnsDll@@ABUnsID@@PAPAVnsIFactory@@@Z ; 255
??B?$nsGetterAddRefs@VnsILocalFile@@@@QAEPAPAXXZ ; 246
?Flush@FileImpl@@UAGIXZ ; 245
??1nsSubsumeStr@@UAE@XZ ; 239
?Release@nsSupportsPRInt32Impl@@UAGKXZ ; 239
?GetIsOpen@FileImpl@@UAGIPAH@Z ; 237
??0nsIFactory@@QAE@XZ ; 234
??0xptiTypelibGuts@@QAE@PAUXPTHeader@@@Z ; 233
?IsValid@xptiTypelibGuts@@QBEHXZ ; 233
?FindInReadable@@YAHABV?$basic_nsAReadableString@G@@AAV?$nsReadingIterator@G@@1@Z ; 232
?get@?$nsCOMPtr@VnsIOpenFile@@@@QBEPAV?$nsDerivedSafe@VnsIOpenFile@@@@XZ ; 232
?SetDestructor@nsGenericFactory@@UAGIP6GIXZ@Z ; 232
?FindInReadable_Impl@@YAHABV?$basic_nsAReadableString@G@@AAV?$nsReadingIterator@G@@1@Z ; 232
??0nsIGenericFactory@@QAE@XZ ; 231
?NS_NewGenericFactory@@YAIPAPAVnsIGenericFactory@@P6GIPAVnsISupports@@ABUnsID@@PAPAX@ZP6GIXZ@Z ; 231
??0nsGenericFactory@@QAE@P6GIPAVnsISupports@@ABUnsID@@PAPAX@Z@Z ; 231
?SetConstructor@nsGenericFactory@@UAGIP6GIPAVnsISupports@@ABUnsID@@PAPAX@Z@Z ; 231
?Create@nsGenericFactory@@SGIPAVnsISupports@@ABUnsID@@PAPAX@Z ; 231
?GetBuffer@ByteBufferImpl@@UBGPADXZ ; 227
?GetBufferSize@UnicharBufferImpl@@UBGHXZ ; 227
?Write@nsPipeOutputStream@nsPipe@@UAGIPBDIPAI@Z ; 224
?GetIID@nsIObserver@@SAABUnsID@@XZ ; 222
?GetIID@?$nsCOMTypeInfo@VnsIObserver@@@@SAABUnsID@@XZ ; 222
?Write@nsPipeOutputStream@nsPipe@@UAGIPBDIPAI@Z ; 220
?GetIID@?$nsCOMTypeInfo@VnsISupportsString@@@@SAABUnsID@@XZ ; 217
?GetIID@nsISupportsString@@SAABUnsID@@XZ ; 217
?assign_assuming_AddRef@?$nsCOMPtr@VnsISupportsArray@@@@AAEXPAVnsISupportsArray@@@Z ; 215
?assign_from_helper@?$nsCOMPtr@VnsIObserverService@@@@AAEXABVnsCOMPtr_helper@@ABUnsID@@@Z ; 212
?assign_assuming_AddRef@?$nsCOMPtr@VnsIObserverService@@@@AAEXPAVnsIObserverService@@@Z ; 212
?get@?$nsCOMPtr@VnsIObserverService@@@@QBEPAV?$nsDerivedSafe@VnsIObserverService@@@@XZ ; 212
??1?$nsCOMPtr@VnsIObserverService@@@@QAE@XZ ; 212
??C?$nsCOMPtr@VnsIOutputStreamObserver@@@@QBEPAV?$nsDerivedSafe@VnsIOutputStreamObserver@@@@XZ ; 211
?assign_assuming_AddRef@?$nsCOMPtr@VnsIRunnable@@@@AAEXPAVnsIRunnable@@@Z ; 211
?assign_from_helper@?$nsCOMPtr@VnsISupportsArray@@@@AAEXABVnsCOMPtr_helper@@ABUnsID@@@Z ; 210
?QueryInterface@nsSupportsStringImpl@@UAGIABUnsID@@PAPAX@Z ; 210
??0?$nsCOMPtr@VnsISupportsArray@@@@QAE@ABVnsQueryInterface@@@Z ; 208
?Assert_NoQueryNeeded@?$nsCOMPtr@VnsISupportsArray@@@@QAEXXZ ; 208
??B?$nsCOMPtr@VnsIInputStream@@@@QBEPAV?$nsDerivedSafe@VnsIInputStream@@@@XZ ; 205
?QueryInterface@nsByteArrayInputStream@@UAGIABUnsID@@PAPAX@Z ; 204
?AddRef@nsThreadPoolRunnable@@UAGKXZ ; 204
?CurrentItem@nsObserverListEnumerator@@UAGIPAPAVnsISupports@@@Z ; 203
??1?$nsCOMPtr@VnsIWeakReference@@@@QAE@XZ ; 203
?assign_assuming_AddRef@?$nsCOMPtr@VnsIWeakReference@@@@AAEXPAVnsIWeakReference@@@Z ; 203
??0?$nsCOMPtr@VnsIWeakReference@@@@QAE@ABVnsQueryInterface@@@Z ; 203
?assign_from_helper@?$nsCOMPtr@VnsIWeakReference@@@@AAEXABVnsCOMPtr_helper@@ABUnsID@@@Z ; 203
?Release@nsThreadPoolRunnable@@UAGKXZ ; 203
?Next@nsObserverListEnumerator@@UAGIXZ ; 203
??B?$nsCOMPtr@VnsIWeakReference@@@@QBEPAV?$nsDerivedSafe@VnsIWeakReference@@@@XZ ; 203
??C?$nsCOMPtr@VnsIWeakReference@@@@QBEPAV?$nsDerivedSafe@VnsIWeakReference@@@@XZ ; 203
?assign_from_helper@?$nsCOMPtr@VnsIBidirectionalEnumerator@@@@AAEXABVnsCOMPtr_helper@@ABUnsID@@@Z ; 201
??0nsObserverListEnumerator@@QAE@PAVnsISupportsArray@@@Z ; 201
??_EnsObserverListEnumerator@@UAEPAXI@Z ; 201
?First@nsObserverListEnumerator@@UAGIXZ ; 201
??0?$nsCOMPtr@VnsISupportsArray@@@@QAE@PAVnsISupportsArray@@@Z ; 201
?assign_assuming_AddRef@?$nsCOMPtr@VnsIBidirectionalEnumerator@@@@AAEXPAVnsIBidirectionalEnumerator@@@Z ; 201
?CallQueryInterface@@YAIAAV?$nsCOMPtr@VnsIBidirectionalEnumerator@@@@PAPAVnsIEnumerator@@@Z ; 201
??B?$nsCOMPtr@VnsIBidirectionalEnumerator@@@@QBEPAV?$nsDerivedSafe@VnsIBidirectionalEnumerator@@@@XZ ; 201
??1nsObserverListEnumerator@@UAE@XZ ; 201
??0?$nsCOMPtr@VnsIBidirectionalEnumerator@@@@QAE@ABVnsQueryInterface@@@Z ; 201
?Assert_NoQueryNeeded@?$nsCOMPtr@VnsIBidirectionalEnumerator@@@@QAEXXZ ; 201
?CallQueryInterface@@YAIPAVnsISupports@@PAPAVnsIEnumerator@@@Z ; 201
??0?$nsCOMPtr@VnsIBidirectionalEnumerator@@@@QAE@PAVnsIBidirectionalEnumerator@@@Z ; 201
?OpenNSPRFileDesc@nsLocalFile@@UAGIHHPAPAUPRFileDesc@@@Z ; 199
?GetSize@xptiFile@@QBEABVnsInt64@@XZ ; 198
?GetDate@xptiFile@@QBEABVnsInt64@@XZ ; 198
??_GxptiTypelibGuts@@QAEPAXI@Z ; 198
??1xptiTypelibGuts@@QAE@XZ ; 198
??9@YAHABVnsInt64@@0@Z ; 198
??BnsInt64@@QBE_JXZ ; 198
??0xptiFile@@QAE@ABVnsInt64@@0PBDPAVxptiWorkingSet@@PAUXPTHeader@@@Z ; 198
?AutoRegisterComponent@nsNativeComponentLoader@@UAGIHPAVnsIFile@@PAH@Z ; 192
??B?$nsGetterAddRefs@VnsIFile@@@@QAEPAPAVnsISupports@@XZ ; 192
?GetSubtreeRaw@nsRegistry@@UAGIIPBDPAI@Z ; 191
?PostSynchronousEvent@nsEventQueueImpl@@UAGIPAUPLEvent@@PAPAX@Z ; 190
??6nsOutputStream@@QAEAAV0@P6AAAV0@AAV0@@Z@Z ; 187
?nsEndl@@YAAAVnsOutputStream@@AAV1@@Z ; 187
?GetIID@?$nsCOMTypeInfo@VnsIFileOutputStream@@@@SAABUnsID@@XZ ; 184
?GetIID@nsIFileOutputStream@@SAABUnsID@@XZ ; 184
?GetIID@?$nsCOMTypeInfo@VnsIArena@@@@SAABUnsID@@XZ ; 183
?GetIID@nsIArena@@SAABUnsID@@XZ ; 183
?AddRef@ArenaImpl@@UAGKXZ ; 183
?SetLongLong@nsRegistry@@UAGIIPBDPA_J@Z ; 180
?read@nsInputStream@@QAEHPAXH@Z ; 179
?Read@FileImpl@@UAGIPADIPAI@Z ; 179
?get@?$nsCOMPtr@VnsICharsetConverterManager@@@@QBEPAV?$nsDerivedSafe@VnsICharsetConverterManager@@@@XZ ; 178
?AddSubtree@nsRegistry@@UAGIIPBDPAI@Z ; 177
?SetActivityIsLegal@nsTraceRefcnt@@SAXH@Z ; 177
?GetCompleted@nsProxyObjectCallInfo@@QAEHXZ ; 175
?assign_assuming_AddRef@?$nsCOMPtr@VnsICharsetConverterManager@@@@AAEXPAVnsICharsetConverterManager@@@Z ; 174
?GetIID@?$nsCOMTypeInfo@VnsICharsetConverterManager@@@@SAABUnsID@@XZ ; 174
??1?$nsCOMPtr@VnsICharsetConverterManager@@@@QAE@XZ ; 174
?assign_from_helper@?$nsCOMPtr@VnsICharsetConverterManager@@@@AAEXABVnsCOMPtr_helper@@ABUnsID@@@Z ; 174
?GetIID@nsICharsetConverterManager@@SAABUnsID@@XZ ; 174
??1nsPersistentProperties@@UAE@XZ ; 169
??0nsSubsumeStr@@QAE@PAGHH@Z ; 169
??4nsFileSpec@@QAEXABVnsFilePath@@@Z ; 168
?Close@FileImpl@@UAGIXZ ; 164
?GetIID@nsIFileInputStream@@SAABUnsID@@XZ ; 162
?Create@nsFileSpecImpl@@SGIPAVnsISupports@@ABUnsID@@PAPAX@Z ; 162
??0nsFileSpecImpl@@QAE@XZ ; 162
?GetDllSpec@nsDll@@QAEIPAPAVnsIFile@@@Z ; 162
?NS_NewFileSpec@@YAIPAPAVnsIFileSpec@@@Z ; 162
?GetIID@?$nsCOMTypeInfo@VnsIFileInputStream@@@@SAABUnsID@@XZ ; 162
??0?$nsCOMPtr@VnsIGenericFactory@@@@QAE@ABU?$already_AddRefed@VnsIGenericFactory@@@@@Z ; 160
?getter_AddRefs@@YA?BU?$already_AddRefed@VnsIGenericFactory@@@@PAVnsIGenericFactory@@@Z ; 160
?IsOpen@nsRegistry@@UAGIPAH@Z ; 160
?GetIID@?$nsCOMTypeInfo@VnsIByteBuffer@@@@SAABUnsID@@XZ ; 160
?AddRef@ByteBufferImpl@@UAGKXZ ; 160
?GetIID@nsIUnicharBuffer@@SAABUnsID@@XZ ; 160
?assign_from_helper@?$nsCOMPtr@VnsIGenericFactory@@@@AAEXABVnsCOMPtr_helper@@ABUnsID@@@Z ; 160
??B?$nsCOMPtr@VnsIGenericFactory@@@@QBEPAV?$nsDerivedSafe@VnsIGenericFactory@@@@XZ ; 160
??8@YAHABV?$nsCOMPtr@VnsIGenericFactory@@@@PAVNSCAP_Zero@@@Z ; 160
??C?$nsCOMPtr@VnsIGenericFactory@@@@QBEPAV?$nsDerivedSafe@VnsIGenericFactory@@@@XZ ; 160
?getter_AddRefs@@YA?AV?$nsGetterAddRefs@VnsIGenericFactory@@@@AAV?$nsCOMPtr@VnsIGenericFactory@@@@@Z ; 160
?Release@ByteBufferImpl@@UAGKXZ ; 160
?StartAssignment@?$nsCOMPtr@VnsIGenericFactory@@@@QAEPAPAVnsIGenericFactory@@XZ ; 160
??0?$already_AddRefed@VnsIGenericFactory@@@@QAE@PAVnsIGenericFactory@@@Z ; 160
?AddRef@UnicharBufferImpl@@UAGKXZ ; 160
??1?$nsGetterAddRefs@VnsIGenericFactory@@@@QAE@XZ ; 160
??0?$nsGetterAddRefs@VnsIGenericFactory@@@@QAE@AAV?$nsCOMPtr@VnsIGenericFactory@@@@@Z ; 160
??0?$nsCOMPtr@VnsIGenericFactory@@@@QAE@ABVnsQueryInterface@@@Z ; 160
??B?$nsGetterAddRefs@VnsIGenericFactory@@@@QAEPAPAVnsIGenericFactory@@XZ ; 160
?GetIID@nsIByteBuffer@@SAABUnsID@@XZ ; 160
?Release@UnicharBufferImpl@@UAGKXZ ; 160
?GetIID@?$nsCOMTypeInfo@VnsIUnicharBuffer@@@@SAABUnsID@@XZ ; 160
?GetClassObject@nsGenericModule@@UAGIPAVnsIComponentManager@@ABUnsID@@1PAPAX@Z ; 160
??4?$nsCOMPtr@VnsISupports@@@@QAEAAV0@ABU?$already_AddRefed@VnsISupports@@@@@Z ; 159
?do_GetService@@YA?BVnsGetServiceByContractID@@PBDPAI@Z ; 159
?Release@ArenaImpl@@UAGKXZ ; 157
?SetDeallocator@nsDeque@@QAEXPAVnsDequeFunctor@@@Z ; 153
?get@?$nsCOMPtr@VnsIProperties@@@@QBEPAV?$nsDerivedSafe@VnsIProperties@@@@XZ ; 152
??BnsFileSpec@@QBEPBDXZ ; 151
_DllMain@12 ; 149
?GetData@nsPersistentFileDescriptor@@QBEXAAVnsSimpleCharString@@@Z ; 147
?GetPersistentDescriptorString@nsFileSpecImpl@@UAGIPAPAD@Z ; 147
?Failed@nsFileSpec@@QBEHXZ ; 147
??4nsPersistentFileDescriptor@@QAEXABVnsFileSpec@@@Z ; 147
??0nsPersistentFileDescriptor@@QAE@ABVnsFileSpec@@@Z ; 147
??1nsPersistentFileDescriptor@@UAE@XZ ; 147
?get@?$nsCOMPtr@VnsIRunnable@@@@QBEPAV?$nsDerivedSafe@VnsIRunnable@@@@XZ ; 144
?FindSymbol@nsDll@@QAEPAXPBD@Z ; 143
?do_InsertFromElementPtrLength@?$basic_nsAWritableString@G@@MAEXPBGII@Z ; 143
??1?$nsCOMPtr@VnsIFactory@@@@QAE@XZ ; 141
?GetIID@?$nsCOMTypeInfo@VnsIRunnable@@@@SAABUnsID@@XZ ; 141
?GetIID@nsIRunnable@@SAABUnsID@@XZ ; 141
?Assert_NoQueryNeeded@?$nsCOMPtr@VnsIRunnable@@@@QAEXXZ ; 139
?assign_with_AddRef@?$nsCOMPtr@VnsIFactory@@@@AAEXPAVnsISupports@@@Z ; 139
??1?$nsCOMPtr@VnsIRunnable@@@@QAE@XZ ; 139
?assign_with_AddRef@?$nsCOMPtr@VnsIRunnable@@@@AAEXPAVnsISupports@@@Z ; 139
??4?$nsCOMPtr@VnsIFactory@@@@QAEAAV0@PAVnsIFactory@@@Z ; 139
??4?$nsCOMPtr@VnsIRunnable@@@@QAEAAV0@PAVnsIRunnable@@@Z ; 139
?vsnprintf@nsTextFormatter@@SAIPAGIPBGPAD@Z ; 138
?assign_assuming_AddRef@?$nsCOMPtr@VnsIRandomAccessStore@@@@AAEXPAVnsIRandomAccessStore@@@Z ; 138
?snprintf@nsTextFormatter@@SAIPAGIPBGZZ ; 138
?assign_from_helper@?$nsCOMPtr@VnsIOpenFile@@@@AAEXABVnsCOMPtr_helper@@ABUnsID@@@Z ; 138
?assign_from_helper@?$nsCOMPtr@VnsIRandomAccessStore@@@@AAEXABVnsCOMPtr_helper@@ABUnsID@@@Z ; 138
?assign_assuming_AddRef@?$nsCOMPtr@VnsIOpenFile@@@@AAEXPAVnsIOpenFile@@@Z ; 138
?AddRef@nsThreadPool@@UAGKXZ ; 138
?GetIID@nsIThreadPool@@SAABUnsID@@XZ ; 137
?GetIID@?$nsCOMTypeInfo@VnsISupportsPRInt32@@@@SAABUnsID@@XZ ; 136
?GetStructArena@xptiWorkingSet@@QAEPAUXPTArena@@XZ ; 136
_PL_PostSynchronousEvent ; 136
?QueryInterface@nsSupportsPRInt32Impl@@UAGIABUnsID@@PAPAX@Z ; 136
?Release@nsThreadPool@@UAGKXZ ; 136
?GetIID@nsISupportsPRInt32@@SAABUnsID@@XZ ; 136
??1?$nsCOMPtr@VnsThreadPool@@@@QAE@XZ ; 135
?ReadXPTFile@xptiInterfaceInfoManager@@AAEPAUXPTHeader@@PAVnsILocalFile@@PAVxptiWorkingSet@@@Z ; 134
?SetHeader@xptiFile@@QAEHPAUXPTHeader@@@Z ; 134
?Unescape@nsSimpleCharString@@QAEXXZ ; 132
??0nsFilePath@@QAE@PBDH@Z ; 132
?Get@nsDirectoryService@@UAGIPBDABUnsID@@PAPAX@Z ; 130
?dont_AddRef@@YA?BU?$already_AddRefed@VnsISupports@@@@PAVnsISupports@@@Z ; 130
?copy_string@@YAAAV?$LossyConvertEncoding@DG@@AAV?$nsReadingIterator@D@@ABV2@AAV1@@Z ; 129
??0?$LossyConvertEncoding@DG@@QAE@PAG@Z ; 129
?CopyASCIItoUCS2@@YAXABV?$basic_nsAReadableString@D@@AAV?$basic_nsAWritableString@G@@@Z ; 129
?GetWorkingSet@xptiInterfaceInfoManager@@QAEPAVxptiWorkingSet@@XZ ; 128
?ResolveLocked@xptiInterfaceInfo@@AAEHPAVxptiWorkingSet@@@Z ; 128
??0nsErrorProne@@QAE@XZ ; 128
??0nsIFileInputStream@@QAE@XZ ; 127
?Open@FileImpl@@UAGIABVnsFileSpec@@HH@Z ; 127
??0FileImpl@@QAE@ABVnsFileSpec@@HH@Z ; 127
??0nsIFileOutputStream@@QAE@XZ ; 127
?write@?$LossyConvertEncoding@DG@@QAEIPBDI@Z ; 127
_NS_NewIOFileStream ; 127
??0nsIOpenFile@@QAE@XZ ; 127
?write@?$nsCharSinkTraits@V?$LossyConvertEncoding@DG@@@@SAIAAV?$LossyConvertEncoding@DG@@PBDI@Z ; 127
??1FileImpl@@UAE@XZ ; 126
??_GFileImpl@@UAEPAXI@Z ; 126
??B?$nsCOMPtr@VnsIOpenFile@@@@QBEPAV?$nsDerivedSafe@VnsIOpenFile@@@@XZ ; 122
?NoticeReferentDestruction@nsWeakReference@@AAEXXZ ; 121
??0nsServiceEntry@@QAE@ABUnsID@@PAVnsISupports@@@Z ; 121
?GetResolveLock@xptiInterfaceInfoManager@@SAPAUPRLock@@PAV1@@Z ; 120
?Resolve@xptiInterfaceInfo@@AAEHPAVxptiWorkingSet@@@Z ; 120
?EnsureResolvedLocked@xptiInterfaceInfo@@AAEHPAVxptiWorkingSet@@@Z ; 120
??0nsFileClient@@IAE@XZ ; 117
??0?$nsCOMPtr@VnsIRandomAccessStore@@@@QAE@XZ ; 117
??0nsRandomAccessStoreClient@@QAE@XZ ; 117
??0?$nsCOMPtr@VnsIOpenFile@@@@QAE@XZ ; 117
??4?$nsCOMPtr@VnsIRandomAccessStore@@@@QAEAAV0@ABVnsQueryInterface@@@Z ; 116
??4?$nsCOMPtr@VnsIOpenFile@@@@QAEAAV0@ABVnsQueryInterface@@@Z ; 116
?GetIID@nsIDirectoryServiceProvider@@SAABUnsID@@XZ ; 114
?GetIID@?$nsCOMTypeInfo@VnsIDirectoryServiceProvider@@@@SAABUnsID@@XZ ; 114
??0nsFileSpec@@QAE@PBDH@Z ; 111
?is_open@nsFileClient@@QBEHXZ ; 111
?ConvertUnknownBreaks@@YAPADPBDAAH0@Z ; 110
??C?$nsCOMPtr@VnsIOpenFile@@@@QBEPAV?$nsDerivedSafe@VnsIOpenFile@@@@XZ ; 110
?ConvertLineBreaks@nsLinebreakConverter@@SAPADPBDW4ELinebreakType@1@1HPAH@Z ; 110
?ConvertLineBreaks@nsLinebreakConverter@@SAPADPBDW4ELinebreakType@1@1HPAH@Z ; 110
?FromFileSpec@nsFileSpecImpl@@UAGIPBVnsIFileSpec@@@Z ; 109
?ReplaceChar@nsString@@QAEXGG@Z ; 107
??0NS_ConvertUCS2toUTF8@@QAE@PBGI@Z ; 107
??0?$nsCOMPtr@VnsIObserverService@@@@QAE@ABVnsQueryInterface@@@Z ; 106
?assign_assuming_AddRef@?$nsCOMPtr@VnsIProperties@@@@AAEXPAVnsIProperties@@@Z ; 106
??C?$nsCOMPtr@VnsIObserverService@@@@QBEPAV?$nsDerivedSafe@VnsIObserverService@@@@XZ ; 106
?Assert_NoQueryNeeded@?$nsCOMPtr@VnsIObserverService@@@@QAEXXZ ; 106
?Close@ConverterInputStream@@UAGIXZ ; 106
??1?$nsCOMPtr@VnsIProperties@@@@QAE@XZ ; 106
??0?$nsCOMPtr@VnsIObserverService@@@@QAE@ABVnsCOMPtr_helper@@@Z ; 106
?Notify@nsAutoCMonitor@@QAEIXZ ; 105
?Find@nsCString@@QBEHABUnsStr@@HHH@Z ; 103
?Fill@nsPipeInputStream@nsPipe@@QAEIXZ ; 102
?Delete@nsLocalFile@@UAGIH@Z ; 100
?assign_from_helper@?$nsCOMPtr@VnsIProperties@@@@AAEXABVnsCOMPtr_helper@@ABUnsID@@@Z ; 99
?AddObserver@nsObserverList@@UAGIPAPAVnsIObserver@@@Z ; 99
?AddObserver@nsObserverService@@UAGIPAVnsIObserver@@PBG@Z ; 99
?Clone@xptiTypelibGuts@@QAEPAV1@XZ ; 99
??EnsDirectoryIterator@@QAEAAV0@XZ ; 99
?QueryInterface@ArenaImpl@@UAGIABUnsID@@PAPAX@Z ; 99
??0xptiFile@@QAE@ABV0@PAVxptiWorkingSet@@H@Z ; 99
?Exists@nsDirectoryIterator@@QBEHXZ ; 99
??_GnsFactoryEntry@@QAEPAXI@Z ; 97
??1nsFactoryEntry@@QAE@XZ ; 97
_nsEscapeHTML ; 96
??1nsNamedVector@@UAE@XZ ; 95
?get@?$nsCOMPtr@VnsIDirectoryServiceProvider@@@@QBEPAV?$nsDerivedSafe@VnsIDirectoryServiceProvider@@@@XZ ; 94
?SetFromFileSpec@nsFileSpecImpl@@UAGIABVnsFileSpec@@@Z ; 93
?AllocateBuffers@FileImpl@@IAEIII@Z ; 92
?AssignFrom@nsOutputFileStream@@IAEXPAVnsISupports@@@Z ; 92
??0nsOutputStream@@QAE@PAVnsIOutputStream@@@Z ; 92
??4?$nsCOMPtr@VnsIFileOutputStream@@@@QAEAAV0@ABVnsQueryInterface@@@Z ; 92
??0nsRandomAccessOutputStream@@IAE@XZ ; 92
??4?$nsCOMPtr@VnsIOutputStream@@@@QAEAAV0@ABVnsQueryInterface@@@Z ; 92
??0?$nsCOMPtr@VnsIFileOutputStream@@@@QAE@XZ ; 92
?assign_assuming_AddRef@?$nsCOMPtr@VnsIFileOutputStream@@@@AAEXPAVnsIFileOutputStream@@@Z ; 92
?assign_from_helper@?$nsCOMPtr@VnsIFileOutputStream@@@@AAEXABVnsCOMPtr_helper@@ABUnsID@@@Z ; 92
??4nsFileSpec@@QAEXPBD@Z ; 91
??0nsOutputFileStream@@QAE@ABVnsFileSpec@@HH@Z ; 91
?Release@ConverterInputStream@@UAGKXZ ; 90
?WaitForEvent@nsEventQueueImpl@@UAGIPAPAUPLEvent@@@Z ; 90
_PL_WaitForEvent ; 90
?HandleEvent@nsEventQueueImpl@@UAGIPAUPLEvent@@@Z ; 90
?AddRef@ConverterInputStream@@UAGKXZ ; 90
?LoadLibrarySymbols@nsTraceRefcnt@@SAXPBDPAX@Z ; 88
??EnsDirectoryIterator@@QAEAAV0@H@Z ; 87
?Assert_NoQueryNeeded@?$nsCOMPtr@VnsICharsetConverterManager@@@@QAEXXZ ; 87
??0?$nsCOMPtr@VnsICharsetConverterManager@@@@QAE@ABVnsCOMPtr_helper@@@Z ; 87
??0?$nsCOMPtr@VnsICharsetConverterManager@@@@QAE@ABVnsQueryInterface@@@Z ; 87
??C?$nsCOMPtr@VnsICharsetConverterManager@@@@QBEPAV?$nsDerivedSafe@VnsICharsetConverterManager@@@@XZ ; 87
??0nsObjectHashtable@@QAE@P6APAXPAVnsHashKey@@PAX1@Z1P6AH011@Z1IH@Z ; 86
??0nsSupportsStringImpl@@QAE@XZ ; 86
??0nsISupportsString@@QAE@XZ ; 86
?SetDataWithLength@nsSupportsStringImpl@@UAGIIPBD@Z ; 86
?GetCID@nsDirectoryService@@SAABUnsID@@XZ ; 86
?IsNotXPCOM@nsXPTMethodInfo@@QBEHXZ ; 85
?Load@nsLocalFile@@UAGIPAPAUPRLibrary@@@Z ; 85
?GetLastModifiedTime@nsDll@@QAEXPA_J@Z ; 85
?Sync@nsDll@@QAEIXZ ; 85
?Init@nsDll@@AAEXPAVnsIFile@@@Z ; 85
?HasChanged@nsDll@@QAEHXZ ; 85
??8@YAHABV?$nsCOMPtr@VnsIEventQueueService@@@@PAVNSCAP_Zero@@@Z ; 85
?GetSize@nsDll@@QAEXPA_J@Z ; 85
?SetCallersQueue@nsProxyObjectCallInfo@@QAEXPAVnsIEventQueue@@@Z ; 85
??0nsDll@@QAE@PAVnsIFile@@PBDPA_J2@Z ; 85
?GetStatus@nsDll@@QAE?AW4nsDllStatus@@XZ ; 85
?GetRegistryDllInfo@nsNativeComponentLoader@@AAEIPBDPA_J1@Z ; 85
?SelfRegisterDll@nsNativeComponentLoader@@AAEIPAVnsDll@@PBDH@Z ; 85
?GetPLEvent@nsProxyObjectCallInfo@@QBEPAUPLEvent@@XZ ; 85
?SetRegistryDllInfo@nsNativeComponentLoader@@AAEIPBDPA_J1@Z ; 85
?IsNotXPCOM@nsXPTMethodInfo@@QBEHXZ ; 85
?PostAndWait@nsProxyObject@@QAEIPAVnsProxyObjectCallInfo@@@Z ; 85
?Create@ArenaImpl@@SGIPAVnsISupports@@ABUnsID@@PAPAX@Z ; 84
?Init@ArenaImpl@@UAGII@Z ; 84
??0ArenaImpl@@QAE@XZ ; 84
?NS_NewHeapArena@@YAIPAPAVnsIArena@@I@Z ; 84
??0nsIArena@@QAE@XZ ; 84
?SetData@nsSupportsStringImpl@@UAGIPBD@Z ; 83
?AppendElements@nsSupportsArray@@UAGHPAVnsISupportsArray@@@Z ; 83
?GetIndexOf@nsSupportsArray@@UAGIPAVnsISupports@@PAH@Z ; 82
??0CBufDescriptor@@QAE@PBGHIH@Z ; 82
??1UnicharBufferImpl@@UAE@XZ ; 80
?NS_NewByteBuffer@@YAIPAPAVnsIByteBuffer@@PAVnsISupports@@I@Z ; 80
?Create@UnicharBufferImpl@@SGIPAVnsISupports@@ABUnsID@@PAPAX@Z ; 80
??1ConverterInputStream@@UAE@XZ ; 80
?NS_NewConverterStream@@YAIPAPAVnsIUnicharInputStream@@PAVnsISupports@@PAVnsIInputStream@@HPAVnsString@@@Z ; 80
?Init@ByteBufferImpl@@UAGII@Z ; 80
?QueryInterface@ByteBufferImpl@@UAGIABUnsID@@PAPAX@Z ; 80
??0ConverterInputStream@@QAE@PAVnsIInputStream@@PAVnsIUnicodeDecoder@@I@Z ; 80
?QueryInterface@ConverterInputStream@@UAGIABUnsID@@PAPAX@Z ; 80
??0UnicharBufferImpl@@QAE@XZ ; 80
??0ByteBufferImpl@@QAE@XZ ; 80
??0nsIUnicharBuffer@@QAE@XZ ; 80
?Create@ByteBufferImpl@@SGIPAVnsISupports@@ABUnsID@@PAPAX@Z ; 80
?NS_NewB2UConverter@@YAIPAPAVnsIUnicodeDecoder@@PAVnsISupports@@PAVnsString@@@Z ; 80
?Init@UnicharBufferImpl@@UAGII@Z ; 80
??_EUnicharBufferImpl@@UAEPAXI@Z ; 80
??_EByteBufferImpl@@UAEPAXI@Z ; 80
??0nsIByteBuffer@@QAE@XZ ; 80
??_EConverterInputStream@@UAEPAXI@Z ; 80
?NS_NewUnicharBuffer@@YAIPAPAVnsIUnicharBuffer@@PAVnsISupports@@I@Z ; 80
??1ByteBufferImpl@@UAE@XZ ; 80
?QueryInterface@UnicharBufferImpl@@UAGIABUnsID@@PAPAX@Z ; 80
?Count@nsCStringArray@@QBEHXZ ; 78
??1nsFileURL@@UAE@XZ ; 77
??4nsFileURL@@QAEXABVnsFilePath@@@Z ; 77
?assign_with_AddRef@?$nsCOMPtr@VnsIModule@@@@AAEXPAVnsISupports@@@Z ; 77
??4?$nsCOMPtr@VnsIModule@@@@QAEAAV0@PAVnsIModule@@@Z ; 77
?AddItem@nsAVLTree@@QAE?AW4eAVLStatus@@PAX@Z ; 76
??0nsCString@@QAE@ABV?$basic_nsAReadableString@D@@@Z ; 75
?RegisterThreadSelf@nsThread@@QAEIXZ ; 73
??0nsThread@@QAE@XZ ; 73
??0nsIThread@@QAE@XZ ; 73
??0?$nsCOMPtr@VnsIRunnable@@@@QAE@XZ ; 73
?IsDone@nsSupportsArrayEnumerator@@UAGIXZ ; 72
?Init@nsThread@@UAGIPAVnsIRunnable@@IW4PRThreadPriority@@W4PRThreadScope@@W4PRThreadState@@@Z ; 72
?NS_NewThread@@YAIPAPAVnsIThread@@PAVnsIRunnable@@IW4PRThreadState@@W4PRThreadPriority@@W4PRThreadScope@@@Z ; 72
??C?$nsCOMPtr@VnsIRunnable@@@@QBEPAV?$nsDerivedSafe@VnsIRunnable@@@@XZ ; 72
??0?$nsCOMPtr@VnsIRunnable@@@@QAE@ABVnsQueryInterface@@@Z ; 72
??0nsAutoString@@QAE@G@Z ; 72
?SetCharAt@nsString@@QAEHGI@Z ; 72
?Main@nsThread@@SAXPAX@Z ; 72
?WaitUntilReadyToStartMain@nsThread@@QAEXXZ ; 72
?assign_from_helper@?$nsCOMPtr@VnsIRunnable@@@@AAEXABVnsCOMPtr_helper@@ABUnsID@@@Z ; 72
??_GnsSupportsStringImpl@@UAEPAXI@Z ; 71
??1nsSupportsStringImpl@@UAE@XZ ; 71
?Subsume@nsSubsumeStr@@QAEHPAGHH@Z ; 70
??0nsSubsumeStr@@QAE@XZ ; 70
?GetIID@?$nsCOMTypeInfo@VnsIThreadPool@@@@SAABUnsID@@XZ ; 69
?QueryInterface@nsThreadPool@@UAGIABUnsID@@PAPAX@Z ; 69
??0nsIRunnable@@QAE@XZ ; 69
??_GnsByteArrayInputStream@@UAEPAXI@Z ; 68
?GetIID@nsIByteArrayInputStream@@SAABUnsID@@XZ ; 68
??0nsIByteArrayInputStream@@QAE@XZ ; 68
??1nsByteArrayInputStream@@UAE@XZ ; 68
?assign_from_helper@?$nsCOMPtr@VnsThreadPool@@@@AAEXABVnsCOMPtr_helper@@ABUnsID@@@Z ; 68
??0?$nsCOMPtr@VnsThreadPool@@@@QAE@ABVnsQueryInterface@@@Z ; 68
?QueryInterface@nsThreadPoolRunnable@@UAGIABUnsID@@PAPAX@Z ; 68
??0nsThreadPoolRunnable@@QAE@PAVnsThreadPool@@@Z ; 68
?ReadSegments@nsByteArrayInputStream@@UAGIP6GIPAVnsIInputStream@@PAXPBDIIPAI@Z1I3@Z ; 68
?GetIID@?$nsCOMTypeInfo@VnsIByteArrayInputStream@@@@SAABUnsID@@XZ ; 68
?AddThread@nsThreadPool@@IAEIXZ ; 68
?Run@nsThreadPoolRunnable@@UAGIXZ ; 68
??0nsByteArrayInputStream@@QAE@PADI@Z ; 68
?GetIID@?$nsCOMTypeInfo@VnsThreadPool@@@@SAABUnsID@@XZ ; 68
?ResolvePath@nsLocalFile@@AAEIPBDHPAPAD@Z ; 68
??0?$nsCOMPtr@VnsThreadPool@@@@QAE@PAVnsThreadPool@@@Z ; 68
?Assert_NoQueryNeeded@?$nsCOMPtr@VnsThreadPool@@@@QAEXXZ ; 68
?assign_assuming_AddRef@?$nsCOMPtr@VnsThreadPool@@@@AAEXPAVnsThreadPool@@@Z ; 68
?NS_NewByteArrayInputStream@@YAIPAPAVnsIByteArrayInputStream@@PADK@Z ; 68
??1nsThread@@UAE@XZ ; 67
??_GnsThreadPoolRunnable@@UAEPAXI@Z ; 67
?DeleteLastElement@nsSupportsArray@@UAGIPAVnsISupports@@@Z ; 67
?GetState@nsThread@@UAGIPAW4PRThreadState@@@Z ; 67
??_GnsThread@@UAEPAXI@Z ; 67
??4?$nsCOMPtr@VnsIFile@@@@QAEAAV0@ABVnsQueryInterface@@@Z ; 67
?RemoveLastElement@nsSupportsArray@@UAGHPBVnsISupports@@@Z ; 67
??1nsThreadPoolRunnable@@UAE@XZ ; 67
?Exit@nsThread@@SAXPAX@Z ; 67
?RemoveThread@nsThreadPool@@IAEIPAVnsIThread@@@Z ; 67
??0nsGenericModule@@QAE@PBDIPAUnsModuleComponentInfo@@P6AXPAVnsIModule@@@Z@Z ; 66
??0nsFileURL@@QAE@PBDH@Z ; 66
??0nsFilePath@@QAE@ABVnsFileURL@@@Z ; 66
??0nsIModule@@QAE@XZ ; 66
?RegisterSelf@nsGenericModule@@UAGIPAVnsIComponentManager@@PAVnsIFile@@PBD2@Z ; 66
?GetIStream@nsOutputStream@@QBE?AV?$nsCOMPtr@VnsIOutputStream@@@@XZ ; 66
?MakeAllDirectories@nsFileSpecHelpers@@YAXPBDH@Z ; 66
??0nsFileSpec@@QAE@ABVnsFileURL@@@Z ; 66
?Spec@nsDirectoryIterator@@QAEAAVnsFileSpec@@XZ ; 66
?NS_NewGenericModule@@YAIPBDIPAUnsModuleComponentInfo@@P6AXPAVnsIModule@@@ZPAPAV2@@Z ; 66
?CompressWhitespace@nsCString@@QAEXHH@Z ; 64
?HasWeakReferences@nsSupportsWeakReference@@IBEHXZ ; 63
?RemoveObserver@nsObserverList@@UAGIPAPAVnsIObserver@@@Z ; 62
?RemoveObserver@nsObserverService@@UAGIPAVnsIObserver@@PBG@Z ; 62
??0nsISupportsPRInt32@@QAE@XZ ; 61
?GetCID@nsDirectoryService@@SAABUnsID@@XZ ; 61
??0nsSupportsPRInt32Impl@@QAE@XZ ; 61
?SetData@nsSupportsPRInt32Impl@@UAGIH@Z ; 61
?GetIID@?$nsCOMTypeInfo@VnsIComponentManager@@@@SAABUnsID@@XZ ; 60
?Reset@nsHashtable@@QAEXP6AHPAVnsHashKey@@PAX1@Z1@Z ; 60
?QueryInterface@nsComponentManagerImpl@@UAGIABUnsID@@PAPAX@Z ; 60
?PrepareEncoder@nsFSStringConversion@@CAIXZ ; 60
?UCSToNewFS@nsFSStringConversion@@SAIPBGPAPAD@Z ; 60
?GetIID@nsIComponentManager@@SAABUnsID@@XZ ; 60
?RFindInReadable@@YAHABV?$basic_nsAReadableString@G@@AAV?$nsReadingIterator@G@@1@Z ; 59
?RFindInReadable_Impl@@YAHABV?$basic_nsAReadableString@G@@AAV?$nsReadingIterator@G@@1@Z ; 59
?compare@?$nsCharTraits@G@@SAHPBG0I@Z ; 58
??1ArenaImpl@@UAE@XZ ; 58
?Equals@?$basic_nsAReadableString@G@@QBEHABV1@@Z ; 58
?Compare@?$basic_nsAReadableString@G@@QBEHABV1@@Z ; 58
??_EArenaImpl@@UAEPAXI@Z ; 58
?Compare@@YAHABV?$basic_nsAReadableString@G@@0@Z ; 58
?Reset@nsObjectHashtable@@QAEXXZ ; 57
??1nsObjectHashtable@@UAE@XZ ; 57
?IsDirectory@nsFileSpec@@QBEHXZ ; 55
?GetIID@nsICategoryManager@@SAABUnsID@@XZ ; 54
?GetIID@?$nsCOMTypeInfo@VnsICategoryManager@@@@SAABUnsID@@XZ ; 54
?SetNativePath@nsFileSpecImpl@@UAGIPBD@Z ; 53
??0?$nsCOMPtr@VnsIProperties@@@@QAE@ABVnsQueryInterface@@@Z ; 53
??C?$nsCOMPtr@VnsIProperties@@@@QBEPAV?$nsDerivedSafe@VnsIProperties@@@@XZ ; 53
?AddRef@nsPersistentProperties@@UAGKXZ ; 53
?Assert_NoQueryNeeded@?$nsCOMPtr@VnsIProperties@@@@QAEXXZ ; 53
??0nsCStringArray@@QAE@XZ ; 52
?IsNotXPCOM@nsXPTMethodInfo@@QBEHXZ ; 51
?IsNotXPCOM@nsXPTMethodInfo@@QBEHXZ ; 51
?QueryInterface@nsCategoryManager@@UAGIABUnsID@@PAPAX@Z ; 49
?AddRef@nsComponentManagerImpl@@UAGKXZ ; 49
?AddRef@nsCategoryManager@@UAGKXZ ; 49
?SetLeafName@nsFileSpecImpl@@UAGIPBD@Z ; 48
?Get@nsDirectoryService@@UAGIPBDABUnsID@@PAPAX@Z ; 47
?Release@nsCategoryManager@@UAGKXZ ; 47
??0?$nsCOMPtr@VnsIDirectoryServiceProvider@@@@QAE@ABVnsQueryInterface@@@Z ; 47
?assign_from_helper@?$nsCOMPtr@VnsIDirectoryServiceProvider@@@@AAEXABVnsCOMPtr_helper@@ABUnsID@@@Z ; 47
??1?$nsCOMPtr@VnsIDirectoryServiceProvider@@@@QAE@XZ ; 47
?assign_assuming_AddRef@?$nsCOMPtr@VnsIDirectoryServiceProvider@@@@AAEXPAVnsIDirectoryServiceProvider@@@Z ; 47
?Release@nsComponentManagerImpl@@UAGKXZ ; 47
??B?$nsCOMPtr@VnsIDirectoryServiceProvider@@@@QBEPAV?$nsDerivedSafe@VnsIDirectoryServiceProvider@@@@XZ ; 47
??C?$nsCOMPtr@VnsIDirectoryServiceProvider@@@@QBEPAV?$nsDerivedSafe@VnsIDirectoryServiceProvider@@@@XZ ; 47
??0nsAdapterEnumerator@@QAE@PAVnsIEnumerator@@@Z ; 46
?Release@nsDirEnumerator@@UAGKXZ ; 46
??B?$nsCOMPtr@VnsIProperties@@@@QBEPAV?$nsDerivedSafe@VnsIProperties@@@@XZ ; 46
??0?$nsCOMPtr@VnsIProperties@@@@QAE@ABVnsCOMPtr_helper@@@Z ; 46
??1nsAdapterEnumerator@@UAE@XZ ; 46
?AddRef@nsDirEnumerator@@UAGKXZ ; 46
?RegisterComponentLib@nsComponentManagerImpl@@UAGIABUnsID@@PBD11HH@Z ; 44
?RegistryNameForLib@nsComponentManagerImpl@@IAEIPBDPAPAD@Z ; 44
?SetLeafName@nsFileSpec@@QAEXABVnsString@@@Z ; 44
?GetIID@?$nsCOMTypeInfo@VnsIDirectoryService@@@@SAABUnsID@@XZ ; 44
?RegisterComponentLib@nsComponentManager@@SAIABUnsID@@PBD11HH@Z ; 44
?GetIID@nsIDirectoryService@@SAABUnsID@@XZ ; 44
?GetLeafName@nsFileSpecImpl@@UAGIPAPAD@Z ; 44
?IndexOf@nsStringArray@@QBEHABV?$basic_nsAReadableString@G@@@Z ; 44
??0?$nsCOMPtr@VnsIFactory@@@@QAE@XZ ; 43
??0?$nsCOMPtr@VnsIFactory@@@@QAE@ABVnsQueryInterface@@@Z ; 43
?GetComponentsDir@xptiInterfaceInfoManager@@QAEHPAPAVnsILocalFile@@@Z ; 43
??4nsSimpleCharString@@QAEXABVnsString@@@Z ; 42
?RegisterFactory@nsComponentManagerImpl@@UAGIABUnsID@@PBD1PAVnsIFactory@@H@Z ; 42
??0nsSimpleCharString@@QAE@ABVnsString@@@Z ; 42
??0nsFactoryEntry@@QAE@ABUnsID@@PAVnsIFactory@@@Z ; 42
?IsValid@xptiWorkingSet@@QBEHXZ ; 42
?GetProxy@nsCWeakReferent@@QAEPAVnsCWeakProxy@@XZ ; 40
?Recycle@nsString@@SAXPAV1@@Z ; 40
??RnsStringDeallocator@@UAEPAXPAX@Z ; 40
??0nsCWeakReferent@@QAE@PAX@Z ; 40
?AddReference@nsCWeakProxy@@QAEXXZ ; 40
?GetCID@nsDirectoryService@@SAABUnsID@@XZ ; 40
?CreateString@nsStringRecycler@@QAEPAVnsString@@XZ ; 40
??0nsCWeakProxy@@QAE@PAXPAVnsCWeakReferent@@@Z ; 40
?strcmp@nsCRT@@SAHPBGPBD@Z ; 40
?Recycle@nsStringRecycler@@QAEXPAVnsString@@@Z ; 40
??1?$nsCOMPtr@VnsISimpleEnumerator@@@@QAE@XZ ; 40
?assign_assuming_AddRef@?$nsCOMPtr@VnsISimpleEnumerator@@@@AAEXPAVnsISimpleEnumerator@@@Z ; 40
?QueryInterface@nsDirEnumerator@@UAGIABUnsID@@PAPAX@Z ; 39
??_GnsDirEnumerator@@UAEPAXI@Z ; 39
??0nsDirEnumerator@@QAE@XZ ; 39
?ResolveSymlink@nsFileSpec@@QAEIAAH@Z ; 39
??1nsDirEnumerator@@UAE@XZ ; 39
?Init@nsDirEnumerator@@QAEIPAVnsILocalFile@@@Z ; 39
?GetData@nsSupportsStringImpl@@UAGIPAPAD@Z ; 38
?get@?$nsCOMPtr@VnsIFileOutputStream@@@@QBEPAV?$nsDerivedSafe@VnsIFileOutputStream@@@@XZ ; 38
?set_at_eof@nsRandomAccessStoreClient@@MAEXH@Z ; 37
?GetComponentsDir@xptiInterfaceInfoManager@@QAEHPAPAVnsILocalFile@@@Z ; 37
?AddRef@nsRegSubtreeEnumerator@@UAGKXZ ; 37
?SetAtEOF@FileImpl@@UAGIH@Z ; 37
?Release@nsRegSubtreeEnumerator@@UAGKXZ ; 37
?set_at_eof@nsRandomAccessInputStream@@MAEXH@Z ; 37
?InsertCStringAt@nsCStringArray@@QAEHABVnsCString@@H@Z ; 36
?Initialize@nsGenericModule@@IAEIXZ ; 36
?AppendCString@nsCStringArray@@QAEHABVnsCString@@@Z ; 36
?assign_from_helper@?$nsCOMPtr@VnsISimpleEnumerator@@@@AAEXABVnsCOMPtr_helper@@ABUnsID@@@Z ; 36
??0?$nsCOMPtr@VnsISimpleEnumerator@@@@QAE@ABVnsQueryInterface@@@Z ; 36
??0nsFilePath@@QAE@ABVnsString@@H@Z ; 36
??0nsInputStream@@QAE@PAVnsIInputStream@@@Z ; 36
?assign_assuming_AddRef@?$nsCOMPtr@VnsIFileInputStream@@@@AAEXPAVnsIFileInputStream@@@Z ; 35
?LoadFile@xptiInterfaceInfoManager@@QAEHABVxptiTypelib@@PAVxptiWorkingSet@@@Z ; 35
?CStringAt@nsCStringArray@@QBEPAVnsCString@@H@Z ; 35
?assign_from_helper@?$nsCOMPtr@VnsIFileInputStream@@@@AAEXABVnsCOMPtr_helper@@ABUnsID@@@Z ; 35
?Release@nsPersistentProperties@@UAGKXZ ; 35
??1SystemDirectoriesKey@@UAE@XZ ; 34
??0SystemDirectoriesKey@@QAE@W4SystemDirectories@nsSpecialSystemDirectory@@@Z ; 34
?ReleaseReference@nsCWeakProxy@@QAEXXZ ; 34
??1nsCWeakProxy@@UAE@XZ ; 34
?RealThingDeleted@nsCWeakProxy@@QAEXXZ ; 34
??_EnsCWeakProxy@@UAEPAXI@Z ; 34
??1nsCWeakReferent@@UAE@XZ ; 34
?NS_ErrorAccordingToNSPR@@YAIXZ ; 34
?GetIID@nsIObserverList@@SAABUnsID@@XZ ; 32
?GetIID@?$nsCOMTypeInfo@VnsIObserverList@@@@SAABUnsID@@XZ ; 32
?ToNewString@nsString@@QBEPAV1@XZ ; 32
??HnsFileSpec@@QBE?AV0@PBD@Z ; 30
??4nsCStringKey@@QAEAAV0@ABV0@@Z ; 30
??4nsHashKey@@QAEAAV0@ABV0@@Z ; 30
?Close@BasicStringImpl@@UAGIXZ ; 29
?failed@nsErrorProne@@QBEHXZ ; 28
?AddRef@nsAppFileLocationProvider@@UAGKXZ ; 28
??B?$nsGetterAddRefs@VnsIFile@@@@QAEPAPAXXZ ; 28
?GetIID@nsIPersistentProperties@@SAABUnsID@@XZ ; 27
?QueryInterface@nsAppFileLocationProvider@@UAGIABUnsID@@PAPAX@Z ; 27
?ToString@nsSupportsStringImpl@@UAGIPAPAD@Z ; 27
?Release@nsAppFileLocationProvider@@UAGKXZ ; 27
??4nsSpecialSystemDirectory@@AAEXPBD@Z ; 27
??0CBufDescriptor@@QAE@PBDHIH@Z ; 27
?GetIID@?$nsCOMTypeInfo@VnsIPersistentProperties@@@@SAABUnsID@@XZ ; 27
??0nsIProperties@@QAE@XZ ; 27
?QueryInterface@nsPersistentProperties@@UAGIABUnsID@@PAPAX@Z ; 27
?FindFactory@nsComponentManager@@SAIABUnsID@@PAPAVnsIFactory@@@Z ; 27
??0nsIPersistentProperties@@QAE@XZ ; 26
?Load@nsPersistentProperties@@UAGIPAVnsIInputStream@@@Z ; 26
??0nsPersistentProperties@@QAE@XZ ; 26
?Create@nsPersistentProperties@@SGIPAVnsISupports@@ABUnsID@@PAPAX@Z ; 26
?GetFile@nsAppFileLocationProvider@@UAGIPBDPAHPAPAVnsIFile@@@Z ; 26
?ns_file_convert_result@@YAIH@Z ; 26
_PL_IsQueueNative ; 25
?readline@nsRandomAccessInputStream@@QAEHPADH@Z ; 25
?Tell@FileImpl@@UAGIPAH@Z ; 25
?IsQueueNative@nsEventQueueImpl@@UAGIPAH@Z ; 25
?Seek@FileImpl@@UAGIW4PRSeekWhence@@H@Z ; 25
??0?$nsCOMPtr@VnsIFileInputStream@@@@QAE@XZ ; 25
??0nsRandomAccessInputStream@@IAE@XZ ; 25
?close@nsOutputStream@@QAEXXZ ; 25
?GetFactoryFromNSGetFactory@nsNativeComponentLoader@@AAEIPAVnsDll@@ABUnsID@@PAVnsIServiceManager@@PAPAVnsIFactory@@@Z ; 25
?nsLocalFileConstructor@nsLocalFile@@SGIPAVnsISupports@@ABUnsID@@PAPAX@Z ; 25
?tell@nsRandomAccessStoreClient@@QAEHXZ ; 25
?seek@nsRandomAccessStoreClient@@QAEXW4PRSeekWhence@@H@Z ; 25
?seek@nsRandomAccessStoreClient@@QAEXH@Z ; 25
?IsLowMemory@nsMemoryImpl@@UAGIPAH@Z ; 24
??0nsInputFileStream@@QAE@ABVnsFileSpec@@HH@Z ; 24
??4?$nsCOMPtr@VnsIInputStream@@@@QAEAAV0@ABVnsQueryInterface@@@Z ; 24
?readline@nsRandomAccessInputStream@@QAEHPADH@Z ; 24
?AppendFloat@nsString@@QAEXN@Z ; 24
??4?$nsCOMPtr@VnsIFileInputStream@@@@QAEAAV0@ABVnsQueryInterface@@@Z ; 24
?AssignFrom@nsInputFileStream@@IAEXPAVnsISupports@@@Z ; 24
?Assertion@nsDebug@@SAXPBD00H@Z ; 23
?Exists@nsSupportsHashtable@@QAEHPAVnsHashKey@@@Z ; 23
?Set@nsDirectoryService@@UAGIPBDPAVnsISupports@@@Z ; 23
?find_category@nsCategoryManager@@AAEPAVCategoryNode@@PBD@Z ; 23
??0?$nsCOMPtr@VnsIOpenFile@@@@QAE@ABVnsQueryInterface@@@Z ; 22
?AddRef@nsConsoleService@@UAGKXZ ; 22
?Assert_NoQueryNeeded@?$nsCOMPtr@VnsPIEventQueueChain@@@@QAEXXZ ; 22
??0?$nsCOMPtr@VnsIRandomAccessStore@@@@QAE@ABVnsQueryInterface@@@Z ; 22
?Clear@nsCStringArray@@QAEXXZ ; 22
?QueryInterface@nsRegSubtreeEnumerator@@UAGIABUnsID@@PAPAX@Z ; 22
??BNS_ConvertASCIItoUCS2@@QBEPBGXZ ; 22
?ReadSegments@nsStorageInputStream@@UAGIP6GIPAVnsIInputStream@@PAXPBDIIPAI@Z1I3@Z ; 21
??BnsDirectoryIterator@@QAEAAVnsFileSpec@@XZ ; 21
?Release@nsConsoleService@@UAGKXZ ; 21
?RegisterComponent@nsComponentManagerImpl@@UAGIABUnsID@@PBD11HH@Z ; 21
?Reference@nsCWeakProxy@@QAEPAXXZ ; 21
??_EnsSupportsPRInt32Impl@@UAEPAXI@Z ; 20
??0?$nsCOMPtr@VnsIEventQueue@@@@QAE@PAVnsIEventQueue@@@Z ; 20
?GetIID@?$nsCOMTypeInfo@VnsIConsoleService@@@@SAABUnsID@@XZ ; 20
?QueryInterface@nsConsoleService@@UAGIABUnsID@@PAPAX@Z ; 20
??0nsString@@QAE@AAVnsSubsumeStr@@@Z ; 20
?GetSubtree@nsRegistry@@UAGIIPBDPAI@Z ; 20
??1nsSupportsPRInt32Impl@@UAE@XZ ; 20
??0nsString@@QAE@AAVnsSubsumeStr@@@Z ; 20
?NotifyObservers@nsEventQueueImpl@@AAEXPBD@Z ; 20
?GetIID@nsIConsoleService@@SAABUnsID@@XZ ; 20
??B?$nsCOMPtr@VnsIFileOutputStream@@@@QBEPAV?$nsDerivedSafe@VnsIFileOutputStream@@@@XZ ; 19
?flush@nsOutputFileStream@@UAEXXZ ; 19
?InDebugger@@YAHXZ ; 19
??C?$nsCOMPtr@VnsIFileOutputStream@@@@QBEPAV?$nsDerivedSafe@VnsIFileOutputStream@@@@XZ ; 19
?Assertion@nsDebug@@SAXPBD00H@Z ; 19
?SetPersistentDescriptor@nsLocalFile@@UAGIPBD@Z ; 19
?Exists@nsFileSpecImpl@@UAGIPAH@Z ; 18
?ReplaceElementAt@nsSupportsArray@@UAGHPAVnsISupports@@I@Z ; 18
?GetFileSize@nsFileSpec@@QBEIXZ ; 18
??4nsSpecialSystemDirectory@@QAEXW4SystemDirectories@0@@Z ; 17
?SetToEmpty@nsSimpleCharString@@QAEXXZ ; 17
??0nsSpecialSystemDirectory@@QAE@W4SystemDirectories@0@@Z ; 17
??1nsSpecialSystemDirectory@@UAE@XZ ; 17
??B?$nsCOMPtr@VnsIRegistry@@@@QBEPAV?$nsDerivedSafe@VnsIRegistry@@@@XZ ; 17
?AddRef@nsObserverList@@UAGKXZ ; 16
?get@?$nsCOMPtr@VnsIEnumerator@@@@QBEPAV?$nsDerivedSafe@VnsIEnumerator@@@@XZ ; 16
??0nsObserverList@@QAE@XZ ; 16
?NS_NewObserverList@@YAIPAPAVnsIObserverList@@@Z ; 16
?GetString@nsRegistry@@UAGIIPBGPAPAG@Z ; 16
?AddRef@nsRegistryNode@@UAGKXZ ; 16
_PL_GetEventQueueMonitor ; 16
?QueryInterface@nsObserverList@@UAGIABUnsID@@PAPAX@Z ; 16
?Release@nsRegistryNode@@UAGKXZ ; 16
??8nsFileSpec@@QBEHABV0@@Z ; 16
??0nsIObserverList@@QAE@XZ ; 16
??_EnsRegSubtreeEnumerator@@UAEPAXI@Z ; 15
??4nsCAutoString@@QAEAAV0@ABV0@@Z ; 15
??0nsIRegistryEnumerator@@QAE@XZ ; 15
?persist@nsCategoryManager@@AAEIPBD00@Z ; 15
??1nsRegSubtreeEnumerator@@UAE@XZ ; 15
??0nsRegSubtreeEnumerator@@QAE@PAXJH@Z ; 15
?First@nsRegSubtreeEnumerator@@UAGIXZ ; 15
?AddCategoryEntry@nsCategoryManager@@UAGIPBD00HHPAPAD@Z ; 15
??0nsCString@@QAE@PBDH@Z ; 15
?find_leaf@CategoryNode@@QAEPAVnsCString@@PBD@Z ; 15
?EnumerateSubtrees@nsRegistry@@UAGIIPAPAVnsIEnumerator@@@Z ; 15
?AppendRelativeUnixPath@nsFileSpecImpl@@UAGIPBD@Z ; 15
??YnsFileSpec@@QAEXABVnsString@@@Z ; 14
??1?$nsCOMPtr@VnsIEnumerator@@@@QAE@XZ ; 14
?assign_with_AddRef@?$nsCOMPtr@VnsPIEventQueueChain@@@@AAEXPAVnsISupports@@@Z ; 14
??4?$nsCOMPtr@VnsPIEventQueueChain@@@@QAEAAV0@PAVnsPIEventQueueChain@@@Z ; 14
?Clone@nsVoidKey@@UBEPAVnsHashKey@@XZ ; 14
?GetData@nsSupportsPRInt32Impl@@UAGIPAH@Z ; 14
?IsASCII@nsString@@QAEHPBG@Z ; 14
?get@?$nsCOMPtr@VnsISupportsString@@@@QBEPAV?$nsDerivedSafe@VnsISupportsString@@@@XZ ; 14
?assign_assuming_AddRef@?$nsCOMPtr@VnsIEnumerator@@@@AAEXPAVnsIEnumerator@@@Z ; 14
?close@nsInputStream@@QAEXXZ ; 13
_NS_NewCStringInputStream ; 13
??0ConstStringImpl@@QAE@ABVnsCString@@@Z ; 13
?SetCharAt@nsCString@@QAEHGI@Z ; 13
?IsHidden@nsLocalFile@@UAGIPAH@Z ; 12
??0nsEventQueueImpl@@QAE@XZ ; 12
?Release@nsHashtableEnumerator@@UAGKXZ ; 12
?GetFile@nsDirectoryService@@UAGIPBDPAHPAPAVnsIFile@@@Z ; 12
?InitFromPRThread@nsEventQueueImpl@@UAGIPAUPRThread@@H@Z ; 12
?Create@nsEventQueueImpl@@SGIPAVnsISupports@@ABUnsID@@PAPAX@Z ; 12
?CreateDirectory@nsFileSpec@@QAEXH@Z ; 12
??0nsDirectoryIterator@@QAE@ABVnsFileSpec@@H@Z ; 12
?MakeNewQueue@nsEventQueueServiceImpl@@EAGIPAUPRThread@@HPAPAVnsIEventQueue@@@Z ; 12
?OpenWellKnownRegistry@nsRegistry@@UAGIH@Z ; 12
??0?$nsCOMPtr@VnsPIEventQueueChain@@@@QAE@XZ ; 12
??0?$nsCOMPtr@VnsIEventQueue@@@@QAE@ABVnsCOMPtr_helper@@@Z ; 12
??1nsDirectoryIterator@@UAE@XZ ; 12
?do_CreateInstance@@YA?BVnsCreateInstanceByCID@@ABUnsID@@PAI@Z ; 12
_PL_CreateEventQueue ; 12
?AddRef@nsHashtableEnumerator@@UAGKXZ ; 12
??0nsIEventQueue@@QAE@XZ ; 12
??0nsPIEventQueueChain@@QAE@XZ ; 12
?GetName@xptiInterfaceInfo@@UAGIPAPAD@Z ; 11
?get@?$nsCOMPtr@VnsSupportsArray@@@@QBEPAV?$nsDerivedSafe@VnsSupportsArray@@@@XZ ; 11
_PL_MapEvents ; 11
??0nsFileClient@@QAE@ABV?$nsCOMPtr@VnsIOpenFile@@@@@Z ; 11
??0nsRandomAccessInputStream@@QAE@PAVnsIInputStream@@@Z ; 11
??0?$nsCOMPtr@VnsIFileInputStream@@@@QAE@ABVnsQueryInterface@@@Z ; 11
??0nsInputFileStream@@QAE@PAVnsIInputStream@@@Z ; 11
??0?$nsCOMPtr@VnsIInterfaceInfo@@@@QAE@ABV0@@Z ; 11
?AddRef@nsAdapterEnumerator@@UAGKXZ ; 11
??0nsProxyEventClass@@IAE@ABUnsID@@PAVnsIInterfaceInfo@@@Z ; 11
?GetIID@nsIRegistryEnumerator@@SAABUnsID@@XZ ; 11
??0nsRandomAccessStoreClient@@QAE@ABV?$nsCOMPtr@VnsIRandomAccessStore@@@@@Z ; 11
?OpenStreamForReading@nsFileSpecImpl@@UAGIXZ ; 11
?Release@nsAdapterEnumerator@@UAGKXZ ; 11
?do_CreateInstance@@YA?BVnsCreateInstanceByContractID@@PBDPAI@Z ; 11
??4?$nsCOMPtr@VnsIInterfaceInfo@@@@QAEAAV0@PAVnsIInterfaceInfo@@@Z ; 11
_NS_NewTypicalInputFileStream ; 11
?GetIID@?$nsCOMTypeInfo@VnsIRegistryEnumerator@@@@SAABUnsID@@XZ ; 11
??4nsFileURL@@QAEXABVnsFileSpec@@@Z ; 11
??0nsFileURL@@QAE@ABVnsFileSpec@@@Z ; 11
?SetYounger@nsEventQueueImpl@@UAGIPAVnsPIEventQueueChain@@@Z ; 10
?LogMessage@nsConsoleService@@UAGIPAVnsIConsoleMessage@@@Z ; 10
?QueryInterface@nsRegistryNode@@UAGIABUnsID@@PAPAX@Z ; 10
_PL_EventAvailable ; 10
??B?$nsCOMPtr@VnsSupportsArray@@@@QBEPAV?$nsDerivedSafe@VnsSupportsArray@@@@XZ ; 10
?assign_assuming_AddRef@?$nsCOMPtr@VnsIOutputStreamObserver@@@@AAEXPAVnsIOutputStreamObserver@@@Z ; 10
??1SystemDirectoriesKey@@UAE@XZ ; 10
??0?$nsCOMPtr@VnsIConsoleListener@@@@QAE@XZ ; 10
?GetIID@?$nsCOMTypeInfo@VnsIRegistryNode@@@@SAABUnsID@@XZ ; 10
?StopAcceptingEvents@nsEventQueueImpl@@UAGIXZ ; 10
?Read@nsFileSpecImpl@@UAGIPAPADHPAH@Z ; 10
?error@nsErrorProne@@QBEIXZ ; 10
??1?$nsCOMPtr@VnsIConsoleListener@@@@QAE@XZ ; 10
?ResolveSymlink@nsFileSpecImpl@@UAGIXZ ; 10
?GetFileSize@nsFileSpecImpl@@UAGIPAI@Z ; 10
??4?$nsCOMPtr@VnsIEventQueue@@@@QAEAAV0@ABU?$already_AddRefed@VnsIEventQueue@@@@@Z ; 10
??_EConstStringImpl@@UAEPAXI@Z ; 10
?GetIID@nsIRegistryNode@@SAABUnsID@@XZ ; 10
??1ConstStringImpl@@UAE@XZ ; 10
?GetFileContents@nsFileSpecImpl@@UAGIPAPAD@Z ; 9
?Exists@nsDirectoryIteratorImpl@@UAGIPAH@Z ; 9
?Create@nsDirectoryService@@SGIPAVnsISupports@@ABUnsID@@PAPAX@Z ; 9
?GetURLString@nsFileURL@@QBEPBDXZ ; 8
?AddRef@nsServiceManagerImpl@@UAGKXZ ; 8
?ReleaseElements@nsHashtableEnumerator@@EAGIXZ ; 8
?EnterMonitor@nsEventQueueImpl@@UAGIXZ ; 8
??0?$nsCOMPtr@VnsPIEventQueueChain@@@@QAE@ABV0@@Z ; 8
?GetCurrentSpec@nsDirectoryIteratorImpl@@UAGIPAPAVnsIFileSpec@@@Z ; 8
?Unlink@nsEventQueueImpl@@UAGIXZ ; 8
?AddRef@nsRegistryFactory@@UAGKXZ ; 8
?QueryInterface@nsHashtableEnumerator@@UAGIABUnsID@@PAPAX@Z ; 8
?ExitMonitor@nsEventQueueImpl@@UAGIXZ ; 8
??1nsEventQueueImpl@@UAE@XZ ; 8
_PL_DestroyEventQueue ; 8
?Next@nsDirectoryIteratorImpl@@UAGIXZ ; 8
??_GnsPersistentProperties@@UAEPAXI@Z ; 8
?Put@nsInt2StrHashtable@@QAEIIPBD@Z ; 8
??1nsPersistentProperties@@UAE@XZ ; 8
?ReplaceSubstring@nsString@@QAEXABV1@0@Z ; 8
??0?$nsCOMPtr@VnsPIEventQueueChain@@@@QAE@PAVnsPIEventQueueChain@@@Z ; 8
??_GnsEventQueueImpl@@UAEPAXI@Z ; 8
?CharAt@?$basic_nsAReadableString@G@@QBEGI@Z ; 8
??0?$nsCOMPtr@VnsIEnumerator@@@@QAE@XZ ; 7
?StartAssignment@?$nsCOMPtr@VnsIProperties@@@@QAEPAPAVnsIProperties@@XZ ; 7
?GetDirectoryEntries@nsLocalFile@@UAGIPAPAVnsISimpleEnumerator@@@Z ; 7
??1?$nsGetterAddRefs@VnsIEnumerator@@@@QAE@XZ ; 7
??1?$nsGetterAddRefs@VnsIProperties@@@@QAE@XZ ; 7
??0?$nsGetterAddRefs@VnsIEnumerator@@@@QAE@AAV?$nsCOMPtr@VnsIEnumerator@@@@@Z ; 7
?RegisterErrorStringBundleKey@nsErrorService@@UAGIIPBD@Z ; 7
?StartAssignment@?$nsCOMPtr@VnsIEnumerator@@@@QAEPAPAVnsIEnumerator@@XZ ; 7
??_H@YGXPAXIHP6EX0@Z@Z ; 7
?getter_AddRefs@@YA?AV?$nsGetterAddRefs@VnsIProperties@@@@AAV?$nsCOMPtr@VnsIProperties@@@@@Z ; 7
??0?$nsCOMPtr@VnsIProperties@@@@QAE@XZ ; 7
?Release@nsServiceManagerImpl@@UAGKXZ ; 7
?AddRef@nsFileLogEventSink@@UAGKXZ ; 7
?getter_AddRefs@@YA?AV?$nsGetterAddRefs@VnsIEnumerator@@@@AAV?$nsCOMPtr@VnsIEnumerator@@@@@Z ; 7
?get@?$nsCOMPtr@VnsICategoryManager@@@@QBEPAV?$nsDerivedSafe@VnsICategoryManager@@@@XZ ; 7
??B?$nsGetterAddRefs@VnsIProperties@@@@QAEPAPAXXZ ; 7
__md_EventReceiverProc@16 ; 7
??0?$nsGetterAddRefs@VnsIProperties@@@@QAE@AAV?$nsCOMPtr@VnsIProperties@@@@@Z ; 7
?assign_assuming_AddRef@?$nsCOMPtr@VnsISupportsString@@@@AAEXPAVnsISupportsString@@@Z ; 7
??1?$nsCOMPtr@VnsISupportsString@@@@QAE@XZ ; 7
??0?$nsCOMPtr@VnsIEnumerator@@@@QAE@ABVnsQueryInterface@@@Z ; 7
?GetNativePathCString@nsFileSpec@@QBEPBDXZ ; 7
?QueryInterface@nsServiceManagerImpl@@UAGIABUnsID@@PAPAX@Z ; 7
?Release@nsRegistryFactory@@UAGKXZ ; 7
_PL_EventLoop ; 7
?assign_from_helper@?$nsCOMPtr@VnsIEnumerator@@@@AAEXABVnsCOMPtr_helper@@ABUnsID@@@Z ; 7
??B?$nsGetterAddRefs@VnsIEnumerator@@@@QAEPAPAVnsIEnumerator@@XZ ; 7
??B?$nsCOMPtr@VnsISupportsString@@@@QBEPAV?$nsDerivedSafe@VnsISupportsString@@@@XZ ; 7
?Assert_NoQueryNeeded@?$nsCOMPtr@VnsIEnumerator@@@@QAEXXZ ; 7
_PL_CreateNativeEventQueue ; 7
?assign_from_helper@?$nsCOMPtr@VnsISupportsString@@@@AAEXABVnsCOMPtr_helper@@ABUnsID@@@Z ; 7
?PushThreadEventQueue@nsEventQueueServiceImpl@@UAGIPAPAVnsIEventQueue@@@Z ; 6
?GetValue@nsVoidKey@@QAEPAXXZ ; 6
??BGetterShares@nsXPIDLString@@QAEPAPBGXZ ; 6
??0nsIRegistryNode@@QAE@XZ ; 6
??1nsRegistryNode@@UAE@XZ ; 6
?OpenANSIFileDesc@nsLocalFile@@UAGIPBDPAPAU_iobuf@@@Z ; 6
?SetElder@nsEventQueueImpl@@UAGIPAVnsPIEventQueueChain@@@Z ; 6
?ToUpper@nsCRT@@SAGG@Z ; 6
??0nsRegistryNode@@QAE@PAXPADJ@Z ; 6
??0nsCAutoString@@QAE@PBDH@Z ; 6
??0nsFileSpec@@QAE@ABVnsString@@H@Z ; 6
?AddRef@nsErrorService@@UAGKXZ ; 6
?CreateEventQueue@nsEventQueueServiceImpl@@EAGIPAUPRThread@@H@Z ; 6
?PopThreadEventQueue@nsEventQueueServiceImpl@@UAGIPAVnsIEventQueue@@@Z ; 6
?NS_FileSpecToIFile@@YAIPAVnsFileSpec@@PAPAVnsILocalFile@@@Z ; 6
??1?$nsCOMPtr@VnsICategoryManager@@@@QAE@XZ ; 6
?StartAssignmentByReference@nsXPIDLString@@AAEPAPBGXZ ; 6
??0?$nsCOMPtr@VnsILocalFile@@@@QAE@ABVnsCOMPtr_helper@@@Z ; 6
?Append@?$basic_nsAWritableString@D@@QAEXPBDI@Z ; 6
?assign_assuming_AddRef@?$nsCOMPtr@VnsILogEventSink@@@@AAEXPAVnsILogEventSink@@@Z ; 6
?IsFile@nsFileSpec@@QBEHXZ ; 6
??_G?$nsPromiseReadable@D@@UAEPAXI@Z ; 6
?GetManifestDir@xptiInterfaceInfoManager@@QAEHPAPAVnsILocalFile@@@Z ; 6
?AppendQueue@nsEventQueueImpl@@UAGIPAVnsIEventQueue@@@Z ; 6
??0GetterShares@nsXPIDLString@@QAE@AAV1@@Z ; 6
?GetData@nsSupportsVoidImpl@@UAGIPAPBX@Z ; 6
??_GnsRegistryNode@@UAEPAXI@Z ; 6
?CurrentItem@nsRegSubtreeEnumerator@@UAGIPAPAVnsISupports@@@Z ; 6
?ToLower@nsCRT@@SAGG@Z ; 6
?GetIID@nsILogEventSink@@SAABUnsID@@XZ ; 6
?SetObserver@nsPipeOutputStream@nsPipe@@UAGIPAVnsIOutputStreamObserver@@@Z ; 5
?assign_assuming_AddRef@?$nsCOMPtr@VnsICategoryManager@@@@AAEXPAVnsICategoryManager@@@Z ; 5
??B?$nsCOMPtr@VnsIEnumerator@@@@QBEPAV?$nsDerivedSafe@VnsIEnumerator@@@@XZ ; 5
?GetFileSystemCharset@nsFileSpec@@KAXAAVnsString@@@Z ; 5
?vsmprintf@nsTextFormatter@@SAPAGPBGPAD@Z ; 5
?StartAssignment@?$nsCOMPtr@VnsISupportsArray@@@@QAEPAPAVnsISupportsArray@@XZ ; 5
?CreateMonitoredThreadEventQueue@nsEventQueueServiceImpl@@UAGIXZ ; 5
?assign_from_helper@?$nsCOMPtr@VnsICategoryManager@@@@AAEXABVnsCOMPtr_helper@@ABUnsID@@@Z ; 5
??4?$nsCOMPtr@VnsIOutputStreamObserver@@@@QAEAAV0@PAVnsIOutputStreamObserver@@@Z ; 5
?ConvertFromFileSystemCharset@nsFileSpec@@IAEPAGPBD@Z ; 5
?AppendWithConversion@nsCString@@QAEXG@Z ; 5
?assign_from_helper@?$nsCOMPtr@VnsIOutputStreamObserver@@@@AAEXABVnsCOMPtr_helper@@ABUnsID@@@Z ; 5
?getter_AddRefs@@YA?AV?$nsGetterAddRefs@VnsISupportsArray@@@@AAV?$nsCOMPtr@VnsISupportsArray@@@@@Z ; 5
?GetLeafName@nsFileSpec@@QAEXAAVnsString@@@Z ; 5
??0nsRegistry@@QAE@XZ ; 5
?CreateInstance@nsRegistryFactory@@UAGIPAVnsISupports@@ABUnsID@@PAPAX@Z ; 5
?GetIID@?$nsCOMTypeInfo@VnsIOutputStreamObserver@@@@SAABUnsID@@XZ ; 5
?EnumerateCategory@nsCategoryManager@@UAGIPBDPAPAVnsISimpleEnumerator@@@Z ; 5
??0?$nsCOMPtr@VnsISupportsArray@@@@QAE@XZ ; 5
?LoadLibrarySymbols@nsTraceRefcnt@@SAXPBDPAX@Z ; 5
?get@?$nsCOMPtr@VnsIPlatformCharset@@@@QBEPAV?$nsDerivedSafe@VnsIPlatformCharset@@@@XZ ; 5
??0nsIRegistry@@QAE@XZ ; 5
??B?$nsGetterAddRefs@VnsISupportsArray@@@@QAEPAPAVnsISupportsArray@@XZ ; 5
??0?$nsGetterAddRefs@VnsISupportsArray@@@@QAE@AAV?$nsCOMPtr@VnsISupportsArray@@@@@Z ; 5
?assign_with_AddRef@?$nsCOMPtr@VnsIOutputStreamObserver@@@@AAEXPAVnsISupports@@@Z ; 5
?Assert_NoQueryNeeded@?$nsCOMPtr@VnsIOutputStreamObserver@@@@QAEXXZ ; 5
??0?$nsCOMPtr@VnsIOutputStreamObserver@@@@QAE@ABVnsQueryInterface@@@Z ; 5
?GetIID@nsIOutputStreamObserver@@SAABUnsID@@XZ ; 5
?get@?$nsCOMPtr@VnsILogEventSink@@@@QBEPAV?$nsDerivedSafe@VnsILogEventSink@@@@XZ ; 5
_PL_CreateMonitoredEventQueue ; 5
?StripWhitespace@nsCString@@QAEXXZ ; 5
??1?$nsGetterAddRefs@VnsISupportsArray@@@@QAE@XZ ; 5
??0CategoryNode@@QAE@XZ ; 5
?AddRef@nsCategoryManagerFactory@@UAGKXZ ; 5
?Delete@nsFileSpec@@QBEXH@Z ; 5
?vsmprintf@nsTextFormatter@@SAPAGPBGPAD@Z ; 5
?AutoRegisterImpl@nsComponentManagerImpl@@AAEIHPAVnsIFile@@@Z ; 4
?QueryInterface@nsAdapterEnumerator@@UAGIABUnsID@@PAPAX@Z ; 4
?assign_from_helper@?$nsCOMPtr@VnsIPlatformCharset@@@@AAEXABVnsCOMPtr_helper@@ABUnsID@@@Z ; 4
?Assert_NoQueryNeeded@?$nsCOMPtr@VnsISimpleEnumerator@@@@QAEXXZ ; 4
?Release@nsCategoryManagerFactory@@UAGKXZ ; 4
?GetIID@?$nsCOMTypeInfo@VnsIErrorService@@@@SAABUnsID@@XZ ; 4
?GetIID@?$nsCOMTypeInfo@VnsIPlatformCharset@@@@SAABUnsID@@XZ ; 4
?Init@nsStaticCaseInsensitiveNameTable@@QAEHQAPBDH@Z ; 4
_PL_EventLoop ; 4
??0?$nsCOMPtr@VnsISupportsString@@@@QAE@ABVnsQueryInterface@@@Z ; 4
??0nsStaticCaseInsensitiveNameTable@@QAE@XZ ; 4
?get@?$nsCOMPtr@VnsIRegistryEnumerator@@@@QBEPAV?$nsDerivedSafe@VnsIRegistryEnumerator@@@@XZ ; 4
?Reset@nsHashtableEnumerator@@EAGIPAVnsHashtable@@P6GIPAVnsHashKey@@PAX2PAPAVnsISupports@@@Z2@Z ; 4
??AnsCStringArray@@QBEPAVnsCString@@H@Z ; 4
??_GnsVoidKey@@UAEPAXI@Z ; 4
??1nsHashtableEnumerator@@UAE@XZ ; 4
??_EnsAdapterEnumerator@@UAEPAXI@Z ; 4
?Realloc@nsMemory@@SAPAXPAXI@Z ; 4
??_GnsHashtableEnumerator@@UAEPAXI@Z ; 4
_NS_NewHashtableEnumerator ; 4
??1?$nsCOMPtr@VnsIPlatformCharset@@@@QAE@XZ ; 4
??0?$nsCOMPtr@VnsISimpleEnumerator@@@@QAE@XZ ; 4
??0?$nsGetterAddRefs@VnsISimpleEnumerator@@@@QAE@AAV?$nsCOMPtr@VnsISimpleEnumerator@@@@@Z ; 4
?GetZipItemCount@xptiWorkingSet@@QBEIXZ ; 4
?LineLength@ManifestLineReader@@QAEIXZ ; 4
??1?$nsGetterAddRefs@VnsISimpleEnumerator@@@@QAE@XZ ; 4
??B?$nsGetterAddRefs@VnsISimpleEnumerator@@@@QAEPAPAVnsISimpleEnumerator@@XZ ; 4
?Release@nsErrorService@@UAGKXZ ; 4
?Release@nsFileLogEventSink@@UAGKXZ ; 4
?GetIID@?$nsCOMTypeInfo@VnsILoggingService@@@@SAABUnsID@@XZ ; 4
?GetIID@nsIPlatformCharset@@SAABUnsID@@XZ ; 4
?getter_AddRefs@@YA?AV?$nsGetterAddRefs@VnsISimpleEnumerator@@@@AAV?$nsCOMPtr@VnsISimpleEnumerator@@@@@Z ; 4
?DestroyThreadEventQueue@nsEventQueueServiceImpl@@UAGIXZ ; 4
?AddRef@nsLog@@UAGKXZ ; 4
??_G?$nsPromiseReadable@D@@UAEPAXI@Z ; 4
?StartAssignment@?$nsCOMPtr@VnsISimpleEnumerator@@@@QAEPAPAVnsISimpleEnumerator@@XZ ; 4
?ns_if_addref@@YAKPAVnsILocalFile@@@Z ; 4
??0nsHashtableEnumerator@@QAE@PAVnsHashtable@@P6GIPAVnsHashKey@@PAX2PAPAVnsISupports@@@Z2@Z ; 4
??C?$nsCOMPtr@VnsISupportsString@@@@QBEPAV?$nsDerivedSafe@VnsISupportsString@@@@XZ ; 4
?GetIID@nsILoggingService@@SAABUnsID@@XZ ; 4
?SetBufferSize@nsRegistry@@QAEHH@Z ; 4
?CloneMozBinDirectory@nsAppFileLocationProvider@@IAGIPAPAVnsILocalFile@@@Z ; 4
??B?$nsCOMPtr@VnsICharsetConverterManager@@@@QBEPAV?$nsDerivedSafe@VnsICharsetConverterManager@@@@XZ ; 4
?MakeUnique@nsFileSpec@@QAEXXZ ; 4
?QueryInterface@nsErrorService@@UAGIABUnsID@@PAPAX@Z ; 4
?First@nsHashtableEnumerator@@UAGIXZ ; 4
?Warning@nsDebug@@SAXPBD0H@Z ; 4
?GetKey@nsRegistryNode@@UAGIPAI@Z ; 4
_NS_NewAdapterEnumerator ; 4
??C?$nsCOMPtr@VnsIEnumerator@@@@QBEPAV?$nsDerivedSafe@VnsIEnumerator@@@@XZ ; 4
?GetIID@nsIErrorService@@SAABUnsID@@XZ ; 4
?assign_assuming_AddRef@?$nsCOMPtr@VnsIPlatformCharset@@@@AAEXPAVnsIPlatformCharset@@@Z ; 4
??C?$nsCOMPtr@VnsIRegistryEnumerator@@@@QBEPAV?$nsDerivedSafe@VnsIRegistryEnumerator@@@@XZ ; 4
?assign_from_helper@?$nsCOMPtr@VnsIRegistry@@@@AAEXABVnsCOMPtr_helper@@ABUnsID@@@Z ; 3
?GetStringLength@nsCStringKey@@QBEIXZ ; 3
??1?$nsCOMPtr@VnsILogEventSink@@@@QAE@XZ ; 3
?Seek@BasicStringImpl@@UAGIW4PRSeekWhence@@H@Z ; 3
?Assert_NoQueryNeeded@?$nsCOMPtr@VnsILogEventSink@@@@QAEXXZ ; 3
?ClearHashTables@xptiWorkingSet@@QAEXXZ ; 3
??0ManifestLineReader@@QAE@XZ ; 3
?Reset@nsSupportsHashtable@@QAEXXZ ; 3
??1ManifestLineReader@@QAE@XZ ; 3
??C?$nsCOMPtr@VnsICategoryManager@@@@QBEPAV?$nsDerivedSafe@VnsICategoryManager@@@@XZ ; 3
??0xptiAutoLog@@QAE@PAVxptiInterfaceInfoManager@@PAVnsILocalFile@@H@Z ; 3
??1SystemDirectoriesKey@@UAE@XZ ; 3
_PL_RevokeEvents ; 3
?RevokeEvents@nsEventQueueImpl@@UAGIPAX@Z ; 3
?get@?$nsCOMPtr@VnsIDirectoryService@@@@QBEPAV?$nsDerivedSafe@VnsIDirectoryService@@@@XZ ; 3
?Close@nsRegistry@@MAGIXZ ; 3
?Valid@nsFileSpec@@QBEHXZ ; 3
?AddRef@MemoryFlusher@@UAGKXZ ; 3
?assign_with_AddRef@?$nsCOMPtr@VnsILogEventSink@@@@AAEXPAVnsISupports@@@Z ; 3
?Reset@nsHashtable@@QAEXXZ ; 3
?GetIID@?$nsCOMTypeInfo@VnsIFileLogEventSink@@@@SAABUnsID@@XZ ; 3
??_EnsRegistry@@UAEPAXI@Z ; 3
?GetCurrentProcessDirectory@nsDirectoryService@@AAEIPAPAVnsILocalFile@@@Z ; 3
?Assert_NoQueryNeeded@?$nsCOMPtr@VnsISupportsString@@@@QAEXXZ ; 3
?GetIID@?$nsCOMTypeInfo@VnsILogEventSink@@@@SAABUnsID@@XZ ; 3
?GetCategoryEntryRaw@nsCategoryManager@@UAGIPBD0PAPAD@Z ; 3
_PL_RevokeEvents ; 3
??0?$nsCOMPtr@VnsILogEventSink@@@@QAE@XZ ; 3
?IsRegistered@nsComponentManagerImpl@@UAGIABUnsID@@PAH@Z ; 3
?AddRef@nsLoggingService@@UAGKXZ ; 3
?Read@xptiManifest@@SAHPAVxptiInterfaceInfoManager@@PAVxptiWorkingSet@@@Z ; 3
??1nsRegistry@@UAE@XZ ; 3
??4?$nsCOMPtr@VnsILogEventSink@@@@QAEAAV0@PAVnsILogEventSink@@@Z ; 3
?Assert_NoQueryNeeded@?$nsCOMPtr@VnsICategoryManager@@@@QAEXXZ ; 3
??0nsDll@@QAE@PBDH@Z ; 3
?RemoveSubtree@nsRegistry@@UAGIIPBD@Z ; 3
??0?$nsCOMPtr@VnsICategoryManager@@@@QAE@ABVnsQueryInterface@@@Z ; 3
?length@ConstCharImpl@@MBEHXZ ; 3
??1SystemDirectoriesKey@@UAE@XZ ; 3
??0xptiWorkingSet@@QAE@XZ ; 3
??_EnsCString@@UAEPAXI@Z ; 3
??0?$nsCOMPtr@VnsILogEventSink@@@@QAE@ABVnsQueryInterface@@@Z ; 3
??0?$nsCOMPtr@VnsISupportsString@@@@QAE@ABVnsCOMPtr_helper@@@Z ; 3
?ClearZipItems@xptiWorkingSet@@QAEXXZ ; 3
?EnumerateCategory@nsCategoryManager@@UAGIPBDPAPAVnsISimpleEnumerator@@@Z ; 3
?Read@xptiManifest@@SAHPAVxptiInterfaceInfoManager@@PAVxptiWorkingSet@@@Z ; 3
?QueryInterface@nsFileLogEventSink@@UAGIABUnsID@@PAPAX@Z ; 3
?assign_assuming_AddRef@?$nsCOMPtr@VnsIRegistry@@@@AAEXPAVnsIRegistry@@@Z ; 3
??1xptiAutoLog@@QAE@XZ ; 3
?GetString@nsCStringKey@@QBEPBDXZ ; 3
?assign_from_helper@?$nsCOMPtr@VnsILogEventSink@@@@AAEXABVnsCOMPtr_helper@@ABUnsID@@@Z ; 3
?ToUpper@nsCRT@@SADD@Z ; 3
?GetCategoryEntry@nsCategoryManager@@UAGIPBD0PAPAD@Z ; 3
?GetIID@?$nsCOMTypeInfo@VnsICaseConversion@@@@SAABUnsID@@XZ ; 2
?GetControlFlags@nsLog@@UAGIPAI@Z ; 2
??B?$nsCOMPtr@VnsISimpleEnumerator@@@@QBEPAV?$nsDerivedSafe@VnsISimpleEnumerator@@@@XZ ; 2
?QueryInterface@EmptyEnumeratorImpl@@UAGIABUnsID@@PAPAX@Z ; 2
??1nsCStringArray@@UAE@XZ ; 2
??0?$nsCOMPtr@VnsICategoryManager@@@@QAE@ABVnsCOMPtr_helper@@@Z ; 2
??_ExptiFile@@QAEPAXI@Z ; 2
??1?$nsCOMPtr@VnsILoggingService@@@@QAE@XZ ; 2
?Release@nsDirectoryIteratorImpl@@UAGKXZ ; 2
?SetControlFlags@nsLog@@UAGII@Z ; 2
?GetTypeForParam@xptiInterfaceInfo@@UAGIGPBVnsXPTParamInfo@@GPAVnsXPTType@@@Z ; 2
?GetName@nsRegistryNode@@UAGIPAPAG@Z ; 2
?GetIID@?$nsCOMTypeInfo@VnsIDirectoryIterator@@@@SAABUnsID@@XZ ; 2
?PrepareFSCharset@nsFSStringConversion@@CAIXZ ; 2
??0?$nsCOMPtr@VnsISupportsArray@@@@QAE@ABVnsCOMPtr_helper@@@Z ; 2
?RegisterDeferredComponents@nsNativeComponentLoader@@UAGIHPAH@Z ; 2
?assign_assuming_AddRef@?$nsCOMPtr@VnsIRegistryEnumerator@@@@AAEXPAVnsIRegistryEnumerator@@@Z ; 2
??C?$nsCOMPtr@VnsIServiceManager@@@@QBEPAV?$nsDerivedSafe@VnsIServiceManager@@@@XZ ; 2
??B?$nsCOMPtr@VnsILogEventSink@@@@QBEPAV?$nsDerivedSafe@VnsILogEventSink@@@@XZ ; 2
?AutoRegisterImpl@nsComponentManagerImpl@@AAEIHPAVnsIFile@@@Z ; 2
??1xptiWorkingSet@@QAE@XZ ; 2
?GetLog@nsLoggingService@@UAGIPBDPAPAVnsILog@@@Z ; 2
?Open@nsRegistry@@UAGIPBD@Z ; 2
??0?$nsCOMPtr@VnsIPlatformCharset@@@@QAE@ABVnsQueryInterface@@@Z ; 2
?BuildFileList@xptiInterfaceInfoManager@@AAEHPAPAVnsISupportsArray@@@Z ; 2
??_I@YGXPAXIHP6EX0@Z@Z ; 2
?GetAutoRegLock@xptiInterfaceInfoManager@@SAPAUPRLock@@PAV1@@Z ; 2
??0nsRegistryFactory@@QAE@XZ ; 2
?RegisterService@nsServiceManagerImpl@@UAGIABUnsID@@PAVnsISupports@@@Z ; 2
??0nsInt2StrHashtable@@QAE@XZ ; 2
??0nsIDirectoryServiceProvider@@QAE@XZ ; 2
?ClearFiles@xptiWorkingSet@@QAEXXZ ; 2
?GetTypeInArray@xptiInterfaceInfo@@EAGIPBVnsXPTParamInfo@@GPAPBUXPTTypeDescriptor@@@Z ; 2
?assign_from_helper@?$nsCOMPtr@VnsIRegistryEnumerator@@@@AAEXABVnsCOMPtr_helper@@ABUnsID@@@Z ; 2
?QueryInterface@nsDirectoryIteratorImpl@@UAGIABUnsID@@PAPAX@Z ; 2
?Init@nsLog@@QAEIPBDIPAVnsILogEventSink@@@Z ; 2
?GetKey@nsRegistry@@UAGIIPBGPAI@Z ; 2
?GetLengthIsArgNumberForParam@xptiInterfaceInfo@@UAGIGPBVnsXPTParamInfo@@GPAE@Z ; 2
?DetermineAutoRegStrategy@xptiInterfaceInfoManager@@AAE?AW4AutoRegMode@1@PAVnsISupportsArray@@PAVxptiWorkingSet@@@Z ; 2
?GetIID@nsICaseConversion@@SAABUnsID@@XZ ; 2
??C?$nsCOMPtr@VnsIDirectoryService@@@@QBEPAV?$nsDerivedSafe@VnsIDirectoryService@@@@XZ ; 2
??0nsCAutoString@@QAE@ABV?$basic_nsAReadableString@D@@@Z ; 2
?GetAsString@nsFileURL@@QBEPBDXZ ; 2
?ConvertStringLineBreaks@nsLinebreakConverter@@SAIAAVnsString@@W4ELinebreakType@1@1@Z ; 2
_NS_RegistryGetFactory ; 2
?StringAt@nsStringArray@@QBEXHAAV?$basic_nsAWritableString@G@@@Z ; 2
?GetIID@nsIDirectoryIterator@@SAABUnsID@@XZ ; 2
??0nsLog@@QAE@XZ ; 2
?RegisterProvider@nsDirectoryService@@UAGIPAVnsIDirectoryServiceProvider@@@Z ; 2
??C?$nsCOMPtr@VnsIPlatformCharset@@@@QBEPAV?$nsDerivedSafe@VnsIPlatformCharset@@@@XZ ; 2
??0nsAVLTree@@QAE@AAVnsAVLNodeComparitor@@PAVnsAVLNodeFunctor@@@Z ; 2
?assign_assuming_AddRef@?$nsCOMPtr@VnsILoggingService@@@@AAEXPAVnsILoggingService@@@Z ; 2
?Assert_NoQueryNeeded@?$nsCOMPtr@VnsIRegistry@@@@QAEXXZ ; 2
?Startup@nsMemoryImpl@@SAIXZ ; 2
??0nsAVLNodeComparitor@@QAE@XZ ; 2
?GetNameUTF8@nsRegistryNode@@UAGIPAPAD@Z ; 2
?QueryInterface@nsLoggingService@@UAGIABUnsID@@PAPAX@Z ; 2
_NS_NewUnicodeLocalFile ; 2
?assign_assuming_AddRef@?$nsCOMPtr@VnsSupportsArray@@@@AAEXPAVnsSupportsArray@@@Z ; 2
?Release@nsLoggingService@@UAGKXZ ; 2
?Assert_NoQueryNeeded@?$nsCOMPtr@VnsIPlatformCharset@@@@QAEXXZ ; 2
?assign_from_helper@?$nsCOMPtr@VnsILoggingService@@@@AAEXABVnsCOMPtr_helper@@ABUnsID@@@Z ; 2
?QueryInterface@nsCategoryManagerFactory@@UAGIABUnsID@@PAPAX@Z ; 2
?GetSizeIsArgNumberForParam@xptiInterfaceInfo@@UAGIGPBVnsXPTParamInfo@@GPAE@Z ; 2
?AddRef@nsDirectoryIteratorImpl@@UAGKXZ ; 2
?NS_GetLog@@YAPAVnsILog@@PBDI@Z ; 2
?AutoRegisterInterfaces@xptiInterfaceInfoManager@@UAGIXZ ; 2
?AddRef@EmptyEnumeratorImpl@@UAGKXZ ; 2
?NewFileArray@xptiWorkingSet@@QAEHI@Z ; 2
??0?$nsCOMPtr@VnsIPlatformCharset@@@@QAE@ABVnsCOMPtr_helper@@@Z ; 2
??0nsILog@@QAE@XZ ; 2
??0?$nsCOMPtr@VnsIRegistry@@@@QAE@XZ ; 1
?PlatformInit@nsComponentManagerImpl@@IAEIXZ ; 1
?CharAt@?$basic_nsAReadableString@D@@QBEDI@Z ; 1
??0nsILoggingService@@QAE@XZ ; 1
??0nsIDirectoryIterator@@QAE@XZ ; 1
??0?$nsCOMPtr@VnsIFile@@@@QAE@PAVnsIFile@@@Z ; 1
?Release@MemoryFlusher@@UAGKXZ ; 1
?SetPRThread@nsThread@@QAEXPAUPRThread@@@Z ; 1
?GetFileSystemCharset@nsFileSpec@@KAXAAVnsString@@@Z ; 1
??B?$nsGetterAddRefs@VnsIFactory@@@@QAEPAPAVnsIFactory@@XZ ; 1
??4?$nsCOMPtr@VnsIRegistry@@@@QAEAAV0@ABVnsCOMPtr_helper@@@Z ; 1
?Create@nsEventQueueServiceImpl@@SGIPAVnsISupports@@ABUnsID@@PAPAX@Z ; 1
?Startup@nsTraceRefcnt@@SAXXZ ; 1
??0nsIFileLogEventSink@@QAE@XZ ; 1
??1SystemDirectoriesKey@@UAE@XZ ; 1
??0nsIMemory@@QAE@XZ ; 1
??0nsILogEventSink@@QAE@XZ ; 1
?GetUnicodeLeafName@nsLocalFile@@UAGIPAPAG@Z ; 1
?ns_if_addref@@YAKPAVnsIOutputStream@@@Z ; 1
?AutoRegisterComponents@nsNativeComponentLoader@@UAGIHPAVnsIFile@@@Z ; 1
??0?$nsCOMPtr@VnsSupportsArray@@@@QAE@XZ ; 1
??1EmptyEnumeratorImpl@@UAE@XZ ; 1
?GetCID@nsObserverService@@SAABUnsID@@XZ ; 1
?GetOutputStream@nsFileSpecImpl@@UAGIPAPAVnsIOutputStream@@@Z ; 1
?AddRef@HandleCaseConversionShutdown3@@UAGKXZ ; 1
?InitFromFILE@nsFileLogEventSink@@UAGIPBDPAU_iobuf@@@Z ; 1
?Write@xptiManifest@@SAHPAVxptiInterfaceInfoManager@@PAVxptiWorkingSet@@@Z ; 1
??0?$nsGetterAddRefs@VnsIFactory@@@@QAE@AAV?$nsCOMPtr@VnsIFactory@@@@@Z ; 1
??0nsOutputFileStream@@QAE@PAVnsIFileSpec@@@Z ; 1
?DoFullValidationMergeFromFileList@xptiInterfaceInfoManager@@AAEHPAVnsISupportsArray@@PAVxptiWorkingSet@@@Z ; 1
??4?$nsCOMPtr@VnsIRegistry@@@@QAEAAV0@ABVnsQueryInterface@@@Z ; 1
?Run@MemoryFlusher@@UAGIXZ ; 1
?FSToNewUCS@nsFSStringConversion@@SAIPBDPAPAG@Z ; 1
??0nsComponentManagerImpl@@QAE@XZ ; 1
?StartAssignment@?$nsCOMPtr@VnsIFactory@@@@QAEPAPAVnsIFactory@@XZ ; 1
?GetCID@nsObserver@@SAABUnsID@@XZ ; 1
?Assert_NoQueryNeeded@?$nsCOMPtr@VnsIZipReaderCache@@@@QAEXXZ ; 1
?IsSymlink@nsLocalFile@@UAGIPAH@Z ; 1
??0?$nsCOMPtr@VnsIZipReaderCache@@@@QAE@PAVnsIZipReaderCache@@@Z ; 1
??0nsStringRecycler@@QAE@XZ ; 1
??0?$nsCOMPtr@VnsIRegistry@@@@QAE@ABVnsQueryInterface@@@Z ; 1
??0nsIErrorService@@QAE@XZ ; 1
?AutoRegisterImpl@nsComponentManagerImpl@@AAEIHPAVnsIFile@@@Z ; 1
?GetIID@nsIAtomService@@SAABUnsID@@XZ ; 1
?SpecForRegistryLocation@nsComponentManagerImpl@@UAGIPBDPAPAVnsIFile@@@Z ; 1
??0?$nsCOMPtr@VnsILoggingService@@@@QAE@ABVnsCOMPtr_helper@@@Z ; 1
??0nsIShutdownListener@@QAE@XZ ; 1
??C?$nsCOMPtr@VnsISupports@@@@QBEPAV?$nsDerivedSafe@VnsISupports@@@@XZ ; 1
?BuildOrderedFileArray@xptiInterfaceInfoManager@@AAEPAPAVnsILocalFile@@PAVnsISupportsArray@@PAVxptiWorkingSet@@@Z ; 1
?getter_AddRefs@@YA?BU?$already_AddRefed@VnsIMemory@@@@PAVnsIMemory@@@Z ; 1
?Error@nsDebug@@SAXPBD0H@Z ; 1
??1?$nsCOMPtr@VnsIRegistryEnumerator@@@@QAE@XZ ; 1
??0nsGetServiceFromCategory@@QAE@PBD0PAVnsISupports@@PAI@Z ; 1
?RemoveCStringAt@nsCStringArray@@QAEHH@Z ; 1
??0nsFileLogEventSink@@QAE@XZ ; 1
?MergeWorkingSets@xptiInterfaceInfoManager@@AAEHPAVxptiWorkingSet@@0@Z ; 1
??_EnsDirectoryIterator@@UAEPAXI@Z ; 1
??0nsIConsoleService@@QAE@XZ ; 1
??0nsDirectoryIteratorImpl@@QAE@XZ ; 1
??0nsIServiceManager@@QAE@XZ ; 1
?Create@nsDirectoryIteratorImpl@@SGIPAVnsISupports@@ABUnsID@@PAPAX@Z ; 1
?IsStreamOpen@nsFileSpecImpl@@UAGIPAH@Z ; 1
??0xptiInterfaceInfoManager@@AAE@XZ ; 1
??0nsIInterfaceInfoManager@@QAE@XZ ; 1
??0nsAutoLockBase@@IAE@PAXW4nsAutoLockType@0@@Z ; 1
??0nsMemoryImpl@@QAE@XZ ; 1
?assign_assuming_AddRef@?$nsCOMPtr@VnsIDirectoryService@@@@AAEXPAVnsIDirectoryService@@@Z ; 1
??0CCaseConversionServiceInitializer@@QAE@XZ ; 1
?GetNext@EmptyEnumeratorImpl@@UAGIPAPAVnsISupports@@@Z ; 1
?assign_assuming_AddRef@?$nsCOMPtr@VnsISupportsWeakReference@@@@AAEXPAVnsISupportsWeakReference@@@Z ; 1
?SetLength@nsSimpleCharString@@QAEXI@Z ; 1
??D?$nsReadingIterator@D@@QBEDXZ ; 1
??1nsStringRecycler@@QAE@XZ ; 1
?assign_from_helper@?$nsCOMPtr@VnsSupportsArray@@@@AAEXABVnsCOMPtr_helper@@ABUnsID@@@Z ; 1
??0xptiEntrySink@@QAE@XZ ; 1
?StartAssignment@?$nsCOMPtr@VnsSupportsArray@@@@QAEPAPAVnsSupportsArray@@XZ ; 1
??0TwoWorkingSets@@QAE@PAVxptiWorkingSet@@0@Z ; 1
?CopyMove@nsLocalFile@@AAEIPAVnsIFile@@PBDHH@Z ; 1
??0?$nsCOMPtr@VnsIMemory@@@@QAE@ABU?$already_AddRefed@VnsIMemory@@@@@Z ; 1
?ExtendFileArray@xptiWorkingSet@@QAEHI@Z ; 1
?NotReached@nsDebug@@SAXPBD0H@Z ; 1
?GetParent@nsFileSpec@@QBEXAAV1@@Z ; 1
?CreateThreadEventQueue@nsEventQueueServiceImpl@@UAGIXZ ; 1
??0EmptyEnumeratorImpl@@QAE@XZ ; 1
?Eof@nsFileSpecImpl@@UAGIPAH@Z ; 1
??0nsInputFileStream@@QAE@PAVnsIFileSpec@@@Z ; 1
??4?$nsCOMPtr@VnsIRegistryEnumerator@@@@QAEAAV0@ABVnsQueryInterface@@@Z ; 1
?Create@nsProxyObjectManager@@SGIPAVnsISupports@@ABUnsID@@PAPAX@Z ; 1
?Assert_NoQueryNeeded@?$nsCOMPtr@VnsSupportsArray@@@@QAEXXZ ; 1
??1?$nsCOMPtr@VnsIZipReaderCache@@@@QAE@XZ ; 1
??1?$nsCOMPtr@VnsIRegistry@@@@QAE@XZ ; 1
??0?$nsGetterAddRefs@VnsSupportsArray@@@@QAE@AAV?$nsCOMPtr@VnsSupportsArray@@@@@Z ; 1
?CopyTo@nsLocalFile@@UAGIPAVnsIFile@@PBD@Z ; 1
??1?$nsCOMPtr@VnsIDirectoryService@@@@QAE@XZ ; 1
??0?$nsCOMPtr@VnsIDirectoryService@@@@QAE@ABVnsQueryInterface@@@Z ; 1
??0MemoryFlusher@@IAE@PAVnsMemoryImpl@@@Z ; 1
??0nsIProxyObjectManager@@QAE@XZ ; 1
?RFindCharInSet@nsString@@QBEHPBDH@Z ; 1
_NS_CategoryManagerGetFactory ; 1
_NS_NewTypicalOutputFileStream ; 1
??1nsGetServiceFromCategory@@UAE@XZ ; 1
??1?$nsGetterAddRefs@VnsSupportsArray@@@@QAE@XZ ; 1
?NS_InitXPCOM2@@YAIPAPAVnsIServiceManager@@PAVnsIFile@@PAVnsIDirectoryServiceProvider@@@Z ; 1
?GetCID@nsDirectoryService@@SAABUnsID@@XZ ; 1
??BnsFileURL@@QBEPBDXZ ; 1
??1nsDirectoryIteratorImpl@@UAE@XZ ; 1
?Create@MemoryFlusher@@SAIPAPAV1@PAVnsMemoryImpl@@@Z ; 1
??0?$nsCOMPtr@VnsIRegistry@@@@QAE@PAVnsIRegistry@@@Z ; 1
?GetProductDirectory@nsAppFileLocationProvider@@IAGIPAPAVnsILocalFile@@@Z ; 1
?QueryInterface@nsRegistryFactory@@UAGIABUnsID@@PAPAX@Z ; 1
?CStringAt@nsCStringArray@@QBEXHAAVnsCString@@@Z ; 1
??0nsIComponentLoader@@QAE@XZ ; 1
?Wait@nsAutoMonitor@@QAEII@Z ; 1
??1EmptyEnumeratorImpl@@UAE@XZ ; 1
?ExtendZipItemArray@xptiWorkingSet@@QAEHI@Z ; 1
??B?$nsCOMPtr@VnsIDirectoryService@@@@QBEPAV?$nsDerivedSafe@VnsIDirectoryService@@@@XZ ; 1
??0nsSlidingSubstring@@QAE@ABV?$basic_nsAReadableString@G@@@Z ; 1
??1?$nsCOMPtr@VnsSupportsArray@@@@QAE@XZ ; 1
?ExtendZipItemArray@xptiWorkingSet@@QAEHI@Z ; 1
??0nsErrorService@@QAE@XZ ; 1
??0nsEventQueueServiceImpl@@QAE@XZ ; 1
??0?$already_AddRefed@VnsIMemory@@@@QAE@PAVnsIMemory@@@Z ; 1
?AutoRegister@nsComponentManagerImpl@@UAGIHPAVnsIFile@@@Z ; 1
?NS_NewServiceManager@@YAIPAPAVnsIServiceManager@@@Z ; 1
??0nsIDirectoryService@@QAE@XZ ; 1
??0?$nsCOMPtr@VnsICategoryManager@@@@QAE@PAVnsICategoryManager@@@Z ; 1
??4?$nsCOMPtr@VnsIComponentLoader@@@@QAEAAV0@ABVnsCOMPtr_helper@@@Z ; 1
??0nsThreadPool@@QAE@XZ ; 1
?Init@nsComponentManagerImpl@@QAEIXZ ; 1
??0nsStringDeallocator@@QAE@XZ ; 1
?Create@nsMemoryImpl@@SGIPAVnsISupports@@ABUnsID@@PAPAX@Z ; 1
??0nsIComponentManager@@QAE@XZ ; 1
?PlatformPrePopulateRegistry@nsComponentManagerImpl@@QAEIXZ ; 1
?IsValid@xptiInterfaceInfoManager@@AAEHXZ ; 1
?do_GetServiceFromCategory@@YA?BVnsGetServiceFromCategory@@PBD0PAI@Z ; 1
??0nsProxyObjectManager@@QAE@XZ ; 1
?GetIID@nsIAtomService@@SAABUnsID@@XZ ; 1
??0nsIInterfaceRequestor@@QAE@XZ ; 1
?DescribeLogs@nsLoggingService@@UAGIPAVnsILog@@@Z ; 1
?NS_StartupLocalFile@@YAXXZ ; 1
??0nsCategoryManagerFactory@@QAE@XZ ; 1
?Create@nsErrorService@@SGIPAVnsISupports@@ABUnsID@@PAPAX@Z ; 1
?dont_AddRef@@YA?BU?$already_AddRefed@VnsIInterfaceInfoManager@@@@PAVnsIInterfaceInfoManager@@@Z ; 1
??0nsNativeComponentLoader@@QAE@XZ ; 1
?PrepareDecoder@nsFSStringConversion@@CAIXZ ; 1
??B?$nsCOMPtr@VnsICategoryManager@@@@QBEPAV?$nsDerivedSafe@VnsICategoryManager@@@@XZ ; 1
?Init@nsLoggingService@@QAEIXZ ; 1
??0nsConsoleService@@QAE@XZ ; 1
?WarnIfFalse@nsDebug@@SAHPBD00H@Z ; 1
?Init@nsDirectoryIteratorImpl@@UAGIPAVnsIFileSpec@@H@Z ; 1
?GetCID@nsLocalFile@@SAABUnsID@@XZ ; 1
??B?$nsGetterAddRefs@VnsSupportsArray@@@@QAEPAPAXXZ ; 1
?Init@nsThreadPool@@UAGIIIIW4PRThreadPriority@@W4PRThreadScope@@@Z ; 1
?Init@ManifestLineReader@@QAEXPADI@Z ; 1
?NS_NewThreadPool@@YAIPAPAVnsIThreadPool@@IIIW4PRThreadPriority@@W4PRThreadScope@@@Z ; 1
?ToUpperCase@nsCString@@QAEXXZ ; 1
?Init@nsNativeComponentLoader@@UAGIPAVnsIComponentManager@@PAVnsISupports@@@Z ; 1
?CopySingleFile@nsLocalFile@@AAEIPAVnsIFile@@0PBDHH@Z ; 1
??0nsIObserverService@@QAE@XZ ; 1
??0nsStringRecycler@@QAE@XZ ; 1
?LoadLibrarySymbols@nsTraceRefcnt@@SAXPBDPAX@Z ; 1
??0nsAppFileLocationProvider@@QAE@XZ ; 1
??0nsICategoryManager@@QAE@XZ ; 1
?Create@nsLoggingService@@SGIPAVnsISupports@@ABUnsID@@PAPAX@Z ; 1
??0nsDirectoryService@@QAE@XZ ; 1
??B?$nsCOMPtr@VnsIPlatformCharset@@@@QBEPAV?$nsDerivedSafe@VnsIPlatformCharset@@@@XZ ; 1
?CreateInstance@nsCategoryManagerFactory@@UAGIPAVnsISupports@@ABUnsID@@PAPAX@Z ; 1
?GetIID@?$nsCOMTypeInfo@VnsSupportsArray@@@@SAABUnsID@@XZ ; 1
?initialize@nsCategoryManager@@AAEIXZ ; 1
?ExtendZipItemArray@xptiWorkingSet@@QAEHI@Z ; 1
?PlatformVersionCheck@nsComponentManagerImpl@@IAEIPAI@Z ; 1
?getter_AddRefs@@YA?AV?$nsGetterAddRefs@VnsIFactory@@@@AAV?$nsCOMPtr@VnsIFactory@@@@@Z ; 1
??0?$nsCOMPtr@VnsIRegistryEnumerator@@@@QAE@ABVnsQueryInterface@@@Z ; 1
?RegisterComponentsInDir@nsNativeComponentLoader@@MAGIHPAVnsIFile@@@Z ; 1
?SetMainThread@nsIThread@@SAIXZ ; 1
?ns_if_addref@@YAKPAVnsIInputStream@@@Z ; 1
?GetCID@nsDirectoryService@@SAABUnsID@@XZ ; 1
?assign_assuming_AddRef@?$nsCOMPtr@VnsISupportsWeakReference@@@@AAEXPAVnsISupportsWeakReference@@@Z ; 1
??0nsCategoryManager@@AAE@XZ ; 1
??0?$nsCOMPtr@VnsILoggingService@@@@QAE@ABVnsQueryInterface@@@Z ; 1
?QueryInterface@MemoryFlusher@@UAGIABUnsID@@PAPAX@Z ; 1
??0nsIShutdownListener@@QAE@XZ ; 1
?OpenStreamForWriting@nsFileSpecImpl@@UAGIXZ ; 1
??0nsIEventQueueService@@QAE@XZ ; 1
?NS_InitXPCOM@@YAIPAPAVnsIServiceManager@@PAVnsIFile@@@Z ; 1
?Assert_NoQueryNeeded@?$nsCOMPtr@VnsILoggingService@@@@QAEXXZ ; 1
??0nsLoggingService@@QAE@XZ ; 1
??RnsGetServiceFromCategory@@UBEIABUnsID@@PAPAX@Z ; 1
?assign_from_helper@?$nsCOMPtr@VnsIDirectoryService@@@@AAEXABVnsCOMPtr_helper@@ABUnsID@@@Z ; 1
??_GnsDirectoryIteratorImpl@@UAEPAXI@Z ; 1
?GetInputStream@nsFileSpecImpl@@UAGIPAPAVnsIInputStream@@@Z ; 1
?AutoRegister@nsComponentManager@@SAIHPAVnsIFile@@@Z ; 1
?Create@nsLoggingService@@SGIPAVnsISupports@@ABUnsID@@PAPAX@Z ; 1
??0nsIThreadPool@@QAE@XZ ; 1
??0?$nsCOMPtr@VnsSupportsArray@@@@QAE@ABVnsQueryInterface@@@Z ; 1
?RegisterErrorStringBundle@nsErrorService@@UAGIFPBD@Z ; 1
?ExtendZipItemArray@xptiWorkingSet@@QAEHI@Z ; 1
?get@?$nsCOMPtr@VnsILoggingService@@@@QBEPAV?$nsDerivedSafe@VnsILoggingService@@@@XZ ; 1
_PL_DequeueEvent ; 1
??0nsServiceManagerImpl@@QAE@XZ ; 1
?Create@nsObserverService@@SGIPAVnsISupports@@ABUnsID@@PAPAX@Z ; 1
?Startup@nsMemoryImpl@@SAIXZ ; 1
?getter_AddRefs@@YA?AV?$nsGetterAddRefs@VnsSupportsArray@@@@AAV?$nsCOMPtr@VnsSupportsArray@@@@@Z ; 1
?Init@nsDirectoryService@@UAGIXZ ; 1
??0nsObserverService@@QAE@XZ ; 1
?GetParent@nsFileSpecImpl@@UAGIPAPAVnsIFileSpec@@@Z ; 1
??0HandleCaseConversionShutdown3@@QAE@XZ ; 1
??1?$nsGetterAddRefs@VnsIFactory@@@@QAE@XZ ; 1
