Certificate:
    Data:
        Version: 3 (0x2)
        Serial Number: 479997 (0x752fd)
        Signature Algorithm: sha256WithRSAEncryption
        Issuer: CN=web-platform-tests
        Validity
            Not Before: Oct 17 18:25:18 2022 GMT
            Not After : Oct 17 18:25:18 2023 GMT
        Subject: CN=web-platform.test
        Subject Public Key Info:
            Public Key Algorithm: rsaEncryption
                Public-Key: (2048 bit)
                Modulus:
                    00:c3:c4:53:84:5a:23:bd:03:cc:65:41:36:72:45:
                    3b:7d:3c:94:61:b2:97:0e:47:99:90:08:3e:57:34:
                    91:39:d8:bd:fd:25:44:5f:8f:24:86:29:d5:0a:5f:
                    3d:ce:5f:eb:d4:8b:a0:ff:80:00:24:4b:27:42:b2:
                    98:8e:8b:29:f0:b2:f1:ca:b2:24:a0:bd:4c:ba:34:
                    16:81:38:8a:a4:6a:f0:65:c0:ea:4d:b5:f2:58:8e:
                    8e:2c:35:34:80:54:0a:06:ee:84:44:b1:56:ee:78:
                    0e:0d:5d:84:8e:67:0c:51:11:b6:ff:4e:49:24:90:
                    6b:12:95:23:6c:cd:b3:72:f1:b7:b7:d0:fd:14:7f:
                    a4:76:d6:65:55:d0:75:aa:b3:b2:ed:28:38:84:18:
                    a3:f8:c4:9c:d9:b6:2c:22:87:d9:ef:31:23:bc:30:
                    82:ee:82:22:c3:b0:70:30:f7:8e:8d:c1:49:87:73:
                    26:95:7d:76:9e:9f:8b:bd:b7:42:53:f7:13:7b:83:
                    b2:19:75:78:8a:3f:e2:d5:a6:5d:e0:85:d1:3d:5b:
                    80:37:8d:13:ec:b1:a6:86:c5:ea:46:15:0f:41:73:
                    8d:ef:aa:af:70:82:a4:c1:fc:81:b2:e2:cb:41:1d:
                    ce:c1:b5:e3:0d:a6:e5:3d:86:50:1d:a6:5e:f3:c6:
                    49:51
                Exponent: 65537 (0x10001)
        X509v3 extensions:
            X509v3 Basic Constraints: 
                CA:FALSE
            X509v3 Subject Key Identifier: 
                B1:46:B3:B8:17:EB:9C:84:45:26:A2:34:AC:06:D8:7B:71:AF:92:74
            X509v3 Authority Key Identifier: 
                88:63:5B:2A:43:CB:3E:82:42:45:26:27:1F:31:A1:38:57:6B:8C:01
            X509v3 Key Usage: 
                Digital Signature, Non Repudiation, Key Encipherment
            X509v3 Extended Key Usage: 
                TLS Web Server Authentication
            X509v3 Subject Alternative Name: 
                DNS:web-platform.test, DNS:not-web-platform.test, DNS:www.web-platform.test, DNS:www2.web-platform.test, DNS:www1.web-platform.test, DNS:www.not-web-platform.test, DNS:www.www.web-platform.test, DNS:www1.www.web-platform.test, DNS:www.www1.web-platform.test, DNS:www2.not-web-platform.test, DNS:www.www2.web-platform.test, DNS:www2.www.web-platform.test, DNS:www1.not-web-platform.test, DNS:www2.www2.web-platform.test, DNS:www1.www2.web-platform.test, DNS:www2.www1.web-platform.test, DNS:www1.www1.web-platform.test, DNS:www.www.not-web-platform.test, DNS:www2.www.not-web-platform.test, DNS:www.www1.not-web-platform.test, DNS:www1.www.not-web-platform.test, DNS:www.www2.not-web-platform.test, DNS:xn--lve-6lad.web-platform.test, DNS:www2.www1.not-web-platform.test, DNS:www1.www2.not-web-platform.test, DNS:www2.www2.not-web-platform.test, DNS:www1.www1.not-web-platform.test, DNS:xn--lve-6lad.www.web-platform.test, DNS:www.xn--lve-6lad.web-platform.test, DNS:xn--lve-6lad.not-web-platform.test, DNS:xn--lve-6lad.www1.web-platform.test, DNS:xn--lve-6lad.www2.web-platform.test, DNS:www2.xn--lve-6lad.web-platform.test, DNS:www1.xn--lve-6lad.web-platform.test, DNS:xn--lve-6lad.www.not-web-platform.test, DNS:www.xn--lve-6lad.not-web-platform.test, DNS:xn--lve-6lad.www1.not-web-platform.test, DNS:www1.xn--lve-6lad.not-web-platform.test, DNS:xn--lve-6lad.www2.not-web-platform.test, DNS:www2.xn--lve-6lad.not-web-platform.test, DNS:xn--n8j6ds53lwwkrqhv28a.web-platform.test, DNS:xn--lve-6lad.xn--lve-6lad.web-platform.test, DNS:xn--n8j6ds53lwwkrqhv28a.not-web-platform.test, DNS:xn--n8j6ds53lwwkrqhv28a.www.web-platform.test, DNS:www.xn--n8j6ds53lwwkrqhv28a.web-platform.test, DNS:www2.xn--n8j6ds53lwwkrqhv28a.web-platform.test, DNS:xn--n8j6ds53lwwkrqhv28a.www1.web-platform.test, DNS:www1.xn--n8j6ds53lwwkrqhv28a.web-platform.test, DNS:xn--n8j6ds53lwwkrqhv28a.www2.web-platform.test, DNS:xn--lve-6lad.xn--lve-6lad.not-web-platform.test, DNS:xn--n8j6ds53lwwkrqhv28a.www.not-web-platform.test, DNS:www.xn--n8j6ds53lwwkrqhv28a.not-web-platform.test, DNS:www2.xn--n8j6ds53lwwkrqhv28a.not-web-platform.test, DNS:xn--n8j6ds53lwwkrqhv28a.www1.not-web-platform.test, DNS:xn--n8j6ds53lwwkrqhv28a.www2.not-web-platform.test, DNS:www1.xn--n8j6ds53lwwkrqhv28a.not-web-platform.test, DNS:xn--lve-6lad.xn--n8j6ds53lwwkrqhv28a.web-platform.test, DNS:xn--n8j6ds53lwwkrqhv28a.xn--lve-6lad.web-platform.test, DNS:xn--lve-6lad.xn--n8j6ds53lwwkrqhv28a.not-web-platform.test, DNS:xn--n8j6ds53lwwkrqhv28a.xn--lve-6lad.not-web-platform.test, DNS:xn--n8j6ds53lwwkrqhv28a.xn--n8j6ds53lwwkrqhv28a.web-platform.test, DNS:xn--n8j6ds53lwwkrqhv28a.xn--n8j6ds53lwwkrqhv28a.not-web-platform.test
    Signature Algorithm: sha256WithRSAEncryption
    Signature Value:
        9a:8b:9a:c4:75:aa:21:5e:0b:5f:04:b2:65:c3:0d:cb:b0:9b:
        e8:60:b8:83:28:5b:69:b1:c1:d2:c5:75:3b:e1:79:f5:e6:b7:
        fb:26:a9:e8:7e:d1:40:48:16:e4:04:ab:d8:53:b2:f7:fa:41:
        c8:cc:67:06:35:94:7b:df:a5:41:6c:7e:a6:25:8f:aa:36:16:
        d8:59:11:39:91:8d:e9:76:c2:e4:0e:39:90:1c:00:61:f3:0b:
        0b:74:90:8f:ea:f0:c5:4c:ca:ac:29:97:17:4d:0a:53:b2:3e:
        61:62:18:6f:48:6c:5b:13:1b:55:d5:c3:b0:7f:dd:e6:5a:77:
        72:14:7f:fa:49:ce:7e:15:e0:9d:3d:9b:e5:5c:ce:65:20:35:
        d5:63:bd:c2:52:4e:8b:9c:84:4a:f4:c9:b7:2c:6b:16:bc:2a:
        16:25:f8:65:11:b2:00:94:ff:6b:43:de:a5:a3:a4:cc:5e:3d:
        f4:66:b7:9d:32:f2:27:7d:65:7e:5a:fd:b3:e5:81:82:71:78:
        1d:55:7e:b8:f2:64:15:c0:78:1e:ca:29:3c:ef:5b:a0:40:4d:
        59:21:d7:47:06:9b:96:55:21:fe:3c:e8:6d:8b:0c:d1:f2:74:
        7a:07:fb:e1:5d:d4:2b:99:f7:cd:91:29:09:70:71:ca:29:ec:
        56:02:99:9e
-----BEGIN CERTIFICATE-----
MIIMsjCCC5qgAwIBAgIDB1L9MA0GCSqGSIb3DQEBCwUAMB0xGzAZBgNVBAMMEndl
Yi1wbGF0Zm9ybS10ZXN0czAeFw0yMjEwMTcxODI1MThaFw0yMzEwMTcxODI1MTha
MBwxGjAYBgNVBAMMEXdlYi1wbGF0Zm9ybS50ZXN0MIIBIjANBgkqhkiG9w0BAQEF
AAOCAQ8AMIIBCgKCAQEAw8RThFojvQPMZUE2ckU7fTyUYbKXDkeZkAg+VzSROdi9
/SVEX48khinVCl89zl/r1Iug/4AAJEsnQrKYjosp8LLxyrIkoL1MujQWgTiKpGrw
ZcDqTbXyWI6OLDU0gFQKBu6ERLFW7ngODV2EjmcMURG2/05JJJBrEpUjbM2zcvG3
t9D9FH+kdtZlVdB1qrOy7Sg4hBij+MSc2bYsIofZ7zEjvDCC7oIiw7BwMPeOjcFJ
h3MmlX12np+LvbdCU/cTe4OyGXV4ij/i1aZd4IXRPVuAN40T7LGmhsXqRhUPQXON
76qvcIKkwfyBsuLLQR3OwbXjDablPYZQHaZe88ZJUQIDAQABo4IJ+jCCCfYwCQYD
VR0TBAIwADAdBgNVHQ4EFgQUsUazuBfrnIRFJqI0rAbYe3GvknQwHwYDVR0jBBgw
FoAUiGNbKkPLPoJCRSYnHzGhOFdrjAEwCwYDVR0PBAQDAgXgMBMGA1UdJQQMMAoG
CCsGAQUFBwMBMIIJhQYDVR0RBIIJfDCCCXiCEXdlYi1wbGF0Zm9ybS50ZXN0ghVu
b3Qtd2ViLXBsYXRmb3JtLnRlc3SCFXd3dy53ZWItcGxhdGZvcm0udGVzdIIWd3d3
Mi53ZWItcGxhdGZvcm0udGVzdIIWd3d3MS53ZWItcGxhdGZvcm0udGVzdIIZd3d3
Lm5vdC13ZWItcGxhdGZvcm0udGVzdIIZd3d3Lnd3dy53ZWItcGxhdGZvcm0udGVz
dIIad3d3MS53d3cud2ViLXBsYXRmb3JtLnRlc3SCGnd3dy53d3cxLndlYi1wbGF0
Zm9ybS50ZXN0ghp3d3cyLm5vdC13ZWItcGxhdGZvcm0udGVzdIIad3d3Lnd3dzIu
d2ViLXBsYXRmb3JtLnRlc3SCGnd3dzIud3d3LndlYi1wbGF0Zm9ybS50ZXN0ghp3
d3cxLm5vdC13ZWItcGxhdGZvcm0udGVzdIIbd3d3Mi53d3cyLndlYi1wbGF0Zm9y
bS50ZXN0ght3d3cxLnd3dzIud2ViLXBsYXRmb3JtLnRlc3SCG3d3dzIud3d3MS53
ZWItcGxhdGZvcm0udGVzdIIbd3d3MS53d3cxLndlYi1wbGF0Zm9ybS50ZXN0gh13
d3cud3d3Lm5vdC13ZWItcGxhdGZvcm0udGVzdIIed3d3Mi53d3cubm90LXdlYi1w
bGF0Zm9ybS50ZXN0gh53d3cud3d3MS5ub3Qtd2ViLXBsYXRmb3JtLnRlc3SCHnd3
dzEud3d3Lm5vdC13ZWItcGxhdGZvcm0udGVzdIIed3d3Lnd3dzIubm90LXdlYi1w
bGF0Zm9ybS50ZXN0gh54bi0tbHZlLTZsYWQud2ViLXBsYXRmb3JtLnRlc3SCH3d3
dzIud3d3MS5ub3Qtd2ViLXBsYXRmb3JtLnRlc3SCH3d3dzEud3d3Mi5ub3Qtd2Vi
LXBsYXRmb3JtLnRlc3SCH3d3dzIud3d3Mi5ub3Qtd2ViLXBsYXRmb3JtLnRlc3SC
H3d3dzEud3d3MS5ub3Qtd2ViLXBsYXRmb3JtLnRlc3SCInhuLS1sdmUtNmxhZC53
d3cud2ViLXBsYXRmb3JtLnRlc3SCInd3dy54bi0tbHZlLTZsYWQud2ViLXBsYXRm
b3JtLnRlc3SCInhuLS1sdmUtNmxhZC5ub3Qtd2ViLXBsYXRmb3JtLnRlc3SCI3hu
LS1sdmUtNmxhZC53d3cxLndlYi1wbGF0Zm9ybS50ZXN0giN4bi0tbHZlLTZsYWQu
d3d3Mi53ZWItcGxhdGZvcm0udGVzdIIjd3d3Mi54bi0tbHZlLTZsYWQud2ViLXBs
YXRmb3JtLnRlc3SCI3d3dzEueG4tLWx2ZS02bGFkLndlYi1wbGF0Zm9ybS50ZXN0
giZ4bi0tbHZlLTZsYWQud3d3Lm5vdC13ZWItcGxhdGZvcm0udGVzdIImd3d3Lnhu
LS1sdmUtNmxhZC5ub3Qtd2ViLXBsYXRmb3JtLnRlc3SCJ3huLS1sdmUtNmxhZC53
d3cxLm5vdC13ZWItcGxhdGZvcm0udGVzdIInd3d3MS54bi0tbHZlLTZsYWQubm90
LXdlYi1wbGF0Zm9ybS50ZXN0gid4bi0tbHZlLTZsYWQud3d3Mi5ub3Qtd2ViLXBs
YXRmb3JtLnRlc3SCJ3d3dzIueG4tLWx2ZS02bGFkLm5vdC13ZWItcGxhdGZvcm0u
dGVzdIIpeG4tLW44ajZkczUzbHd3a3JxaHYyOGEud2ViLXBsYXRmb3JtLnRlc3SC
K3huLS1sdmUtNmxhZC54bi0tbHZlLTZsYWQud2ViLXBsYXRmb3JtLnRlc3SCLXhu
LS1uOGo2ZHM1M2x3d2tycWh2MjhhLm5vdC13ZWItcGxhdGZvcm0udGVzdIIteG4t
LW44ajZkczUzbHd3a3JxaHYyOGEud3d3LndlYi1wbGF0Zm9ybS50ZXN0gi13d3cu
eG4tLW44ajZkczUzbHd3a3JxaHYyOGEud2ViLXBsYXRmb3JtLnRlc3SCLnd3dzIu
eG4tLW44ajZkczUzbHd3a3JxaHYyOGEud2ViLXBsYXRmb3JtLnRlc3SCLnhuLS1u
OGo2ZHM1M2x3d2tycWh2MjhhLnd3dzEud2ViLXBsYXRmb3JtLnRlc3SCLnd3dzEu
eG4tLW44ajZkczUzbHd3a3JxaHYyOGEud2ViLXBsYXRmb3JtLnRlc3SCLnhuLS1u
OGo2ZHM1M2x3d2tycWh2MjhhLnd3dzIud2ViLXBsYXRmb3JtLnRlc3SCL3huLS1s
dmUtNmxhZC54bi0tbHZlLTZsYWQubm90LXdlYi1wbGF0Zm9ybS50ZXN0gjF4bi0t
bjhqNmRzNTNsd3drcnFodjI4YS53d3cubm90LXdlYi1wbGF0Zm9ybS50ZXN0gjF3
d3cueG4tLW44ajZkczUzbHd3a3JxaHYyOGEubm90LXdlYi1wbGF0Zm9ybS50ZXN0
gjJ3d3cyLnhuLS1uOGo2ZHM1M2x3d2tycWh2MjhhLm5vdC13ZWItcGxhdGZvcm0u
dGVzdIIyeG4tLW44ajZkczUzbHd3a3JxaHYyOGEud3d3MS5ub3Qtd2ViLXBsYXRm
b3JtLnRlc3SCMnhuLS1uOGo2ZHM1M2x3d2tycWh2MjhhLnd3dzIubm90LXdlYi1w
bGF0Zm9ybS50ZXN0gjJ3d3cxLnhuLS1uOGo2ZHM1M2x3d2tycWh2MjhhLm5vdC13
ZWItcGxhdGZvcm0udGVzdII2eG4tLWx2ZS02bGFkLnhuLS1uOGo2ZHM1M2x3d2ty
cWh2MjhhLndlYi1wbGF0Zm9ybS50ZXN0gjZ4bi0tbjhqNmRzNTNsd3drcnFodjI4
YS54bi0tbHZlLTZsYWQud2ViLXBsYXRmb3JtLnRlc3SCOnhuLS1sdmUtNmxhZC54
bi0tbjhqNmRzNTNsd3drcnFodjI4YS5ub3Qtd2ViLXBsYXRmb3JtLnRlc3SCOnhu
LS1uOGo2ZHM1M2x3d2tycWh2MjhhLnhuLS1sdmUtNmxhZC5ub3Qtd2ViLXBsYXRm
b3JtLnRlc3SCQXhuLS1uOGo2ZHM1M2x3d2tycWh2MjhhLnhuLS1uOGo2ZHM1M2x3
d2tycWh2MjhhLndlYi1wbGF0Zm9ybS50ZXN0gkV4bi0tbjhqNmRzNTNsd3drcnFo
djI4YS54bi0tbjhqNmRzNTNsd3drcnFodjI4YS5ub3Qtd2ViLXBsYXRmb3JtLnRl
c3QwDQYJKoZIhvcNAQELBQADggEBAJqLmsR1qiFeC18EsmXDDcuwm+hguIMoW2mx
wdLFdTvhefXmt/smqeh+0UBIFuQEq9hTsvf6QcjMZwY1lHvfpUFsfqYlj6o2FthZ
ETmRjel2wuQOOZAcAGHzCwt0kI/q8MVMyqwplxdNClOyPmFiGG9IbFsTG1XVw7B/
3eZad3IUf/pJzn4V4J09m+VczmUgNdVjvcJSTouchEr0ybcsaxa8KhYl+GURsgCU
/2tD3qWjpMxePfRmt50y8id9ZX5a/bPlgYJxeB1VfrjyZBXAeB7KKTzvW6BATVkh
10cGm5ZVIf486G2LDNHydHoH++Fd1CuZ982RKQlwccop7FYCmZ4=
-----END CERTIFICATE-----
