Certificate:
    Data:
        Version: 3 (0x2)
        Serial Number: 1 (0x1)
    Signature Algorithm: sha256WithRSAEncryption
        Issuer: C=US, ST=Maine, O=CA Example
        Validity
            Not Before: Apr 29 05:29:19 2015 GMT
            Not After : Apr 26 05:29:19 2025 GMT
        Subject: C=US, ST=Maine, O=Example Com, CN=foo.example.com
        Subject Public Key Info:
            Public Key Algorithm: rsaEncryption
                Public-Key: (2048 bit)
                Modulus:
                    00:cf:ff:c0:27:3b:a3:11:b5:7f:5d:4f:22:f9:75:
                    48:47:d9:3a:ce:9b:66:82:4e:e4:ae:ab:78:d3:4c:
                    3a:9a:5c:37:97:b2:7b:4e:2a:54:77:16:2a:3e:6f:
                    52:ee:4b:49:46:1d:6b:18:9a:ed:b1:ad:64:9f:8b:
                    e5:fa:e4:60:7b:39:0e:db:e8:b4:2d:4b:e8:ab:37:
                    e8:90:ec:eb:0f:3e:6b:40:7a:d1:da:e6:68:b3:f4:
                    f6:68:54:5b:27:90:6d:c2:c3:04:de:85:23:2b:3c:
                    66:4e:06:79:58:93:a1:71:d7:ec:74:55:a4:84:9d:
                    41:22:2a:7a:76:ae:56:b1:6f:15:2d:f2:f5:9c:64:
                    3e:4f:0f:6e:8f:b6:28:66:e9:89:04:5d:1d:21:77:
                    f8:03:d3:89:ed:7c:f4:3b:42:02:c8:8d:de:47:74:
                    1f:4a:5d:fe:8d:d1:57:37:08:54:bf:89:d8:f7:27:
                    22:a7:2a:5d:aa:d5:b0:61:22:9b:96:75:ee:ab:09:
                    ca:a9:cb:2b:1e:88:7c:5a:53:7e:5f:88:c4:43:ea:
                    e8:a7:db:35:6c:b2:89:ad:98:e0:96:c9:83:c4:c1:
                    e7:2a:5c:f8:99:5c:9e:01:9c:e6:99:bd:18:5c:69:
                    d4:10:f1:46:88:37:0b:4e:76:5f:6a:1a:21:c2:a4:
                    16:d1
                Exponent: 65537 (0x10001)
        X509v3 extensions:
            X509v3 Subject Key Identifier: 
                76:BC:13:90:F7:85:1B:1C:24:A1:CC:65:8A:4F:4C:0C:7F:10:D3:F5
            X509v3 Authority Key Identifier: 
                keyid:F7:FC:76:AF:C5:1A:E9:C9:42:6C:38:DF:8B:07:9E:2B:2C:E5:8E:20

            X509v3 Basic Constraints: 
                CA:FALSE
            X509v3 Key Usage: 
                Digital Signature, Key Encipherment
    Signature Algorithm: sha256WithRSAEncryption
         03:ab:2a:9e:e5:cd:5c:88:5a:6c:f7:4b:7a:7c:ef:85:2c:31:
         df:03:79:31:a6:c5:c8:2b:c6:21:a5:33:2b:a0:4b:e2:7e:0a:
         86:9b:72:25:b6:75:43:41:7c:30:9f:15:b4:9f:34:50:57:eb:
         87:f9:1e:9f:b6:cd:81:36:92:61:66:d5:fe:e2:c5:ed:de:f1:
         ce:85:0b:f9:6a:2b:32:4d:29:f1:a9:94:57:a3:0f:74:93:12:
         c9:0a:28:5e:72:9f:4f:0f:78:f5:84:11:5a:9f:d7:1c:4c:fd:
         13:d8:3d:4c:f8:dd:4c:c6:1c:fd:63:ee:f5:d5:96:f5:00:2c:
         e6:bb:c9:4c:d8:6a:19:59:58:2b:d4:05:ab:57:47:1c:49:d6:
         c5:56:1a:e3:64:10:19:9b:44:3e:74:8b:19:73:28:86:96:b4:
         d1:2a:49:23:07:25:97:64:8f:1b:1c:64:76:12:e0:df:e3:cf:
         55:d5:7c:e9:77:d4:69:2f:c7:9a:fd:ce:1a:29:ab:d7:88:68:
         93:de:75:e4:d6:85:29:e2:b6:b7:59:20:e3:b5:20:b7:e8:0b:
         23:9b:4c:b4:e8:d9:90:cf:e9:2f:9e:a8:22:a2:ef:6a:68:65:
         f6:c4:81:ed:75:77:88:01:f2:47:03:1a:de:1f:44:38:47:fa:
         aa:69:f2:98
-----BEGIN CERTIFICATE-----
MIIDVDCCAjygAwIBAgIBATANBgkqhkiG9w0BAQsFADAyMQswCQYDVQQGEwJVUzEO
MAwGA1UECAwFTWFpbmUxEzARBgNVBAoMCkNBIEV4YW1wbGUwHhcNMTUwNDI5MDUy
OTE5WhcNMjUwNDI2MDUyOTE5WjBNMQswCQYDVQQGEwJVUzEOMAwGA1UECAwFTWFp
bmUxFDASBgNVBAoMC0V4YW1wbGUgQ29tMRgwFgYDVQQDDA9mb28uZXhhbXBsZS5j
b20wggEiMA0GCSqGSIb3DQEBAQUAA4IBDwAwggEKAoIBAQDP/8AnO6MRtX9dTyL5
dUhH2TrOm2aCTuSuq3jTTDqaXDeXsntOKlR3Fio+b1LuS0lGHWsYmu2xrWSfi+X6
5GB7OQ7b6LQtS+irN+iQ7OsPPmtAetHa5miz9PZoVFsnkG3CwwTehSMrPGZOBnlY
k6Fx1+x0VaSEnUEiKnp2rlaxbxUt8vWcZD5PD26Ptihm6YkEXR0hd/gD04ntfPQ7
QgLIjd5HdB9KXf6N0Vc3CFS/idj3JyKnKl2q1bBhIpuWde6rCcqpyyseiHxaU35f
iMRD6uin2zVssomtmOCWyYPEwecqXPiZXJ4BnOaZvRhcadQQ8UaINwtOdl9qGiHC
pBbRAgMBAAGjWjBYMB0GA1UdDgQWBBR2vBOQ94UbHCShzGWKT0wMfxDT9TAfBgNV
HSMEGDAWgBT3/HavxRrpyUJsON+LB54rLOWOIDAJBgNVHRMEAjAAMAsGA1UdDwQE
AwIFoDANBgkqhkiG9w0BAQsFAAOCAQEAA6sqnuXNXIhabPdLenzvhSwx3wN5MabF
yCvGIaUzK6BL4n4KhptyJbZ1Q0F8MJ8VtJ80UFfrh/ken7bNgTaSYWbV/uLF7d7x
zoUL+WorMk0p8amUV6MPdJMSyQooXnKfTw949YQRWp/XHEz9E9g9TPjdTMYc/WPu
9dWW9QAs5rvJTNhqGVlYK9QFq1dHHEnWxVYa42QQGZtEPnSLGXMohpa00SpJIwcl
l2SPGxxkdhLg3+PPVdV86XfUaS/Hmv3OGimr14hok9515NaFKeK2t1kg47Ugt+gL
I5tMtOjZkM/pL56oIqLvamhl9sSB7XV3iAHyRwMa3h9EOEf6qmnymA==
-----END CERTIFICATE-----
