?Equals@nsID@@QBEHABU1@@Z ; 14742919
?Attributes@nsXULElement@@IBEPAVnsXULAttributes@@XZ ; 12165607
?GetNodeInfo@nsXULAttribute@@QBEPAVnsINodeInfo@@XZ ; 9507741
?ElementAt@nsXULAttributes@@QAEPAVnsXULAttribute@@H@Z ; 9484729
?AddRef@nsXULElement@@UAGKXZ ; 9071258
?Release@nsXULElement@@UAGKXZ ; 9065053
?GetIID@?$nsCOMTypeInfo@VnsIStyledContent@@@@SAABUnsID@@XZ ; 4595353
?GetIID@nsIStyledContent@@SAABUnsID@@XZ ; 4595353
?QueryInterface@nsXULElement@@UAGIABUnsID@@PAPAX@Z ; 4595353
?Count@nsXULAttributes@@QAEHXZ ; 3052573
??1?$nsCOMPtr@VnsIAtom@@@@QAE@XZ ; 2653789
?ns_if_addref@@YAKPAVnsIContent@@@Z ; 2601914
?assign_assuming_AddRef@?$nsCOMPtr@VnsIAtom@@@@AAEXPAVnsIAtom@@@Z ; 2595091
?get@?$nsCOMPtr@VnsINodeInfo@@@@QBEPAV?$nsDerivedSafe@VnsINodeInfo@@@@XZ ; 2385824
??0?$nsCOMPtr@VnsIAtom@@@@QAE@XZ ; 2282130
?Assert_NoQueryNeeded@?$nsCOMPtr@VnsIAtom@@@@QAEXXZ ; 2241289
?getter_AddRefs@@YA?AV?$nsGetterAddRefs@VnsIAtom@@@@AAV?$nsCOMPtr@VnsIAtom@@@@@Z ; 2175679
?StartAssignment@?$nsCOMPtr@VnsIAtom@@@@QAEPAPAVnsIAtom@@XZ ; 2175679
??0?$nsGetterAddRefs@VnsIAtom@@@@QAE@AAV?$nsCOMPtr@VnsIAtom@@@@@Z ; 2175679
??1?$nsGetterAddRefs@VnsIAtom@@@@QAE@XZ ; 2175679
??D?$nsGetterAddRefs@VnsIAtom@@@@QAEAAPAVnsIAtom@@XZ ; 2172293
??B?$nsCOMPtr@VnsINodeInfo@@@@QBEPAV?$nsDerivedSafe@VnsINodeInfo@@@@XZ ; 2097323
?GetAttribute@nsXULElement@@UBGIHPAVnsIAtom@@AAV?$basic_nsAWritableString@G@@@Z ; 1851005
?GetAttribute@nsXULElement@@UBGIHPAVnsIAtom@@AAPAV2@AAV?$basic_nsAWritableString@G@@@Z ; 1851005
?get@?$nsCOMPtr@VnsIAtom@@@@QBEPAV?$nsDerivedSafe@VnsIAtom@@@@XZ ; 1807947
?NodeInfo@nsXULElement@@IBEPAVnsINodeInfo@@XZ ; 1753953
?GetParent@nsXULElement@@UBGIAAPAVnsIContent@@@Z ; 1673356
?do_QueryInterface@@YA?BVnsQueryInterface@@PAVnsISupports@@PAI@Z ; 1460561
?GetIID@nsIXMLContent@@SAABUnsID@@XZ ; 1369104
?GetIID@?$nsCOMTypeInfo@VnsIXMLContent@@@@SAABUnsID@@XZ ; 1369104
?EnsureContentsGenerated@nsXULElement@@IBEIXZ ; 1332455
?lt@?$nsCharTraits@G@@SAHABG0@Z ; 1245005
?GetBindingParent@nsXULElement@@UAGIPAPAVnsIContent@@@Z ; 910508
?get@?$nsReadingIterator@G@@QBEPBGXZ ; 904176
?GetTag@nsXULElement@@UBGIAAPAVnsIAtom@@@Z ; 879932
?get@?$nsCOMPtr@VnsIContent@@@@QBEPAV?$nsDerivedSafe@VnsIContent@@@@XZ ; 858589
?GetIID@?$nsCOMTypeInfo@VnsIXULContent@@@@SAABUnsID@@XZ ; 836606
?GetIID@nsIXULContent@@SAABUnsID@@XZ ; 836606
?ChildAt@nsXULElement@@UBGIHAAPAVnsIContent@@@Z ; 769478
?GetID@nsXULElement@@UBGIAAPAVnsIAtom@@@Z ; 729084
?GetNameSpaceID@nsXULElement@@UBGIAAH@Z ; 714490
?assign_assuming_AddRef@?$nsCOMPtr@VnsIContent@@@@AAEXPAVnsIContent@@@Z ; 692394
?normalize_forward@?$nsReadingIterator@G@@QAEXXZ ; 634184
?IsStringValue@nsXULAttributeValue@@AAEHXZ ; 601568
??B?$nsCOMPtr@VnsIAtom@@@@QBEPAV?$nsDerivedSafe@VnsIAtom@@@@XZ ; 584127
?AddRef@nsXULDocument@@UAGKXZ ; 572910
?Release@nsXULDocument@@UAGKXZ ; 572890
??1?$nsCOMPtr@VnsIContent@@@@QAE@XZ ; 552435
?GetIID@nsIDocument@@SAABUnsID@@XZ ; 534750
?GetIID@?$nsCOMTypeInfo@VnsIDocument@@@@SAABUnsID@@XZ ; 534750
?GetAttributeCount@nsXULElement@@UBGIAAH@Z ; 529761
?get@?$nsCOMPtr@VnsIEventListenerManager@@@@QBEPAV?$nsDerivedSafe@VnsIEventListenerManager@@@@XZ ; 474770
?Assert_NoQueryNeeded@?$nsCOMPtr@VnsIContent@@@@QAEXXZ ; 416107
?getter_AddRefs@@YA?AV?$nsGetterAddRefs@VnsIContent@@@@AAV?$nsCOMPtr@VnsIContent@@@@@Z ; 410368
??0?$nsGetterAddRefs@VnsIContent@@@@QAE@AAV?$nsCOMPtr@VnsIContent@@@@@Z ; 410368
?StartAssignment@?$nsCOMPtr@VnsIContent@@@@QAEPAPAVnsIContent@@XZ ; 410368
??1?$nsGetterAddRefs@VnsIContent@@@@QAE@XZ ; 410368
?QueryInterface@nsXULDocument@@UAGIABUnsID@@PAPAX@Z ; 405014
??B?$nsCOMPtr@VnsIContent@@@@QBEPAV?$nsDerivedSafe@VnsIContent@@@@XZ ; 399515
?get@?$nsCOMPtr@VnsIBindingManager@@@@QBEPAV?$nsDerivedSafe@VnsIBindingManager@@@@XZ ; 397698
?IndexOf@nsXULElement@@UBGIPAVnsIContent@@AAH@Z ; 390470
?GetIID@nsIAtom@@SAABUnsID@@XZ ; 363428
??0?$nsCOMPtr@VnsIAtom@@@@QAE@ABVnsQueryInterface@@@Z ; 363428
?assign_from_helper@?$nsCOMPtr@VnsIAtom@@@@AAEXABVnsCOMPtr_helper@@ABUnsID@@@Z ; 363428
?GetIID@?$nsCOMTypeInfo@VnsIAtom@@@@SAABUnsID@@XZ ; 363428
??0?$nsCOMPtr@VnsIContent@@@@QAE@XZ ; 344965
??0?$nsReadingIterator@G@@QAE@XZ ; 344037
??0?$nsReadableFragment@G@@QAE@XZ ; 344037
?BeginReading@?$basic_nsAReadableString@G@@QBEAAV?$nsReadingIterator@G@@AAV2@@Z ; 337813
?get@?$nsCOMPtr@VnsIDocument@@@@QBEPAV?$nsDerivedSafe@VnsIDocument@@@@XZ ; 327899
??D?$nsReadingIterator@G@@QBEGXZ ; 324600
??B?$nsCOMPtr@VnsIEventListenerManager@@@@QBEPAV?$nsDerivedSafe@VnsIEventListenerManager@@@@XZ ; 313798
?size_forward@?$nsReadingIterator@G@@QBEHXZ ; 313218
?HasClass@nsXULElement@@UBGIPAVnsIAtom@@@Z ; 310721
?HasClass@nsClassList@@SAHPAV1@PAVnsIAtom@@@Z ; 310701
??0nsISupports@@QAE@XZ ; 308545
?HasClass@nsXULAttributes@@QBEIPAVnsIAtom@@@Z ; 305053
?get@?$nsCOMPtr@VnsIPrincipal@@@@QBEPAV?$nsDerivedSafe@VnsIPrincipal@@@@XZ ; 303734
??B?$nsCOMPtr@VnsIPrincipal@@@@QBEPAV?$nsDerivedSafe@VnsIPrincipal@@@@XZ ; 303143
?GetIID@nsIDOMXULElement@@SAABUnsID@@XZ ; 300418
?GetIID@?$nsCOMTypeInfo@VnsIDOMXULElement@@@@SAABUnsID@@XZ ; 300418
?get@?$nsCOMPtr@VnsIScriptGlobalObject@@@@QBEPAV?$nsDerivedSafe@VnsIScriptGlobalObject@@@@XZ ; 280221
??B?$nsGetterAddRefs@VnsIContent@@@@QAEPAPAVnsIContent@@XZ ; 269224
?GetValue@nsXULAttributeValue@@QAEIAAV?$basic_nsAWritableString@G@@@Z ; 263350
??1?$nsCOMPtr@VnsIDocument@@@@QAE@XZ ; 258456
?GetValueAsAtom@nsXULAttributeValue@@QAEIPAPAVnsIAtom@@@Z ; 256784
??1?$nsCOMPtr@VnsIDOMEventTarget@@@@QAE@XZ ; 255825
?GetValueAsAtom@nsXULAttribute@@QAEIPAPAVnsIAtom@@@Z ; 245614
??0?$nsCOMPtr@VnsIDOMEventTarget@@@@QAE@XZ ; 237596
?GetValue@nsXULAttribute@@UAGIAAV?$basic_nsAWritableString@G@@@Z ; 236352
?HandleDOMEvent@nsXULElement@@UAGIPAVnsIPresContext@@PAUnsEvent@@PAPAVnsIDOMEvent@@IPAW4nsEventStatus@@@Z ; 228840
?assign_assuming_AddRef@?$nsCOMPtr@VnsIDocument@@@@AAEXPAVnsIDocument@@@Z ; 227654
?assign_assuming_AddRef@?$nsCOMPtr@VnsIBindingManager@@@@AAEXPAVnsIBindingManager@@@Z ; 224284
??1?$nsCOMPtr@VnsIBindingManager@@@@QAE@XZ ; 224281
?NS_MIN@@YAABHABH0@Z ; 219297
?get@?$nsCOMPtr@VnsIStyleRule@@@@QBEPAV?$nsDerivedSafe@VnsIStyleRule@@@@XZ ; 217290
?GetClasses@nsXULElement@@UBGIAAVnsVoidArray@@@Z ; 214348
?GetClasses@nsClassList@@SAIPAV1@AAVnsVoidArray@@@Z ; 208128
??9@YAHABV?$nsReadingIterator@G@@0@Z ; 205049
?GetIID@nsIContent@@SAABUnsID@@XZ ; 204180
?GetIID@?$nsCOMTypeInfo@VnsIContent@@@@SAABUnsID@@XZ ; 204180
?GetClasses@nsXULAttributes@@QBEIAAVnsVoidArray@@@Z ; 203862
?assign_from_helper@?$nsCOMPtr@VnsIContent@@@@AAEXABVnsCOMPtr_helper@@ABUnsID@@@Z ; 203715
??0?$nsCOMPtr@VnsIContent@@@@QAE@ABVnsQueryInterface@@@Z ; 203599
?assign_assuming_AddRef@?$nsCOMPtr@VnsINodeInfo@@@@AAEXPAVnsINodeInfo@@@Z ; 201269
?assign_assuming_AddRef@?$nsCOMPtr@VnsIScriptGlobalObject@@@@AAEXPAVnsIScriptGlobalObject@@@Z ; 190578
??1?$nsCOMPtr@VnsIScriptGlobalObject@@@@QAE@XZ ; 190563
??C?$nsCOMPtr@VnsIContent@@@@QBEPAV?$nsDerivedSafe@VnsIContent@@@@XZ ; 189655
??C?$nsCOMPtr@VnsINodeInfo@@@@QBEPAV?$nsDerivedSafe@VnsINodeInfo@@@@XZ ; 189010
??1?$nsCOMPtr@VnsINodeInfo@@@@QAE@XZ ; 188328
?GetIID@nsIDOMNode@@SAABUnsID@@XZ ; 184475
?GetIID@?$nsCOMTypeInfo@VnsIDOMNode@@@@SAABUnsID@@XZ ; 184475
??B?$nsCOMPtr@VnsIScriptGlobalObject@@@@QBEPAV?$nsDerivedSafe@VnsIScriptGlobalObject@@@@XZ ; 184078
??B?$nsCOMPtr@VnsIBindingManager@@@@QBEPAV?$nsDerivedSafe@VnsIBindingManager@@@@XZ ; 173095
?PeekChildCount@nsXULElement@@UBGIAAH@Z ; 171951
?get@?$nsCOMPtr@VnsIDOMNode@@@@QBEPAV?$nsDerivedSafe@VnsIDOMNode@@@@XZ ; 169756
?get@?$nsCOMPtr@VnsPIDOMWindow@@@@QBEPAV?$nsDerivedSafe@VnsPIDOMWindow@@@@XZ ; 165348
?assign_assuming_AddRef@?$nsCOMPtr@VnsIDOMNode@@@@AAEXPAVnsIDOMNode@@@Z ; 162164
?ChildCount@nsXULElement@@UBGIAAH@Z ; 161858
?GetDocument@nsXULElement@@UBGIAAPAVnsIDocument@@@Z ; 156695
?ns_if_addref@@YAKPAVnsIDocument@@@Z ; 156578
?get@?$nsCOMPtr@VnsIXULPrototypeDocument@@@@QBEPAV?$nsDerivedSafe@VnsIXULPrototypeDocument@@@@XZ ; 155527
?advance@?$nsReadingIterator@G@@QAEAAV1@H@Z ; 155509
??1?$nsCOMPtr@VnsIDOMNode@@@@QAE@XZ ; 152293
??C?$nsCOMPtr@VnsIXULPrototypeDocument@@@@QBEPAV?$nsDerivedSafe@VnsIXULPrototypeDocument@@@@XZ ; 152221
?GetDocumentPrincipal@nsXULPrototypeDocument@@UAGIPAPAVnsIPrincipal@@@Z ; 151515
?GetPrincipal@nsXULDocument@@UAGIPAPAVnsIPrincipal@@@Z ; 151507
??E?$nsReadingIterator@G@@QAEAAV0@XZ ; 150685
??C?$nsCOMPtr@VnsIEventListenerManager@@@@QBEPAV?$nsDerivedSafe@VnsIEventListenerManager@@@@XZ ; 149689
?GetBindingManager@nsXULDocument@@UAGIPAPAVnsIBindingManager@@@Z ; 142390
?ns_if_addref@@YAKPAVnsIBindingManager@@@Z ; 142390
??D?$nsGetterAddRefs@VnsIContent@@@@QAEAAPAVnsIContent@@XZ ; 141072
?CharAt@?$basic_nsAReadableString@G@@QBEGI@Z ; 133313
?assign_from_helper@?$nsCOMPtr@VnsIDocument@@@@AAEXABVnsCOMPtr_helper@@ABUnsID@@@Z ; 129736
??0?$nsCOMPtr@VnsIDocument@@@@QAE@ABVnsQueryInterface@@@Z ; 129668
?Assert_NoQueryNeeded@?$nsCOMPtr@VnsIDocument@@@@QAEXXZ ; 128789
?get@?$nsCOMPtr@VnsIXBLBinding@@@@QBEPAV?$nsDerivedSafe@VnsIXBLBinding@@@@XZ ; 125937
?BroadcastListeners@nsXULElement@@IBEPAVnsVoidArray@@XZ ; 118961
?get@?$nsCOMPtr@VnsIDOMNodeList@@@@QBEPAV?$nsDerivedSafe@VnsIDOMNodeList@@@@XZ ; 118563
??1?$nsCOMPtr@VnsIStyleRule@@@@QAE@XZ ; 114439
?get@?$nsCOMPtr@VnsINodeInfoManager@@@@QBEPAV?$nsDerivedSafe@VnsINodeInfoManager@@@@XZ ; 113650
??B?$nsCOMPtr@VnsIStyleRule@@@@QBEPAV?$nsDerivedSafe@VnsIStyleRule@@@@XZ ; 113516
?Assert_NoQueryNeeded@?$nsCOMPtr@VnsIStyleRule@@@@QAEXXZ ; 113353
??C?$nsCOMPtr@VnsIBindingManager@@@@QBEPAV?$nsDerivedSafe@VnsIBindingManager@@@@XZ ; 112461
?GetIID@?$nsCOMTypeInfo@VnsIBindingManager@@@@SAABUnsID@@XZ ; 112154
?assign_from_helper@?$nsCOMPtr@VnsIBindingManager@@@@AAEXABVnsCOMPtr_helper@@ABUnsID@@@Z ; 112154
?GetIID@nsIBindingManager@@SAABUnsID@@XZ ; 112154
??0?$nsCOMPtr@VnsIBindingManager@@@@QAE@XZ ; 112142
??0?$nsCOMPtr@VnsIBindingManager@@@@QAE@ABVnsQueryInterface@@@Z ; 112142
?Assert_NoQueryNeeded@?$nsCOMPtr@VnsIBindingManager@@@@QAEXXZ ; 112142
?getter_AddRefs@@YA?AV?$nsGetterAddRefs@VnsIBindingManager@@@@AAV?$nsCOMPtr@VnsIBindingManager@@@@@Z ; 112130
??B?$nsGetterAddRefs@VnsIBindingManager@@@@QAEPAPAVnsIBindingManager@@XZ ; 112130
??0?$nsGetterAddRefs@VnsIBindingManager@@@@QAE@AAV?$nsCOMPtr@VnsIBindingManager@@@@@Z ; 112130
?StartAssignment@?$nsCOMPtr@VnsIBindingManager@@@@QAEPAPAVnsIBindingManager@@XZ ; 112130
??1?$nsGetterAddRefs@VnsIBindingManager@@@@QAE@XZ ; 112130
??0?$nsCOMPtr@VnsIStyleRule@@@@QAE@XZ ; 111561
?AddRef@nsRDFDOMNodeList@@UAGKXZ ; 111119
?Release@nsRDFDOMNodeList@@UAGKXZ ; 111112
??1?$basic_nsAReadableString@G@@UAE@XZ ; 110314
??0?$nsPrivateSharableString@G@@QAE@XZ ; 110314
??0?$basic_nsAReadableString@G@@QAE@XZ ; 110314
?GetIID@?$nsCOMTypeInfo@VnsISupports@@@@SAABUnsID@@XZ ; 109685
?GetEventHandlerIID@nsXULContentUtils@@UAGIPAVnsIAtom@@PAUnsID@@PAH@Z ; 109489
?GetInlineStyleRules@nsXULElement@@UAGIPAVnsISupportsArray@@@Z ; 108863
?GetIID@nsIDOMNodeList@@SAABUnsID@@XZ ; 107050
?GetIID@?$nsCOMTypeInfo@VnsIDOMNodeList@@@@SAABUnsID@@XZ ; 107050
?assign_assuming_AddRef@?$nsCOMPtr@VnsIStyleRule@@@@AAEXPAVnsIStyleRule@@@Z ; 106193
?GetContentStyleRules@nsXULElement@@UAGIPAVnsISupportsArray@@@Z ; 105401
?assign_assuming_AddRef@?$nsCOMPtr@VnsIXBLBinding@@@@AAEXPAVnsIXBLBinding@@@Z ; 105349
??1?$nsCOMPtr@VnsIXBLBinding@@@@QAE@XZ ; 105199
??1?$nsGetterAddRefs@VnsIStyleRule@@@@QAE@XZ ; 103677
?StartAssignment@?$nsCOMPtr@VnsIStyleRule@@@@QAEPAPAVnsIStyleRule@@XZ ; 103677
??0?$nsGetterAddRefs@VnsIStyleRule@@@@QAE@AAV?$nsCOMPtr@VnsIStyleRule@@@@@Z ; 103677
?getter_AddRefs@@YA?AV?$nsGetterAddRefs@VnsIStyleRule@@@@AAV?$nsCOMPtr@VnsIStyleRule@@@@@Z ; 103677
??D?$nsGetterAddRefs@VnsIStyleRule@@@@QAEAAPAVnsIStyleRule@@XZ ; 103677
?GetInlineStyleRule@nsXULAttributes@@QAEIAAPAVnsIStyleRule@@@Z ; 103620
??9@YAHABV?$nsCOMPtr@VnsIStyleRule@@@@PAVNSCAP_Zero@@@Z ; 103620
?Assert_NoQueryNeeded@?$nsCOMPtr@VnsIScriptGlobalObject@@@@QAEXXZ ; 101000
??1?$nsGetterAddRefs@VnsIScriptGlobalObject@@@@QAE@XZ ; 100946
??B?$nsGetterAddRefs@VnsIScriptGlobalObject@@@@QAEPAPAVnsIScriptGlobalObject@@XZ ; 100946
?StartAssignment@?$nsCOMPtr@VnsIScriptGlobalObject@@@@QAEPAPAVnsIScriptGlobalObject@@XZ ; 100946
?getter_AddRefs@@YA?AV?$nsGetterAddRefs@VnsIScriptGlobalObject@@@@AAV?$nsCOMPtr@VnsIScriptGlobalObject@@@@@Z ; 100946
??0?$nsCOMPtr@VnsIScriptGlobalObject@@@@QAE@XZ ; 100946
??0?$nsGetterAddRefs@VnsIScriptGlobalObject@@@@QAE@AAV?$nsCOMPtr@VnsIScriptGlobalObject@@@@@Z ; 100946
??B?$nsCOMPtr@VnsIDocument@@@@QBEPAV?$nsDerivedSafe@VnsIDocument@@@@XZ ; 100680
??0?$nsCOMPtr@VnsINodeInfo@@@@QAE@XZ ; 100374
?Assert_NoQueryNeeded@?$nsCOMPtr@VnsINodeInfo@@@@QAEXXZ ; 99493
??0?$nsCOMPtr@VnsINodeInfo@@@@QAE@ABVnsQueryInterface@@@Z ; 99491
?GetIID@nsINodeInfo@@SAABUnsID@@XZ ; 99491
?assign_from_helper@?$nsCOMPtr@VnsINodeInfo@@@@AAEXABVnsCOMPtr_helper@@ABUnsID@@@Z ; 99491
?GetIID@?$nsCOMTypeInfo@VnsINodeInfo@@@@SAABUnsID@@XZ ; 99491
??0?$nsCOMPtr@VnsIDocument@@@@QAE@XZ ; 97918
??0?$nsGetterAddRefs@VnsIDocument@@@@QAE@AAV?$nsCOMPtr@VnsIDocument@@@@@Z ; 97918
?getter_AddRefs@@YA?AV?$nsGetterAddRefs@VnsIDocument@@@@AAV?$nsCOMPtr@VnsIDocument@@@@@Z ; 97918
??1?$nsGetterAddRefs@VnsIDocument@@@@QAE@XZ ; 97918
?StartAssignment@?$nsCOMPtr@VnsIDocument@@@@QAEPAPAVnsIDocument@@XZ ; 97918
??D?$nsGetterAddRefs@VnsIDocument@@@@QAEAAPAVnsIDocument@@XZ ; 97899
??0nsIScriptObjectOwner@@QAE@XZ ; 97258
?SetValue@nsXULAttributeValue@@QAEIABV?$basic_nsAReadableString@G@@H@Z ; 96895
??C?$nsCOMPtr@VnsIDocument@@@@QBEPAV?$nsDerivedSafe@VnsIDocument@@@@XZ ; 96138
?InsertChildAt@nsXULElement@@UAGIPAVnsIContent@@HH@Z ; 93793
?GetScriptGlobalObject@nsXULDocument@@UAGIPAPAVnsIScriptGlobalObject@@@Z ; 93673
?ns_if_addref@@YAKPAVnsIScriptGlobalObject@@@Z ; 93673
?AddRef@nsRDFResource@@UAGKXZ ; 93485
?assign_assuming_AddRef@?$nsCOMPtr@VnsIDOMNodeList@@@@AAEXPAVnsIDOMNodeList@@@Z ; 91580
??1?$nsCOMPtr@VnsIDOMNodeList@@@@QAE@XZ ; 91580
??1?$nsGetterAddRefs@VnsINodeInfo@@@@QAE@XZ ; 91465
??D?$nsGetterAddRefs@VnsINodeInfo@@@@QAEAAPAVnsINodeInfo@@XZ ; 91465
?getter_AddRefs@@YA?AV?$nsGetterAddRefs@VnsINodeInfo@@@@AAV?$nsCOMPtr@VnsINodeInfo@@@@@Z ; 91465
??0?$nsGetterAddRefs@VnsINodeInfo@@@@QAE@AAV?$nsCOMPtr@VnsINodeInfo@@@@@Z ; 91465
?StartAssignment@?$nsCOMPtr@VnsINodeInfo@@@@QAEPAPAVnsINodeInfo@@XZ ; 91465
?GetIID@?$nsCOMTypeInfo@VnsIScriptEventHandlerOwner@@@@SAABUnsID@@XZ ; 91240
?GetIID@nsIScriptEventHandlerOwner@@SAABUnsID@@XZ ; 91240
?SetValueInternal@nsXULAttribute@@QAEIABV?$basic_nsAReadableString@G@@@Z ; 90093
?GetIID@nsIScriptGlobalObject@@SAABUnsID@@XZ ; 89797
?GetIID@?$nsCOMTypeInfo@VnsIScriptGlobalObject@@@@SAABUnsID@@XZ ; 89797
?assign_from_helper@?$nsCOMPtr@VnsIScriptGlobalObject@@@@AAEXABVnsCOMPtr_helper@@ABUnsID@@@Z ; 89618
??0?$nsCOMPtr@VnsIScriptGlobalObject@@@@QAE@ABVnsQueryInterface@@@Z ; 89618
?GetIID@nsIDOMNSDocument@@SAABUnsID@@XZ ; 88362
?GetIID@?$nsCOMTypeInfo@VnsIDOMNSDocument@@@@SAABUnsID@@XZ ; 88362
??B?$nsCOMPtr@VnsIDOMNode@@@@QBEPAV?$nsDerivedSafe@VnsIDOMNode@@@@XZ ; 88333
?Release@nsRDFResource@@UAGKXZ ; 88178
??1ConstIterator@nsAssignmentSet@@QAE@XZ ; 87621
??0ConstIterator@nsAssignmentSet@@QAE@PAVList@1@@Z ; 87621
?get@?$nsCOMPtr@VnsIRDFNodeList@@@@QBEPAV?$nsDerivedSafe@VnsIRDFNodeList@@@@XZ ; 85986
??B?$nsCOMPtr@VnsIRDFNodeList@@@@QBEPAV?$nsDerivedSafe@VnsIRDFNodeList@@@@XZ ; 85960
??0?$nsCOMPtr@VnsIRDFNodeList@@@@QAE@XZ ; 85960
??1?$nsCOMPtr@VnsIRDFNodeList@@@@QAE@XZ ; 85960
?assign_from_helper@?$nsCOMPtr@VnsIDOMNode@@@@AAEXABVnsCOMPtr_helper@@ABUnsID@@@Z ; 85669
?GetReadableFragment@?$basic_nsLiteralString@G@@MBEPBGAAU?$nsReadableFragment@G@@W4nsFragmentRequest@@I@Z ; 84405
?StartAssignment@?$nsCOMPtr@VnsIXBLBinding@@@@QAEPAPAVnsIXBLBinding@@XZ ; 84298
??B?$nsCOMPtr@VnsIXBLBinding@@@@QBEPAV?$nsDerivedSafe@VnsIXBLBinding@@@@XZ ; 84298
??1?$nsGetterAddRefs@VnsIXBLBinding@@@@QAE@XZ ; 84298
?Assert_NoQueryNeeded@?$nsCOMPtr@VnsIXBLBinding@@@@QAEXXZ ; 84298
??B?$nsGetterAddRefs@VnsIXBLBinding@@@@QAEPAPAVnsIXBLBinding@@XZ ; 84298
??0?$nsGetterAddRefs@VnsIXBLBinding@@@@QAE@AAV?$nsCOMPtr@VnsIXBLBinding@@@@@Z ; 84298
?getter_AddRefs@@YA?AV?$nsGetterAddRefs@VnsIXBLBinding@@@@AAV?$nsCOMPtr@VnsIXBLBinding@@@@@Z ; 84298
??0?$nsCOMPtr@VnsIXBLBinding@@@@QAE@XZ ; 84148
?NS_MIN@@YAABIABI0@Z ; 83222
?SetAttribute@nsXULElement@@UAGIPAVnsINodeInfo@@ABV?$basic_nsAReadableString@G@@H@Z ; 82738
??C?$nsCOMPtr@VnsPIDOMWindow@@@@QBEPAV?$nsDerivedSafe@VnsPIDOMWindow@@@@XZ ; 82679
?GetIID@nsPIDOMWindow@@SAABUnsID@@XZ ; 82679
??0?$nsCOMPtr@VnsPIDOMWindow@@@@QAE@ABVnsQueryInterface@@@Z ; 82679
?assign_assuming_AddRef@?$nsCOMPtr@VnsPIDOMWindow@@@@AAEXPAVnsPIDOMWindow@@@Z ; 82679
?assign_from_helper@?$nsCOMPtr@VnsPIDOMWindow@@@@AAEXABVnsCOMPtr_helper@@ABUnsID@@@Z ; 82679
?GetIID@?$nsCOMTypeInfo@VnsPIDOMWindow@@@@SAABUnsID@@XZ ; 82679
??1?$nsCOMPtr@VnsPIDOMWindow@@@@QAE@XZ ; 82679
??B?$nsCOMPtr@VnsPIDOMWindow@@@@QBEPAV?$nsDerivedSafe@VnsPIDOMWindow@@@@XZ ; 82669
??1?$basic_nsLiteralString@G@@UAE@XZ ; 82388
??0?$basic_nsLiteralString@G@@QAE@PBGI@Z ; 82388
?GetIID@nsIXULDocument@@SAABUnsID@@XZ ; 82283
?GetIID@?$nsCOMTypeInfo@VnsIXULDocument@@@@SAABUnsID@@XZ ; 82283
?GetIID@nsIDOMXULDocument@@SAABUnsID@@XZ ; 82049
?GetIID@?$nsCOMTypeInfo@VnsIDOMXULDocument@@@@SAABUnsID@@XZ ; 82049
?GetIID@nsIDOMDocument@@SAABUnsID@@XZ ; 81838
?GetIID@?$nsCOMTypeInfo@VnsIDOMDocument@@@@SAABUnsID@@XZ ; 81838
?ReleaseValue@nsXULAttributeValue@@QAEXXZ ; 81434
?GetIID@nsIXMLDocument@@SAABUnsID@@XZ ; 81027
?GetIID@?$nsCOMTypeInfo@VnsIXMLDocument@@@@SAABUnsID@@XZ ; 81027
?Assign@?$basic_nsAWritableString@G@@QAEXPBG@Z ; 79734
?assign_with_AddRef@?$nsCOMPtr@VnsIContent@@@@AAEXPAVnsISupports@@@Z ; 78311
??4?$nsCOMPtr@VnsIContent@@@@QAEAAV0@ABV0@@Z ; 77802
??0?$nsCOMPtr@VnsIDOMNode@@@@QAE@ABVnsQueryInterface@@@Z ; 76913
?Assert_NoQueryNeeded@?$nsCOMPtr@VnsIDOMNode@@@@QAEXXZ ; 76488
??0?$nsCOMPtr@VnsIDOMNode@@@@QAE@XZ ; 75440
??1?$nsGetterAddRefs@VnsIDOMNode@@@@QAE@XZ ; 74637
?getter_AddRefs@@YA?AV?$nsGetterAddRefs@VnsIDOMNode@@@@AAV?$nsCOMPtr@VnsIDOMNode@@@@@Z ; 74637
?StartAssignment@?$nsCOMPtr@VnsIDOMNode@@@@QAEPAPAVnsIDOMNode@@XZ ; 74637
??0?$nsGetterAddRefs@VnsIDOMNode@@@@QAE@AAV?$nsCOMPtr@VnsIDOMNode@@@@@Z ; 74637
??9ConstIterator@nsAssignmentSet@@QBEHABV01@@Z ; 74249
?Compare@?$basic_nsAReadableString@G@@QBEHABV1@@Z ; 73208
?Compare@@YAHABV?$basic_nsAReadableString@G@@0@Z ; 73208
?compare@?$nsCharTraits@G@@SAHPBG0I@Z ; 73208
?Last@nsAssignmentSet@@QBE?AVConstIterator@1@XZ ; 72624
?Release@List@nsAssignmentSet@@QAEHXZ ; 70871
??B?$nsGetterAddRefs@VnsIDOMNode@@@@QAEPAPAXXZ ; 69931
?GetForwardArcs@InMemoryDataSource@@QAEPAVAssertion@@PAVnsIRDFResource@@@Z ; 69556
?ns_if_addref@@YAKPAVList@nsAssignmentSet@@@Z ; 69228
?AddRef@List@nsAssignmentSet@@QAEHXZ ; 69228
??CConstIterator@nsAssignmentSet@@QBEPBVnsAssignment@@XZ ; 69053
?assign_assuming_AddRef@?$nsCOMPtr@VnsINodeInfoManager@@@@AAEXPAVnsINodeInfoManager@@@Z ; 69034
??1?$nsCOMPtr@VnsINodeInfoManager@@@@QAE@XZ ; 69031
?Length@?$basic_nsLiteralString@G@@UBEIXZ ; 66529
??0?$already_AddRefed@VnsIAtom@@@@QAE@PAVnsIAtom@@@Z ; 65220
?Release@nsXULTreeElement@@WM@AGKXZ ; 62950
?getter_AddRefs@@YA?BU?$already_AddRefed@VnsIAtom@@@@PAVnsIAtom@@@Z ; 62092
?GetForwardArcs@InMemoryDataSource@@QAEPAVAssertion@@PAVnsIRDFResource@@@Z ; 61720
?GetIID@?$nsCOMTypeInfo@VnsIDOMDocumentEvent@@@@SAABUnsID@@XZ ; 61317
?GetIID@nsIDOMDocumentEvent@@SAABUnsID@@XZ ; 61317
?GetIID@?$nsCOMTypeInfo@VnsIDOMDocumentView@@@@SAABUnsID@@XZ ; 61317
?GetIID@nsIDOMDocumentView@@SAABUnsID@@XZ ; 61317
?QueryInterface@nsRDFDOMNodeList@@UAGIABUnsID@@PAPAX@Z ; 61260
??EConstIterator@nsAssignmentSet@@QAEAAV01@XZ ; 59252
??4?$nsCOMPtr@VnsIAtom@@@@QAEAAV0@ABU?$already_AddRefed@VnsIAtom@@@@@Z ; 55775
?AddRef@Assertion@@QAEXXZ ; 54636
?get@?$nsCOMPtr@VnsISupportsArray@@@@QBEPAV?$nsDerivedSafe@VnsISupportsArray@@@@XZ ; 54349
?Release@Assertion@@QAEXXZ ; 53000
??0nsIDOMNodeList@@QAE@XZ ; 52424
??0nsIRDFNodeList@@QAE@XZ ; 52424
?Create@nsRDFDOMNodeList@@SAIPAPAV1@@Z ; 52424
??0nsRDFDOMNodeList@@AAE@XZ ; 52424
?Init@nsRDFDOMNodeList@@AAEIXZ ; 52424
??1nsRDFDOMNodeList@@UAE@XZ ; 52418
??_EnsRDFDOMNodeList@@UAEPAXI@Z ; 52418
?GetLength@nsRDFDOMNodeList@@UAGIPAI@Z ; 52068
?GetIID@?$nsCOMTypeInfo@VnsIScriptObjectOwner@@@@SAABUnsID@@XZ ; 50812
?GetIID@nsIScriptObjectOwner@@SAABUnsID@@XZ ; 50812
?NormalizeAttributeString@nsXULElement@@UAGIABV?$basic_nsAReadableString@G@@AAPAVnsINodeInfo@@@Z ; 50488
?GetIID@nsIRDFResource@@SAABUnsID@@XZ ; 50069
?GetIID@?$nsCOMTypeInfo@VnsIRDFResource@@@@SAABUnsID@@XZ ; 50069
?AppendNode@nsRDFDOMNodeList@@UAGIPAVnsIDOMNode@@@Z ; 48612
??C?$nsCOMPtr@VnsIDOMNodeList@@@@QBEPAV?$nsDerivedSafe@VnsIDOMNodeList@@@@XZ ; 48546
?GetIID@nsIDOMDocumentXBL@@SAABUnsID@@XZ ; 47645
?GetIID@?$nsCOMTypeInfo@VnsIDOMDocumentXBL@@@@SAABUnsID@@XZ ; 47645
?GetIID@?$nsCOMTypeInfo@VnsIJSScriptObject@@@@SAABUnsID@@XZ ; 47143
?GetIID@nsIJSScriptObject@@SAABUnsID@@XZ ; 47143
?assign_assuming_AddRef@?$nsCOMPtr@VnsIEventListenerManager@@@@AAEXPAVnsIEventListenerManager@@@Z ; 46638
?GetMappedAttributeImpact@nsXULElement@@UBGIPBVnsIAtom@@AAH@Z ; 46424
?get@?$nsCOMPtr@VnsITimer@@@@QBEPAV?$nsDerivedSafe@VnsITimer@@@@XZ ; 45893
?Assert_NoQueryNeeded@?$nsCOMPtr@VnsIDOMNodeList@@@@QAEXXZ ; 45790
??0?$nsCOMPtr@VnsIDOMNodeList@@@@QAE@XZ ; 45790
?assign_from_helper@?$nsCOMPtr@VnsIDOMNodeList@@@@AAEXABVnsCOMPtr_helper@@ABUnsID@@@Z ; 45790
??0?$nsCOMPtr@VnsIDOMNodeList@@@@QAE@ABVnsQueryInterface@@@Z ; 45790
?StartAssignment@?$nsCOMPtr@VnsIDOMNodeList@@@@QAEPAPAVnsIDOMNodeList@@XZ ; 45769
??1?$nsGetterAddRefs@VnsIDOMNodeList@@@@QAE@XZ ; 45769
??B?$nsGetterAddRefs@VnsIDOMNodeList@@@@QAEPAPAVnsIDOMNodeList@@XZ ; 45769
??0?$nsGetterAddRefs@VnsIDOMNodeList@@@@QAE@AAV?$nsCOMPtr@VnsIDOMNodeList@@@@@Z ; 45769
?getter_AddRefs@@YA?AV?$nsGetterAddRefs@VnsIDOMNodeList@@@@AAV?$nsCOMPtr@VnsIDOMNodeList@@@@@Z ; 45769
?AttributeChanged@nsXULDocument@@UAGIPAVnsIContent@@HPAVnsIAtom@@H@Z ; 45259
??8?$basic_nsAReadableString@G@@QBEHABV0@@Z ; 44684
??0ConstIterator@MatchSet@@QAE@ABV01@@Z ; 44207
??C?$nsCOMPtr@VnsINodeInfoManager@@@@QBEPAV?$nsDerivedSafe@VnsINodeInfoManager@@@@XZ ; 44148
?get@?$nsCOMPtr@VnsIDOMEventTarget@@@@QBEPAV?$nsDerivedSafe@VnsIDOMEventTarget@@@@XZ ; 43643
?HandleDOMEvent@nsXULDocument@@UAGIPAVnsIPresContext@@PAUnsEvent@@PAPAVnsIDOMEvent@@IPAW4nsEventStatus@@@Z ; 42437
?SetAttribute@nsXULElement@@UAGIABV?$basic_nsAReadableString@G@@0@Z ; 42333
?get@?$nsCOMPtr@VnsIRDFResource@@@@QBEPAV?$nsDerivedSafe@VnsIRDFResource@@@@XZ ; 41364
??C?$nsCOMPtr@VnsISupportsArray@@@@QBEPAV?$nsDerivedSafe@VnsISupportsArray@@@@XZ ; 39218
??0nsIDOMNode@@QAE@XZ ; 37416
?Assert_NoQueryNeeded@?$nsCOMPtr@VnsIEventListenerManager@@@@QAEXXZ ; 35355
??B?$nsCOMPtr@VnsINodeInfoManager@@@@QBEPAV?$nsDerivedSafe@VnsINodeInfoManager@@@@XZ ; 34985
?get@?$nsCOMPtr@VnsISimpleEnumerator@@@@QBEPAV?$nsDerivedSafe@VnsISimpleEnumerator@@@@XZ ; 34850
?GetIID@?$nsCOMTypeInfo@VnsINodeInfoManager@@@@SAABUnsID@@XZ ; 34529
?GetIID@nsINodeInfoManager@@SAABUnsID@@XZ ; 34529
??1?$nsGetterAddRefs@VnsINodeInfoManager@@@@QAE@XZ ; 34517
?getter_AddRefs@@YA?AV?$nsGetterAddRefs@VnsINodeInfoManager@@@@AAV?$nsCOMPtr@VnsINodeInfoManager@@@@@Z ; 34517
??0?$nsCOMPtr@VnsINodeInfoManager@@@@QAE@XZ ; 34517
?StartAssignment@?$nsCOMPtr@VnsINodeInfoManager@@@@QAEPAPAVnsINodeInfoManager@@XZ ; 34517
??0?$nsCOMPtr@VnsINodeInfoManager@@@@QAE@ABVnsQueryInterface@@@Z ; 34517
?assign_from_helper@?$nsCOMPtr@VnsINodeInfoManager@@@@AAEXABVnsCOMPtr_helper@@ABUnsID@@@Z ; 34517
?Assert_NoQueryNeeded@?$nsCOMPtr@VnsINodeInfoManager@@@@QAEXXZ ; 34517
??0?$nsGetterAddRefs@VnsINodeInfoManager@@@@QAE@AAV?$nsCOMPtr@VnsINodeInfoManager@@@@@Z ; 34517
??D?$nsGetterAddRefs@VnsINodeInfoManager@@@@QAEAAPAVnsINodeInfoManager@@XZ ; 34505
?GetReadableFragment@?$nsPromiseSubstring@G@@MBEPBGAAU?$nsReadableFragment@G@@W4nsFragmentRequest@@I@Z ; 34482
?AddRef@LiteralImpl@@UAGKXZ ; 33847
??0nsXULAttributeValue@@QAE@XZ ; 33248
?Release@LiteralImpl@@UAGKXZ ; 33073
?SetDocument@nsXULElement@@UAGIPAVnsIDocument@@HH@Z ; 33023
?Resolve@nsXULElement@@UAEHPAUJSContext@@PAUJSObject@@JPAH@Z ; 32649
??B?$nsCOMPtr@VnsIDOMEventTarget@@@@QBEPAV?$nsDerivedSafe@VnsIDOMEventTarget@@@@XZ ; 31729
?get@?$nsCOMPtr@VnsIPrivateDOMEvent@@@@QBEPAV?$nsDerivedSafe@VnsIPrivateDOMEvent@@@@XZ ; 31535
?get@?$nsCOMPtr@VnsIController@@@@QBEPAV?$nsDerivedSafe@VnsIController@@@@XZ ; 31268
?HasMoreElements@InMemoryAssertionEnumeratorImpl@@UAGIPAH@Z ; 31160
?GetChildNodes@nsXULElement@@UAGIPAPAVnsIDOMNodeList@@@Z ; 30835
??0?$nsCOMPtr@VnsIDocument@@@@QAE@PAVnsIDocument@@@Z ; 30803
?HandleChromeEvent@nsXULElement@@UAGIPAVnsIPresContext@@PAUnsEvent@@PAPAVnsIDOMEvent@@IPAW4nsEventStatus@@@Z ; 30803
?eq@?$nsCharTraits@G@@SAHABG0@Z ; 30190
?assign_assuming_AddRef@?$nsCOMPtr@VnsIDOMEventTarget@@@@AAEXPAVnsIDOMEventTarget@@@Z ; 30144
?IsEmpty@?$basic_nsAReadableString@G@@QBEHXZ ; 29721
?SerializeAssertion@RDFXMLDataSourceImpl@@QAEIPAVnsIOutputStream@@PAVnsIRDFResource@@1PAVnsIRDFNode@@@Z ; 29317
?HasAssertion@InMemoryDataSource@@UAGIPAVnsIRDFResource@@0PAVnsIRDFNode@@HPAH@Z ; 29056
?assign@?$nsCharTraits@G@@SAXAAGABG@Z ; 28886
?QueryInterface@nsRDFResource@@UAGIABUnsID@@PAPAX@Z ; 28516
??C?$nsCOMPtr@VnsISimpleEnumerator@@@@QBEPAV?$nsDerivedSafe@VnsISimpleEnumerator@@@@XZ ; 28088
?Equals@?$basic_nsAReadableString@G@@QBEHABV1@@Z ; 28003
?ns_if_addref@@YAKPAVnsINodeInfo@@@Z ; 27886
?SetAttribute@nsXULElement@@UAGIHPAVnsIAtom@@ABV?$basic_nsAReadableString@G@@H@Z ; 27570
?GetIID@?$nsCOMTypeInfo@VnsIDOMEventTarget@@@@SAABUnsID@@XZ ; 27508
?GetIID@nsIDOMEventTarget@@SAABUnsID@@XZ ; 27508
??B?$nsCOMPtr@VnsIRDFResource@@@@QBEPAV?$nsDerivedSafe@VnsIRDFResource@@@@XZ ; 27390
?GetProperty@nsXULElement@@UAEHPAUJSContext@@PAUJSObject@@JPAJ@Z ; 27363
?Clear@Value@@IAEXXZ ; 27243
?get@?$nsCOMPtr@VnsIDOMMouseEvent@@@@QBEPAV?$nsDerivedSafe@VnsIDOMMouseEvent@@@@XZ ; 27070
?AddRef@nsXULAttribute@@UAGKXZ ; 26822
??1?$nsCOMPtr@VnsIEventListenerManager@@@@QAE@XZ ; 26609
??0nsXULAttribute@@IAE@PAVnsIContent@@PAVnsINodeInfo@@ABV?$basic_nsAReadableString@G@@@Z ; 26444
??2nsXULAttribute@@KAPAXI@Z ; 26444
?AppendElement@nsXULAttributes@@QAEXPAVnsXULAttribute@@@Z ; 26444
?Create@nsXULAttribute@@SAIPAVnsIContent@@PAVnsINodeInfo@@ABV?$basic_nsAReadableString@G@@PAPAV1@@Z ; 26444
??0nsIDOMAttr@@QAE@XZ ; 26444
?EndReading@?$basic_nsAReadableString@G@@QBEAAV?$nsReadingIterator@G@@AAV2@@Z ; 26402
?GetIID@nsISupportsWeakReference@@SAABUnsID@@XZ ; 26376
?GetIID@?$nsCOMTypeInfo@VnsISupportsWeakReference@@@@SAABUnsID@@XZ ; 26376
??1?$nsCOMPtr@VnsIRDFResource@@@@QAE@XZ ; 25951
?GetAttributeNameAt@nsXULElement@@UBGIHAAHAAPAVnsIAtom@@1@Z ; 25921
?get@?$nsCOMPtr@VnsIXULContent@@@@QBEPAV?$nsDerivedSafe@VnsIXULContent@@@@XZ ; 24918
?GetIID@?$nsCOMTypeInfo@VnsIDOMXULCommandDispatcher@@@@SAABUnsID@@XZ ; 24792
?GetIID@nsIDOMXULCommandDispatcher@@SAABUnsID@@XZ ; 24792
?QueryInterface@nsXULCommandDispatcher@@UAGIABUnsID@@PAPAX@Z ; 24739
??1?$nsCOMPtr@VnsIXULDocument@@@@QAE@XZ ; 24700
?assign_assuming_AddRef@?$nsCOMPtr@VnsINameSpace@@@@AAEXPAVnsINameSpace@@@Z ; 24574
?Length@?$nsPromiseSubstring@G@@UBEIXZ ; 24359
??B?$nsCOMPtr@VnsIDOMNodeList@@@@QBEPAV?$nsDerivedSafe@VnsIDOMNodeList@@@@XZ ; 24227
?GetElementsByTagName@nsXULElement@@KAIPAVnsIDOMNode@@ABV?$basic_nsAReadableString@G@@PAVnsRDFDOMNodeList@@@Z ; 24181
??4?$nsCOMPtr@VnsIEventListenerManager@@@@QAEAAV0@PAVnsIEventListenerManager@@@Z ; 24072
??0?$nsCOMPtr@VnsIXULDocument@@@@QAE@XZ ; 24072
?assign_with_AddRef@?$nsCOMPtr@VnsIEventListenerManager@@@@AAEXPAVnsISupports@@@Z ; 24072
?ObservingEverything@XULBroadcastListener@@QAEHXZ ; 23789
?ns_if_addref@@YAKPAVnsISupports@@@Z ; 23425
?GetIID@nsIController@@SAABUnsID@@XZ ; 23273
?GetIID@?$nsCOMTypeInfo@VnsIController@@@@SAABUnsID@@XZ ; 23273
?ObservingAttribute@XULBroadcastListener@@QAEHABV?$basic_nsAReadableString@G@@@Z ; 22665
?Release@nsRDFDOMNodeList@@W7AGKXZ ; 22361
?GetIID@?$nsCOMTypeInfo@VnsIDOMXULTreeElement@@@@SAABUnsID@@XZ ; 22297
?GetIID@nsIDOMXULTreeElement@@SAABUnsID@@XZ ; 22297
?GetIID@?$nsCOMTypeInfo@VnsIXULTreeContent@@@@SAABUnsID@@XZ ; 22126
?GetIID@nsIXULTreeContent@@SAABUnsID@@XZ ; 22126
?get@?$nsCOMPtr@VnsIDOMElement@@@@QBEPAV?$nsDerivedSafe@VnsIDOMElement@@@@XZ ; 22078
?SetParent@nsXULElement@@UAGIPAVnsIContent@@@Z ; 21866
?HasAssertion@RDFXMLDataSourceImpl@@UAGIPAVnsIRDFResource@@0PAVnsIRDFNode@@HPAH@Z ; 21843
?Hash@nsElementMap@@KAIPBX@Z ; 21788
?get@?$nsCOMPtr@VnsIRDFDataSource@@@@QBEPAV?$nsDerivedSafe@VnsIRDFDataSource@@@@XZ ; 21767
??1?$nsCOMPtr@VnsIDOMElement@@@@QAE@XZ ; 21701
?GetElementsByTagName@nsXULElement@@UAGIABV?$basic_nsAReadableString@G@@PAPAVnsIDOMNodeList@@@Z ; 21557
?ExecuteOnBroadcastHandler@nsXULElement@@IAEIPAVnsIDOMElement@@ABV?$basic_nsAReadableString@G@@@Z ; 21542
?EnsureSlots@nsXULElement@@IAEIXZ ; 21346
??0ConstIterator@MatchSet@@QAE@PAUList@1@@Z ; 21133
?GetIID@nsIXBLBinding@@SAABUnsID@@XZ ; 21051
?assign_from_helper@?$nsCOMPtr@VnsIXBLBinding@@@@AAEXABVnsCOMPtr_helper@@ABUnsID@@@Z ; 21051
?GetIID@?$nsCOMTypeInfo@VnsIXBLBinding@@@@SAABUnsID@@XZ ; 21051
??0?$nsCOMPtr@VnsIXBLBinding@@@@QAE@ABVnsQueryInterface@@@Z ; 21051
?GetIID@?$nsCOMTypeInfo@VnsIChromeEventHandler@@@@SAABUnsID@@XZ ; 21005
?GetIID@nsIChromeEventHandler@@SAABUnsID@@XZ ; 21005
??1?$nsCOMPtr@VnsINameSpace@@@@QAE@XZ ; 20922
?assign_assuming_AddRef@?$nsCOMPtr@VnsIRDFResource@@@@AAEXPAVnsIRDFResource@@@Z ; 20857
??C?$nsCOMPtr@VnsIXBLBinding@@@@QBEPAV?$nsDerivedSafe@VnsIXBLBinding@@@@XZ ; 20588
??B?$nsCOMPtr@VnsITimer@@@@QBEPAV?$nsDerivedSafe@VnsITimer@@@@XZ ; 20438
??1?$basic_nsPromiseFlatString@G@@UAE@XZ ; 20178
??Y?$nsReadingIterator@G@@QAEAAV0@H@Z ; 20178
?get@?$basic_nsPromiseFlatString@G@@QBEPBGXZ ; 20178
??0?$basic_nsPromiseFlatString@G@@QAE@ABV?$basic_nsAReadableString@G@@@Z ; 20178
??0ConstIterator@InstantiationSet@@QAE@ABV01@@Z ; 19926
?QueryInterface@LiteralImpl@@UAGIABUnsID@@PAPAX@Z ; 19836
??0Iterator@MatchSet@@QAE@ABV01@@Z ; 18968
??0?$nsCOMPtr@VnsIDOMElement@@@@QAE@XZ ; 18422
?assign_assuming_AddRef@?$nsCOMPtr@VnsITimer@@@@AAEXPAVnsITimer@@@Z ; 18270
?GetIID@nsIDOMElement@@SAABUnsID@@XZ ; 18261
?GetIID@?$nsCOMTypeInfo@VnsIDOMElement@@@@SAABUnsID@@XZ ; 18261
?assign_from_helper@?$nsCOMPtr@VnsIDOMEventTarget@@@@AAEXABVnsCOMPtr_helper@@ABUnsID@@@Z ; 18230
??0?$nsCOMPtr@VnsIDOMEventTarget@@@@QAE@ABVnsQueryInterface@@@Z ; 18230
?Release@nsXULAttribute@@UAGKXZ ; 18163
??C?$nsCOMPtr@VnsIPrivateDOMEvent@@@@QBEPAV?$nsDerivedSafe@VnsIPrivateDOMEvent@@@@XZ ; 18139
?GetTarget@InMemoryDataSource@@UAGIPAVnsIRDFResource@@0HPAPAVnsIRDFNode@@@Z ; 18133
??0?$nsCOMPtr@VnsIEventListenerManager@@@@QAE@XZ ; 18108
?AddRef@XULPopupListenerImpl@@UAGKXZ ; 17939
?GetIID@nsIXULPopupListener@@SAABUnsID@@XZ ; 17939
?GetIID@?$nsCOMTypeInfo@VnsIXULPopupListener@@@@SAABUnsID@@XZ ; 17939
??1?$nsCOMPtr@VnsIController@@@@QAE@XZ ; 17850
?assign_assuming_AddRef@?$nsCOMPtr@VnsIController@@@@AAEXPAVnsIController@@@Z ; 17850
?Release@XULPopupListenerImpl@@UAGKXZ ; 17815
??1nsXULAttribute@@MAE@XZ ; 17785
??1nsXULAttributeValue@@QAE@XZ ; 17785
??3nsXULAttribute@@KAXPAXI@Z ; 17785
??_GnsXULAttribute@@MAEPAXI@Z ; 17785
??C?$nsCOMPtr@VnsIDOMMouseEvent@@@@QBEPAV?$nsDerivedSafe@VnsIDOMMouseEvent@@@@XZ ; 17776
?QueryInterface@XULPopupListenerImpl@@UAGIABUnsID@@PAPAX@Z ; 17498
?get@?$nsCOMPtr@VnsIRDFNode@@@@QBEPAV?$nsDerivedSafe@VnsIRDFNode@@@@XZ ; 17283
??C?$nsCOMPtr@VnsITimer@@@@QBEPAV?$nsDerivedSafe@VnsITimer@@@@XZ ; 16970
?GetIID@?$nsCOMTypeInfo@VnsITimer@@@@SAABUnsID@@XZ ; 16970
?assign_from_helper@?$nsCOMPtr@VnsITimer@@@@AAEXABVnsCOMPtr_helper@@ABUnsID@@@Z ; 16970
?GetIID@nsITimer@@SAABUnsID@@XZ ; 16970
?get@?$nsCOMPtr@VnsISupports@@@@QBEPAV?$nsDerivedSafe@VnsISupports@@@@XZ ; 16869
??0nsCOMPtr_base@@QAE@PAVnsISupports@@@Z ; 16830
??1?$nsCOMPtr@VnsISupports@@@@QAE@XZ ; 16830
??1Value@@QAE@XZ ; 16707
?get@?$nsCOMPtr@VnsINameSpace@@@@QBEPAV?$nsDerivedSafe@VnsINameSpace@@@@XZ ; 16627
?GetIID@?$nsCOMTypeInfo@VnsIDOMMouseListener@@@@SAABUnsID@@XZ ; 16622
?GetIID@nsIDOMMouseListener@@SAABUnsID@@XZ ; 16622
??0?$nsCOMPtr@VnsISupports@@@@QAE@XZ ; 16610
?getter_AddRefs@@YA?AV?$nsGetterAddRefs@VnsISupports@@@@AAV?$nsCOMPtr@VnsISupports@@@@@Z ; 16610
?StartAssignment@?$nsCOMPtr@VnsISupports@@@@QAEPAPAVnsISupports@@XZ ; 16610
?assign_assuming_AddRef@nsCOMPtr_base@@IAEXPAVnsISupports@@@Z ; 16610
??0?$nsGetterAddRefs@VnsISupports@@@@QAE@AAV?$nsCOMPtr@VnsISupports@@@@@Z ; 16610
??B?$nsGetterAddRefs@VnsISupports@@@@QAEPAPAVnsISupports@@XZ ; 16609
?AddRef@nsXULControllers@@UAGKXZ ; 16326
?Release@nsXULControllers@@UAGKXZ ; 16300
??0?$nsCOMPtr@VnsIRDFResource@@@@QAE@XZ ; 16259
??0Iterator@InstantiationSet@@QAE@ABV01@@Z ; 16098
??C?$nsCOMPtr@VnsIRDFDataSource@@@@QBEPAV?$nsDerivedSafe@VnsIRDFDataSource@@@@XZ ; 15916
?get@?$nsCOMPtr@VnsIScriptContext@@@@QBEPAV?$nsDerivedSafe@VnsIScriptContext@@@@XZ ; 15889
??0?$nsCOMPtr@VnsINameSpace@@@@QAE@XZ ; 15839
?get@?$nsCOMPtr@VnsIDOMNSDocument@@@@QBEPAV?$nsDerivedSafe@VnsIDOMNSDocument@@@@XZ ; 15411
??C?$nsCOMPtr@VnsIDOMNSDocument@@@@QBEPAV?$nsDerivedSafe@VnsIDOMNSDocument@@@@XZ ; 15411
??0?$nsCOMPtr@VnsIDOMNSDocument@@@@QAE@ABVnsQueryInterface@@@Z ; 15411
?assign_assuming_AddRef@?$nsCOMPtr@VnsIDOMNSDocument@@@@AAEXPAVnsIDOMNSDocument@@@Z ; 15411
??1?$nsCOMPtr@VnsIDOMNSDocument@@@@QAE@XZ ; 15411
?assign_from_helper@?$nsCOMPtr@VnsIDOMNSDocument@@@@AAEXABVnsCOMPtr_helper@@ABUnsID@@@Z ; 15411
?AddRef@nsXULCommandDispatcher@@UAGKXZ ; 15273
?Release@nsXULCommandDispatcher@@UAGKXZ ; 15268
??B?$nsCOMPtr@VnsIDOMElement@@@@QBEPAV?$nsDerivedSafe@VnsIDOMElement@@@@XZ ; 15199
?First@nsAssignmentSet@@QBE?AVConstIterator@1@XZ ; 14997
?GetIID@nsIRDFNode@@SAABUnsID@@XZ ; 14955
?GetIID@?$nsCOMTypeInfo@VnsIRDFNode@@@@SAABUnsID@@XZ ; 14955
?Resolve@nsXULDocument@@UAEHPAUJSContext@@PAUJSObject@@JPAH@Z ; 14855
?GetScriptObject@nsXULDocument@@UAGIPAVnsIScriptContext@@PAPAX@Z ; 14831
??B?$nsCOMPtr@VnsISupports@@@@QBEPAV?$nsDerivedSafe@VnsISupports@@@@XZ ; 14815
?assign_with_AddRef@?$nsCOMPtr@VnsINameSpace@@@@AAEXPAVnsISupports@@@Z ; 14758
?Depth@ContextStack@nsXULDocument@@QAEHXZ ; 14457
?GetShellAt@nsXULDocument@@UAEPAVnsIPresShell@@H@Z ; 14255
?ns_if_addref@@YAKPAVnsIPresShell@@@Z ; 14255
??1?$nsCOMPtr@VnsIScriptContext@@@@QAE@XZ ; 13853
?assign_assuming_AddRef@?$nsCOMPtr@VnsIDOMElement@@@@AAEXPAVnsIDOMElement@@@Z ; 13746
?Compare@nsElementMap@@KAHPBX0@Z ; 13690
?assign_assuming_AddRef@?$nsCOMPtr@VnsIScriptContext@@@@AAEXPAVnsIScriptContext@@@Z ; 13664
??B?$nsCOMPtr@VnsIController@@@@QBEPAV?$nsDerivedSafe@VnsIController@@@@XZ ; 13418
?GetIID@nsIPrivateDOMEvent@@SAABUnsID@@XZ ; 13401
?GetIID@?$nsCOMTypeInfo@VnsIPrivateDOMEvent@@@@SAABUnsID@@XZ ; 13401
??1?$nsCOMPtr@VnsIPrivateDOMEvent@@@@QAE@XZ ; 13396
??B?$nsCOMPtr@VnsIPrivateDOMEvent@@@@QBEPAV?$nsDerivedSafe@VnsIPrivateDOMEvent@@@@XZ ; 13396
?assign_assuming_AddRef@?$nsCOMPtr@VnsIPrivateDOMEvent@@@@AAEXPAVnsIPrivateDOMEvent@@@Z ; 13396
?assign_from_helper@?$nsCOMPtr@VnsIPrivateDOMEvent@@@@AAEXABVnsCOMPtr_helper@@ABUnsID@@@Z ; 13396
??0?$nsCOMPtr@VnsIPrivateDOMEvent@@@@QAE@ABVnsQueryInterface@@@Z ; 13396
?GetIID@nsISimpleEnumerator@@SAABUnsID@@XZ ; 13336
?GetIID@?$nsCOMTypeInfo@VnsISimpleEnumerator@@@@SAABUnsID@@XZ ; 13336
??1?$nsCOMPtr@VnsISimpleEnumerator@@@@QAE@XZ ; 13290
?assign_assuming_AddRef@?$nsCOMPtr@VnsISimpleEnumerator@@@@AAEXPAVnsISimpleEnumerator@@@Z ; 13290
??B?$nsCOMPtr@VnsISupportsArray@@@@QBEPAV?$nsDerivedSafe@VnsISupportsArray@@@@XZ ; 13252
??C?$nsCOMPtr@VnsIXULContent@@@@QBEPAV?$nsDerivedSafe@VnsIXULContent@@@@XZ ; 12881
?RemoveElementsFromMapByContent@nsXULDocument@@KAHPBGPAVnsIContent@@PAX@Z ; 12791
?AddRef@nsXULTemplateBuilder@@UAGKXZ ; 12757
?Release@nsXULTemplateBuilder@@UAGKXZ ; 12664
?EnumerateImpl@nsElementMap@@CAHPAUPLHashEntry@@HPAX@Z ; 12452
?get@?$nsCOMPtr@VnsIRDFLiteral@@@@QBEPAV?$nsDerivedSafe@VnsIRDFLiteral@@@@XZ ; 12386
??0Value@@QAE@XZ ; 12207
?assign_from_helper@?$nsCOMPtr@VnsIXULContent@@@@AAEXABVnsCOMPtr_helper@@ABUnsID@@@Z ; 12037
??1?$nsCOMPtr@VnsIXULContent@@@@QAE@XZ ; 12037
??B?$nsCOMPtr@VnsIXULContent@@@@QBEPAV?$nsDerivedSafe@VnsIXULContent@@@@XZ ; 12037
?assign_assuming_AddRef@?$nsCOMPtr@VnsIXULContent@@@@AAEXPAVnsIXULContent@@@Z ; 12037
??0?$nsCOMPtr@VnsIXULContent@@@@QAE@ABVnsQueryInterface@@@Z ; 12037
?GetNext@InMemoryAssertionEnumeratorImpl@@UAGIPAPAVnsISupports@@@Z ; 11991
??0?$nsGetterAddRefs@VnsIDOMEventTarget@@@@QAE@AAV?$nsCOMPtr@VnsIDOMEventTarget@@@@@Z ; 11914
?getter_AddRefs@@YA?AV?$nsGetterAddRefs@VnsIDOMEventTarget@@@@AAV?$nsCOMPtr@VnsIDOMEventTarget@@@@@Z ; 11914
?Assert_NoQueryNeeded@?$nsCOMPtr@VnsIDOMEventTarget@@@@QAEXXZ ; 11914
?StartAssignment@?$nsCOMPtr@VnsIDOMEventTarget@@@@QAEPAPAVnsIDOMEventTarget@@XZ ; 11914
??B?$nsGetterAddRefs@VnsIDOMEventTarget@@@@QAEPAPAVnsIDOMEventTarget@@XZ ; 11914
??1?$nsGetterAddRefs@VnsIDOMEventTarget@@@@QAE@XZ ; 11914
?GetNumberOfShells@nsXULDocument@@UAEHXZ ; 11865
?GetCount@VariableSet@@QBEHXZ ; 11808
?GetScriptObject@nsXULElement@@UAGIPAVnsIScriptContext@@PAPAX@Z ; 11744
?IsElementInWidget@nsXULTemplateBuilder@@QAEHPAVnsIContent@@@Z ; 11694
?Release@InMemoryAssertionEnumeratorImpl@@UAGKXZ ; 11470
?AddRef@InMemoryAssertionEnumeratorImpl@@UAGKXZ ; 11470
?SetBoxObjectFor@nsXULDocument@@UAGIPAVnsIDOMElement@@PAVnsIBoxObject@@@Z ; 11440
?assign_from_helper@?$nsCOMPtr@VnsIRDFResource@@@@AAEXABVnsCOMPtr_helper@@ABUnsID@@@Z ; 11430
??0?$nsCOMPtr@VnsIRDFResource@@@@QAE@ABVnsQueryInterface@@@Z ; 11424
?GetIID@nsIEventListenerManager@@SAABUnsID@@XZ ; 11307
?GetIID@?$nsCOMTypeInfo@VnsIEventListenerManager@@@@SAABUnsID@@XZ ; 11307
??0?$nsGetterAddRefs@VnsIEventListenerManager@@@@QAE@AAV?$nsCOMPtr@VnsIEventListenerManager@@@@@Z ; 11283
??0?$nsCOMPtr@VnsIEventListenerManager@@@@QAE@ABVnsQueryInterface@@@Z ; 11283
??1?$nsGetterAddRefs@VnsIEventListenerManager@@@@QAE@XZ ; 11283
?StartAssignment@?$nsCOMPtr@VnsIEventListenerManager@@@@QAEPAPAVnsIEventListenerManager@@XZ ; 11283
?getter_AddRefs@@YA?AV?$nsGetterAddRefs@VnsIEventListenerManager@@@@AAV?$nsCOMPtr@VnsIEventListenerManager@@@@@Z ; 11283
?assign_from_helper@?$nsCOMPtr@VnsIEventListenerManager@@@@AAEXABVnsCOMPtr_helper@@ABUnsID@@@Z ; 11283
?SerializeAssertion@RDFXMLDataSourceImpl@@QAEIPAVnsIOutputStream@@PAVnsIRDFResource@@1PAVnsIRDFNode@@@Z ; 11212
?GetIID@?$nsCOMTypeInfo@VnsIHTMLContentContainer@@@@SAABUnsID@@XZ ; 11183
?GetIID@nsIHTMLContentContainer@@SAABUnsID@@XZ ; 11183
??1?$nsCOMPtr@VnsIRDFNode@@@@QAE@XZ ; 11115
??0nsIJSScriptObject@@QAE@XZ ; 10966
??0nsIDOMEventTarget@@QAE@XZ ; 10966
??0nsIDOMEventReceiver@@QAE@XZ ; 10966
??0nsIDOMXULElement@@QAE@XZ ; 10960
??0nsIDOMElement@@QAE@XZ ; 10960
??0nsIContent@@QAE@XZ ; 10954
??0nsIScriptEventHandlerOwner@@QAE@XZ ; 10954
??0nsIStyledContent@@QAE@XZ ; 10954
??0nsIXULContent@@QAE@XZ ; 10954
?Init@nsXULElement@@IAEIXZ ; 10954
??0nsIChromeEventHandler@@QAE@XZ ; 10954
??0nsIXMLContent@@QAE@XZ ; 10954
??0nsXULElement@@IAE@XZ ; 10954
?CreateContents@nsXULTemplateBuilder@@UAGIPAVnsIContent@@@Z ; 10944
?assign_assuming_AddRef@?$nsCOMPtr@VnsIRDFNode@@@@AAEXPAVnsIRDFNode@@@Z ; 10675
??0nsISimpleEnumerator@@QAE@XZ ; 10659
?GetResource@RDFServiceImpl@@UAGIPBDPAPAVnsIRDFResource@@@Z ; 10580
?AddRef@Internal@InMemoryDataSource@@UAGKXZ ; 10501
?Release@Internal@InMemoryDataSource@@UAGKXZ ; 10458
?GetElementById@nsXULDocument@@UAGIABV?$basic_nsAReadableString@G@@PAPAVnsIDOMElement@@@Z ; 10426
?FindFirst@nsElementMap@@QAEIABV?$basic_nsAReadableString@G@@PAPAVnsIContent@@@Z ; 10426
?AddRef@InMemoryDataSource@@UAGKXZ ; 10425
?Release@InMemoryDataSource@@UAGKXZ ; 10382
?assign_with_AddRef@?$nsCOMPtr@VnsINodeInfo@@@@AAEXPAVnsISupports@@@Z ; 10313
?GetValueConst@nsRDFResource@@UAGIPAPBD@Z ; 10311
?GetIID@?$nsCOMTypeInfo@VnsIDOMMouseMotionListener@@@@SAABUnsID@@XZ ; 9998
?GetIID@nsIDOMMouseMotionListener@@SAABUnsID@@XZ ; 9998
?Assert_NoQueryNeeded@?$nsCOMPtr@VnsITimer@@@@QAEXXZ ; 9941
?CheckBroadcasterHookup@nsXULDocument@@KAIPAV1@PAVnsIContent@@PAH2@Z ; 9896
?dont_QueryInterface@@YAPAVnsINameSpace@@PAV1@@Z ; 9816
?GetIID@?$nsCOMTypeInfo@VnsINameSpace@@@@SAABUnsID@@XZ ; 9816
?Assert_NoQueryNeeded@?$nsCOMPtr@VnsINameSpace@@@@QAEXXZ ; 9816
??0?$nsCOMPtr@VnsINameSpace@@@@QAE@ABVnsQueryInterface@@@Z ; 9816
?GetIID@nsINameSpace@@SAABUnsID@@XZ ; 9816
?assign_from_helper@?$nsCOMPtr@VnsINameSpace@@@@AAEXABVnsCOMPtr_helper@@ABUnsID@@@Z ; 9816
??4?$nsCOMPtr@VnsINameSpace@@@@QAEAAV0@PAVnsINameSpace@@@Z ; 9816
?AddElementToMap@nsXULDocument@@IAEIPAVnsIContent@@@Z ; 9737
?AddSubtreeToDocument@nsXULDocument@@IAEIPAVnsIContent@@@Z ; 9706
?Assert_NoQueryNeeded@?$nsCOMPtr@VnsIRDFResource@@@@QAEXXZ ; 9571
?ns_if_addref@@YAKPAVnsIRDFResource@@@Z ; 9557
??9ConstIterator@MatchSet@@QBEHABV01@@Z ; 9526
??0?$nsCOMPtr@VnsIAtom@@@@QAE@ABU?$already_AddRefed@VnsIAtom@@@@@Z ; 9445
?HasMoreElements@InMemoryArcsEnumeratorImpl@@UAGIPAH@Z ; 9410
?GetIID@?$nsCOMTypeInfo@VnsIDOMEventReceiver@@@@SAABUnsID@@XZ ; 9383
?GetIID@nsIDOMEventReceiver@@SAABUnsID@@XZ ; 9383
??1?$nsCOMPtr@VnsITimer@@@@QAE@XZ ; 9343
??B?$nsCOMPtr@VnsIDOMMouseEvent@@@@QBEPAV?$nsDerivedSafe@VnsIDOMMouseEvent@@@@XZ ; 9294
?Last@MatchSet@@QBE?AVConstIterator@1@XZ ; 9216
?GetIID@nsIDOMEventCapturer@@SAABUnsID@@XZ ; 9118
?GetIID@?$nsCOMTypeInfo@VnsIDOMEventCapturer@@@@SAABUnsID@@XZ ; 9118
?GetIID@?$nsCOMTypeInfo@VnsIStreamLoadableDocument@@@@SAABUnsID@@XZ ; 9118
?GetIID@nsIStreamLoadableDocument@@SAABUnsID@@XZ ; 9118
?assign_from_helper@?$nsCOMPtr@VnsIDOMElement@@@@AAEXABVnsCOMPtr_helper@@ABUnsID@@@Z ; 9108
??4Value@@QAEAAV0@ABV0@@Z ; 9061
?GetIID@nsIStreamLoaderObserver@@SAABUnsID@@XZ ; 9047
?GetIID@?$nsCOMTypeInfo@VnsIStreamLoaderObserver@@@@SAABUnsID@@XZ ; 9047
?get@?$nsCOMPtr@VnsIURI@@@@QBEPAV?$nsDerivedSafe@VnsIURI@@@@XZ ; 8983
?assign_from_helper@?$nsCOMPtr@VnsIDOMMouseEvent@@@@AAEXABVnsCOMPtr_helper@@ABUnsID@@@Z ; 8956
?assign_assuming_AddRef@?$nsCOMPtr@VnsIDOMMouseEvent@@@@AAEXPAVnsIDOMMouseEvent@@@Z ; 8956
?GetIID@nsIDOMMouseEvent@@SAABUnsID@@XZ ; 8956
?GetIID@?$nsCOMTypeInfo@VnsIDOMMouseEvent@@@@SAABUnsID@@XZ ; 8956
??1?$nsCOMPtr@VnsIDOMMouseEvent@@@@QAE@XZ ; 8956
?GetListenerManager@nsXULElement@@UAGIPAPAVnsIEventListenerManager@@@Z ; 8936
??0?$nsCOMPtr@VnsIController@@@@QAE@ABVnsQueryInterface@@@Z ; 8925
?getter_AddRefs@@YA?AV?$nsGetterAddRefs@VnsIController@@@@AAV?$nsCOMPtr@VnsIController@@@@@Z ; 8925
??0?$nsGetterAddRefs@VnsIController@@@@QAE@AAV?$nsCOMPtr@VnsIController@@@@@Z ; 8925
??0?$nsCOMPtr@VnsIController@@@@QAE@XZ ; 8925
?StartAssignment@?$nsCOMPtr@VnsIController@@@@QAEPAPAVnsIController@@XZ ; 8925
??C?$nsCOMPtr@VnsIController@@@@QBEPAV?$nsDerivedSafe@VnsIController@@@@XZ ; 8925
?assign_from_helper@?$nsCOMPtr@VnsIController@@@@AAEXABVnsCOMPtr_helper@@ABUnsID@@@Z ; 8925
?Assert_NoQueryNeeded@?$nsCOMPtr@VnsIController@@@@QAEXXZ ; 8925
??1?$nsGetterAddRefs@VnsIController@@@@QAE@XZ ; 8925
??B?$nsGetterAddRefs@VnsIController@@@@QAEPAPAXXZ ; 8925
?AppendChildTo@nsXULElement@@UAGIPAVnsIContent@@H@Z ; 8885
?GetTarget@RDFXMLDataSourceImpl@@UAGIPAVnsIRDFResource@@0HPAPAVnsIRDFNode@@@Z ; 8870
?GetIID@nsIRDFNodeList@@SAABUnsID@@XZ ; 8804
?GetIID@?$nsCOMTypeInfo@VnsIRDFNodeList@@@@SAABUnsID@@XZ ; 8804
??4?$nsCOMPtr@VnsIDOMNode@@@@QAEAAV0@ABVnsQueryInterface@@@Z ; 8756
?AddCharacterData@XULContentSinkImpl@@UAGIABVnsIParserNode@@@Z ; 8653
?AddLeaf@XULContentSinkImpl@@UAGIABVnsIParserNode@@@Z ; 8653
??0?$nsCOMPtr@VnsIDOMMouseEvent@@@@QAE@ABVnsQueryInterface@@@Z ; 8618
?MouseMove@XULPopupListenerImpl@@UAEIPAVnsIDOMEvent@@@Z ; 8617
?GetIID@nsIRDFLiteral@@SAABUnsID@@XZ ; 8584
?GetIID@?$nsCOMTypeInfo@VnsIRDFLiteral@@@@SAABUnsID@@XZ ; 8584
?GetValue@LiteralImpl@@IBEPBGXZ ; 8538
?do_CreateInstance@@YA?BVnsCreateInstanceByContractID@@PBDPAI@Z ; 8533
??9@YAHABV?$nsCOMPtr@VnsIContent@@@@PAVNSCAP_Zero@@@Z ; 8529
?Item@nsRDFDOMNodeList@@UAGIIPAPAVnsIDOMNode@@@Z ; 8500
??4?$nsCOMPtr@VnsITimer@@@@QAEAAV0@ABVnsCOMPtr_helper@@@Z ; 8485
??0?$nsCOMPtr@VnsITimer@@@@QAE@ABVnsQueryInterface@@@Z ; 8485
??0nsISupportsKey@@QAE@PAVnsISupports@@@Z ; 8414
??1nsISupportsKey@@UAE@XZ ; 8410
?HashCode@nsISupportsKey@@UBEIXZ ; 8378
?AppendFromReadable@?$basic_nsAWritableString@G@@IAEXABV?$basic_nsAReadableString@G@@@Z ; 8293
?Append@?$basic_nsAWritableString@G@@QAEXABV?$basic_nsAReadableString@G@@@Z ; 8293
?GetIID@nsIControllers@@SAABUnsID@@XZ ; 8288
?GetIID@?$nsCOMTypeInfo@VnsIControllers@@@@SAABUnsID@@XZ ; 8288
?QueryInterface@nsXULControllers@@UAGIABUnsID@@PAPAX@Z ; 8244
?Truncate@?$basic_nsAWritableString@G@@QAEXI@Z ; 8203
?get@?$nsCOMPtr@VnsPIBoxObject@@@@QBEPAV?$nsDerivedSafe@VnsPIBoxObject@@@@XZ ; 8190
?get@?$nsCOMPtr@VnsIControllerCommand@@@@QBEPAV?$nsDerivedSafe@VnsIControllerCommand@@@@XZ ; 8184
??1nsXULElement@@MAE@XZ ; 8175
??_GnsXULElement@@MAEPAXI@Z ; 8175
?GetIID@nsPIBoxObject@@SAABUnsID@@XZ ; 8158
??1?$nsCOMPtr@VnsPIBoxObject@@@@QAE@XZ ; 8158
?GetIID@?$nsCOMTypeInfo@VnsPIBoxObject@@@@SAABUnsID@@XZ ; 8158
?assign_from_helper@?$nsCOMPtr@VnsPIBoxObject@@@@AAEXABVnsCOMPtr_helper@@ABUnsID@@@Z ; 8158
??0?$nsCOMPtr@VnsPIBoxObject@@@@QAE@ABVnsQueryInterface@@@Z ; 8158
?assign_assuming_AddRef@?$nsCOMPtr@VnsPIBoxObject@@@@AAEXPAVnsPIBoxObject@@@Z ; 8158
??B?$nsCOMPtr@VnsPIBoxObject@@@@QBEPAV?$nsDerivedSafe@VnsPIBoxObject@@@@XZ ; 8122
?GetAssignmentFor@nsAssignmentSet@@QBEHHPAVValue@@@Z ; 8099
??0ConstIterator@NodeSet@@QAE@ABV01@@Z ; 8045
??4?$nsCOMPtr@VnsINodeInfo@@@@QAEAAV0@PAVnsINodeInfo@@@Z ; 8028
??0?$nsCOMPtr@VnsIRDFCompositeDataSource@@@@QAE@XZ ; 8023
??BValue@@QBEPAVnsISupports@@XZ ; 7941
?GetControllerForCommand@nsXULControllers@@UAGIPBGPAPAVnsIController@@@Z ; 7931
?get@?$nsCOMPtr@VnsIXMLContent@@@@QBEPAV?$nsDerivedSafe@VnsIXMLContent@@@@XZ ; 7884
??0Iterator@MatchSet@@QAE@PAUList@1@@Z ; 7884
?get@?$nsCOMPtr@VnsIDOMXULCommandDispatcher@@@@QBEPAV?$nsDerivedSafe@VnsIDOMXULCommandDispatcher@@@@XZ ; 7778
??1?$nsPromiseSubstring@G@@UAE@XZ ; 7748
??1?$nsPromiseReadable@G@@UAE@XZ ; 7748
??0?$nsPromiseReadable@G@@QAE@XZ ; 7748
?Peek@ContextStack@nsXULDocument@@QAEIPAPAVnsXULPrototypeElement@@PAPAVnsIContent@@PAH@Z ; 7733
?assign_assuming_AddRef@?$nsCOMPtr@VnsIRDFLiteral@@@@AAEXPAVnsIRDFLiteral@@@Z ; 7721
??B?$nsCOMPtr@VnsIDOMXULCommandDispatcher@@@@QBEPAV?$nsDerivedSafe@VnsIDOMXULCommandDispatcher@@@@XZ ; 7657
??0?$nsCOMPtr@VnsIControllers@@@@QAE@XZ ; 7656
??0Slots@nsXULElement@@QAE@PAV1@@Z ; 7656
?Add@nsElementMap@@QAEIABV?$basic_nsAReadableString@G@@PAVnsIContent@@@Z ; 7645
??B?$nsCOMPtr@VnsIRDFNode@@@@QBEPAV?$nsDerivedSafe@VnsIRDFNode@@@@XZ ; 7633
?GetCommandDispatcher@nsXULDocument@@UAGIPAPAVnsIDOMXULCommandDispatcher@@@Z ; 7616
?ns_if_addref@@YAKPAVnsIDOMXULCommandDispatcher@@@Z ; 7616
?EnsureFocusController@nsXULCommandDispatcher@@IAEXXZ ; 7575
?AddRef@nsXULAttributes@@UAGKXZ ; 7522
?First@?$basic_nsAReadableString@G@@QBEGXZ ; 7481
??_EInMemoryAssertionEnumeratorImpl@@UAEPAXI@Z ; 7431
??3InMemoryAssertionEnumeratorImpl@@SAXPAXI@Z ; 7431
??1InMemoryAssertionEnumeratorImpl@@UAE@XZ ; 7431
??2InMemoryAssertionEnumeratorImpl@@SAPAXIAAVnsFixedSizeAllocator@@@Z ; 7431
??0InMemoryAssertionEnumeratorImpl@@QAE@PAVInMemoryDataSource@@PAVnsIRDFResource@@1PAVnsIRDFNode@@H@Z ; 7431
??0nsIDOMNamedNodeMap@@QAE@XZ ; 7398
??0?$nsCOMPtr@VnsIStyleRule@@@@QAE@PAVnsIStyleRule@@@Z ; 7398
??0nsXULAttributes@@IAE@PAVnsIContent@@@Z ; 7398
?Create@nsXULAttributes@@SAIPAVnsIContent@@PAPAV1@@Z ; 7398
??0Iterator@NodeSet@@QAE@ABV01@@Z ; 7392
?Release@nsRDFDOMNodeList@@W7AGKXZ ; 7349
?Release@nsXULAttributes@@W3AGKXZ ; 7283
?Release@nsXULAttributes@@W3AGKXZ ; 7283
?GetScriptObject@nsXULCommandDispatcher@@UAGIPAVnsIScriptContext@@PAPAX@Z ; 7283
??1?$nsCOMPtr@VnsIRDFLiteral@@@@QAE@XZ ; 7273
?get@?$nsCOMPtr@VnsIFactory@@@@QBEPAV?$nsDerivedSafe@VnsIFactory@@@@XZ ; 7254
?assign_from_helper@?$nsCOMPtr@VnsIRDFNode@@@@AAEXABVnsCOMPtr_helper@@ABUnsID@@@Z ; 7245
?getter_Copies@@YA?AVGetterCopies@nsXPIDLCString@@AAV2@@Z ; 7209
??0?$nsCOMPtr@VnsIRDFNode@@@@QAE@ABVnsQueryInterface@@@Z ; 7172
?StripAndConvert@nsRDFParserUtils@@SAXAAVnsString@@@Z ; 7171
??B?$nsGetterAddRefs@VnsIEventListenerManager@@@@QAEPAPAVnsIEventListenerManager@@XZ ; 7142
??0?$nsCOMPtr@VnsIScriptContext@@@@QAE@XZ ; 7036
??1?$nsCOMPtr@VnsIControllerCommand@@@@QAE@XZ ; 7013
?assign_assuming_AddRef@?$nsCOMPtr@VnsIControllerCommand@@@@AAEXPAVnsIControllerCommand@@@Z ; 7013
?GetTargets@InMemoryDataSource@@UAGIPAVnsIRDFResource@@0HPAPAVnsISimpleEnumerator@@@Z ; 6885
??B?$nsCOMPtr@VnsIScriptContext@@@@QBEPAV?$nsDerivedSafe@VnsIScriptContext@@@@XZ ; 6884
??0ConstIterator@InstantiationSet@@QAE@PAVList@1@@Z ; 6848
?assign_from_helper@?$nsCOMPtr@VnsIScriptContext@@@@AAEXABVnsCOMPtr_helper@@ABUnsID@@@Z ; 6832
?GetIID@nsIScriptContext@@SAABUnsID@@XZ ; 6832
?GetIID@?$nsCOMTypeInfo@VnsIScriptContext@@@@SAABUnsID@@XZ ; 6832
?Assert_NoQueryNeeded@?$nsCOMPtr@VnsIScriptContext@@@@QAEXXZ ; 6832
??0?$nsCOMPtr@VnsIScriptContext@@@@QAE@ABVnsQueryInterface@@@Z ; 6832
??0nsXULPrototypeAttribute@@QAE@XZ ; 6804
??1?$nsCOMPtr@VnsIRDFCompositeDataSource@@@@QAE@XZ ; 6720
?Assert_NoQueryNeeded@?$nsCOMPtr@VnsISimpleEnumerator@@@@QAEXXZ ; 6645
?getter_AddRefs@@YA?AV?$nsGetterAddRefs@VnsISimpleEnumerator@@@@AAV?$nsCOMPtr@VnsISimpleEnumerator@@@@@Z ; 6645
??0?$nsGetterAddRefs@VnsISimpleEnumerator@@@@QAE@AAV?$nsCOMPtr@VnsISimpleEnumerator@@@@@Z ; 6645
??0?$nsCOMPtr@VnsISimpleEnumerator@@@@QAE@XZ ; 6645
??1?$nsGetterAddRefs@VnsISimpleEnumerator@@@@QAE@XZ ; 6645
??B?$nsGetterAddRefs@VnsISimpleEnumerator@@@@QAEPAPAVnsISimpleEnumerator@@XZ ; 6645
?assign_from_helper@?$nsCOMPtr@VnsISimpleEnumerator@@@@AAEXABVnsCOMPtr_helper@@ABUnsID@@@Z ; 6645
?StartAssignment@?$nsCOMPtr@VnsISimpleEnumerator@@@@QAEPAPAVnsISimpleEnumerator@@XZ ; 6645
??0?$nsCOMPtr@VnsISimpleEnumerator@@@@QAE@ABVnsQueryInterface@@@Z ; 6645
?HasAssertion@LocalStoreImpl@@UAGIPAVnsIRDFResource@@0PAVnsIRDFNode@@HPAH@Z ; 6607
??1?$nsGetterAddRefs@VnsIScriptContext@@@@QAE@XZ ; 6603
??B?$nsGetterAddRefs@VnsIScriptContext@@@@QAEPAPAVnsIScriptContext@@XZ ; 6603
?getter_AddRefs@@YA?AV?$nsGetterAddRefs@VnsIScriptContext@@@@AAV?$nsCOMPtr@VnsIScriptContext@@@@@Z ; 6603
?StartAssignment@?$nsCOMPtr@VnsIScriptContext@@@@QAEPAPAVnsIScriptContext@@XZ ; 6603
??0?$nsGetterAddRefs@VnsIScriptContext@@@@QAE@AAV?$nsCOMPtr@VnsIScriptContext@@@@@Z ; 6603
?StartAssignment@?$nsCOMPtr@VnsIRDFResource@@@@QAEPAPAVnsIRDFResource@@XZ ; 6546
??0?$nsGetterAddRefs@VnsIRDFResource@@@@QAE@AAV?$nsCOMPtr@VnsIRDFResource@@@@@Z ; 6546
?getter_AddRefs@@YA?AV?$nsGetterAddRefs@VnsIRDFResource@@@@AAV?$nsCOMPtr@VnsIRDFResource@@@@@Z ; 6546
??1?$nsGetterAddRefs@VnsIRDFResource@@@@QAE@XZ ; 6546
??B?$nsGetterAddRefs@VnsIRDFResource@@@@QAEPAPAVnsIRDFResource@@XZ ; 6546
??C?$nsCOMPtr@VnsIScriptGlobalObject@@@@QBEPAV?$nsDerivedSafe@VnsIScriptGlobalObject@@@@XZ ; 6412
?NormalizeAttributeString@XULContentSinkImpl@@IAEIABV?$basic_nsAReadableString@G@@AAPAVnsINodeInfo@@@Z ; 6365
?GetProperty@nsXULDocument@@UAEHPAUJSContext@@PAUJSObject@@JPAJ@Z ; 6304
??B?$nsCOMPtr@VnsIRDFLiteral@@@@QBEPAV?$nsDerivedSafe@VnsIRDFLiteral@@@@XZ ; 6015
?FlushText@XULContentSinkImpl@@IAEIH@Z ; 5913
??4?$nsCOMPtr@VnsIDOMElement@@@@QAEAAV0@ABVnsQueryInterface@@@Z ; 5828
?SetTopIndex@ContextStack@nsXULDocument@@QAEIH@Z ; 5776
??0?$nsCOMPtr@VnsIRDFLiteral@@@@QAE@ABVnsQueryInterface@@@Z ; 5665
?assign_from_helper@?$nsCOMPtr@VnsIRDFLiteral@@@@AAEXABVnsCOMPtr_helper@@ABUnsID@@@Z ; 5665
??1?$nsCOMPtr@VnsIControllers@@@@QAE@XZ ; 5587
?Create@nsXULElement@@SAIPAVnsXULPrototypeElement@@PAVnsIDocument@@HPAPAVnsIContent@@@Z ; 5583
??1Slots@nsXULElement@@QAE@XZ ; 5580
??_GSlots@nsXULElement@@QAEPAXI@Z ; 5580
?get_address@?$nsCOMPtr@VnsINameSpace@@@@QAEPAV1@XZ ; 5526
?GetTopNameSpace@XULContentSinkImpl@@IAEIPAV?$nsCOMPtr@VnsINameSpace@@@@@Z ; 5526
?address_of@@YAPAV?$nsCOMPtr@VnsINameSpace@@@@AAV1@@Z ; 5526
?GetIID@nsIRDFService@@SAABUnsID@@XZ ; 5520
?GetIID@?$nsCOMTypeInfo@VnsIRDFService@@@@SAABUnsID@@XZ ; 5520
?Release@nsXULAttributes@@UAGKXZ ; 5505
?InitBindings@Rule@@QBEIAAVConflictSet@@PAVMatch@@@Z ; 5424
?GetTopChildren@ContextStack@XULContentSinkImpl@@QAEIPAPAVnsVoidArray@@@Z ; 5392
??_EnsXULAttributes@@MAEPAXI@Z ; 5381
??1nsXULAttributes@@MAE@XZ ; 5381
?Create@nsXULElement@@SAIPAVnsINodeInfo@@PAPAVnsIContent@@@Z ; 5371
?SetContentID@nsXULElement@@UAGII@Z ; 5321
?AddRef@CompositeDataSourceImpl@@UAGKXZ ; 5317
?GetAttribute@nsXULPrototypeElement@@QAEIHPAVnsIAtom@@AAV?$basic_nsAWritableString@G@@@Z ; 5314
?GetControllerForCommand@nsXULCommandDispatcher@@UAGIABV?$basic_nsAReadableString@G@@PAPAVnsIController@@@Z ; 5312
?Release@nsXULAttributes@@W3AGKXZ ; 5312
??1?$nsCOMPtr@VnsIURI@@@@QAE@XZ ; 5285
?AddRef@RDFServiceImpl@@UAGKXZ ; 5255
?GetIID@nsIRDFDataSource@@SAABUnsID@@XZ ; 5192
?GetIID@?$nsCOMTypeInfo@VnsIRDFDataSource@@@@SAABUnsID@@XZ ; 5192
??0?$nsCOMPtr@VnsIContent@@@@QAE@PAVnsIContent@@@Z ; 5158
?AddScriptEventListener@nsXULElement@@UAGIPAVnsIAtom@@ABV?$basic_nsAReadableString@G@@ABUnsID@@@Z ; 5134
?Last@MatchSet@@QAE?AVIterator@1@XZ ; 5109
?get@?$nsCOMPtr@VnsIDOMXULElement@@@@QBEPAV?$nsDerivedSafe@VnsIDOMXULElement@@@@XZ ; 5067
??0nsClassList@@QAE@PAVnsIAtom@@@Z ; 5034
?GetIID@?$nsCOMTypeInfo@VnsIRDFContainerUtils@@@@SAABUnsID@@XZ ; 4983
?GetIID@nsIRDFContainerUtils@@SAABUnsID@@XZ ; 4983
?Release@CompositeDataSourceImpl@@UAGKXZ ; 4952
?get@?$nsCOMPtr@VnsIRDFCompositeDataSource@@@@QBEPAV?$nsDerivedSafe@VnsIRDFCompositeDataSource@@@@XZ ; 4946
??4?$nsCOMPtr@VnsINameSpace@@@@QAEAAV0@ABV0@@Z ; 4942
?GetAttribute@nsXULElement@@UAGIABV?$basic_nsAReadableString@G@@AAV?$basic_nsAWritableString@G@@@Z ; 4927
?get@?$nsCOMPtr@VnsIPresShell@@@@QBEPAV?$nsDerivedSafe@VnsIPresShell@@@@XZ ; 4908
?CreateElement@nsXULDocument@@IAEIPAVnsXULPrototypeElement@@PAPAVnsIContent@@@Z ; 4866
?ParseAttribute@nsXULTemplateBuilder@@QAEXABV?$basic_nsAReadableString@G@@P6AXPAV1@0PAX@Z32@Z ; 4810
?Release@RDFServiceImpl@@UAGKXZ ; 4798
??B?$nsCOMPtr@VnsIFactory@@@@QBEPAV?$nsDerivedSafe@VnsIFactory@@@@XZ ; 4773
??B?$nsCOMPtr@VnsIRDFDataSource@@@@QBEPAV?$nsDerivedSafe@VnsIRDFDataSource@@@@XZ ; 4752
?GetValueConst@LiteralImpl@@UAGIPAPBG@Z ; 4751
??B?$nsGetterAddRefs@VnsIDOMNode@@@@QAEPAPAVnsIDOMNode@@XZ ; 4706
??9@YAHABV?$nsCOMPtr@VnsIContent@@@@0@Z ; 4693
?Init@RDFServiceImpl@@IAEIXZ ; 4677
??0?$nsGetterAddRefs@VnsIControllerCommand@@@@QAE@AAV?$nsCOMPtr@VnsIControllerCommand@@@@@Z ; 4671
??1?$nsGetterAddRefs@VnsIControllerCommand@@@@QAE@XZ ; 4671
??B?$nsGetterAddRefs@VnsIControllerCommand@@@@QAEPAPAVnsIControllerCommand@@XZ ; 4671
?Assert_NoQueryNeeded@?$nsCOMPtr@VnsIControllerCommand@@@@QAEXXZ ; 4671
?StartAssignment@?$nsCOMPtr@VnsIControllerCommand@@@@QAEPAPAVnsIControllerCommand@@XZ ; 4671
?getter_AddRefs@@YA?AV?$nsGetterAddRefs@VnsIControllerCommand@@@@AAV?$nsCOMPtr@VnsIControllerCommand@@@@@Z ; 4671
??0?$nsCOMPtr@VnsIControllerCommand@@@@QAE@XZ ; 4671
?FindCommandHandler@nsControllerCommandManager@@UAGIPBGPAPAVnsIControllerCommand@@@Z ; 4671
?getter_AddRefs@@YA?AV?$nsGetterAddRefs@VnsIDOMElement@@@@AAV?$nsCOMPtr@VnsIDOMElement@@@@@Z ; 4638
?StartAssignment@?$nsCOMPtr@VnsIDOMElement@@@@QAEPAPAVnsIDOMElement@@XZ ; 4638
?Assert_NoQueryNeeded@?$nsCOMPtr@VnsIDOMElement@@@@QAEXXZ ; 4638
??1?$nsGetterAddRefs@VnsIDOMElement@@@@QAE@XZ ; 4638
??B?$nsGetterAddRefs@VnsIDOMElement@@@@QAEPAPAVnsIDOMElement@@XZ ; 4638
??0?$nsGetterAddRefs@VnsIDOMElement@@@@QAE@AAV?$nsCOMPtr@VnsIDOMElement@@@@@Z ; 4638
?GetValue@nsRDFResource@@UAGIPAPAD@Z ; 4617
??1nsAssignmentSet@@QAE@XZ ; 4576
??B?$nsCOMPtr@VnsIURI@@@@QBEPAV?$nsDerivedSafe@VnsIURI@@@@XZ ; 4525
??C?$nsCOMPtr@VnsIDOMNode@@@@QBEPAV?$nsDerivedSafe@VnsIDOMNode@@@@XZ ; 4504
?GetReverseArcs@InMemoryDataSource@@QAEPAVAssertion@@PAVnsIRDFNode@@@Z ; 4487
?IsIgnoreableAttribute@nsXULTemplateBuilder@@QAEHHPAVnsIAtom@@@Z ; 4481
??1nsAssignment@@QAE@XZ ; 4458
?HasAssignmentFor@nsAssignmentSet@@QBEHH@Z ; 4404
?LogOperation@InMemoryDataSource@@QAEXPBDPAVnsIRDFResource@@1PAVnsIRDFNode@@H@Z ; 4393
?Append@?$basic_nsAWritableString@G@@QAEXG@Z ; 4390
?ParseClasses@nsClassList@@SAIPAPAV1@ABV?$basic_nsAReadableString@G@@@Z ; 4390
?SerializeAssertion@RDFXMLDataSourceImpl@@QAEIPAVnsIOutputStream@@PAVnsIRDFResource@@1PAVnsIRDFNode@@@Z ; 4384
?SerializeAssertion@RDFXMLDataSourceImpl@@QAEIPAVnsIOutputStream@@PAVnsIRDFResource@@1PAVnsIRDFNode@@@Z ; 4384
?IsA@RDFContainerUtilsImpl@@AAEHPAVnsIRDFDataSource@@PAVnsIRDFResource@@1@Z ; 4377
?SetContainingNameSpace@nsXULElement@@UAGIPAVnsINameSpace@@@Z ; 4290
??0Iterator@NodeSet@@QAE@PAPAVReteNode@@@Z ; 4283
??0ConstIterator@NodeSet@@QAE@PAPAVReteNode@@@Z ; 4283
??C?$nsCOMPtr@VnsIRDFLiteral@@@@QBEPAV?$nsDerivedSafe@VnsIRDFLiteral@@@@XZ ; 4208
??0Iterator@InstantiationSet@@QAE@PAVList@1@@Z ; 4180
??1Instantiation@@QAE@XZ ; 4173
??1MemoryElementSet@@QAE@XZ ; 4173
?assign_assuming_AddRef@?$nsCOMPtr@VnsIURI@@@@AAEXPAVnsIURI@@@Z ; 4154
??B?$nsGetterAddRefs@VnsIEventListenerManager@@@@QAEPAPAXXZ ; 4141
?QueryInterface@RDFServiceImpl@@UAGIABUnsID@@PAPAX@Z ; 4134
??0?$nsPromiseSubstring@G@@QAE@ABV?$basic_nsAReadableString@G@@ABV?$nsReadingIterator@G@@1@Z ; 4096
?Substring@@YA?AV?$nsPromiseSubstring@G@@ABV?$basic_nsAReadableString@G@@ABV?$nsReadingIterator@G@@1@Z ; 4096
??0ConstIterator@ResourceSet@@QAE@ABV01@@Z ; 4055
?QueryInterface@InMemoryAssertionEnumeratorImpl@@UAGIABUnsID@@PAPAX@Z ; 4039
??9Iterator@NodeSet@@QBEHABVConstIterator@1@@Z ; 4036
?First@MatchSet@@QBE?AVConstIterator@1@XZ ; 4033
?SetBindingParent@nsXULElement@@UAGIPAVnsIContent@@@Z ; 4028
?IsDataInBuffer@XULContentSinkImpl@@KAHPAGH@Z ; 4018
?UpdateClassList@nsXULAttributes@@QAEIABV?$basic_nsAReadableString@G@@@Z ; 4012
?IsOrdinalProperty@RDFContainerUtilsImpl@@UAGIPAVnsIRDFResource@@PAH@Z ; 3977
?Assert_NoQueryNeeded@?$nsCOMPtr@VnsIRDFNode@@@@QAEXXZ ; 3968
?CloneNode@nsXULElement@@UAGIHPAPAVnsIDOMNode@@@Z ; 3951
?CallQueryInterface@@YAIAAV?$nsCOMPtr@VnsIContent@@@@PAPAVnsIDOMNode@@@Z ; 3951
?CallQueryInterface@@YAIPAVnsISupports@@PAPAVnsIDOMNode@@@Z ; 3951
?GetNext@InMemoryArcsEnumeratorImpl@@UAGIPAPAVnsISupports@@@Z ; 3945
??B?$nsCOMPtr@VnsINameSpace@@@@QBEPAV?$nsDerivedSafe@VnsINameSpace@@@@XZ ; 3942
??0?$nsCOMPtr@VnsIXMLContent@@@@QAE@ABVnsQueryInterface@@@Z ; 3942
?assign_assuming_AddRef@?$nsCOMPtr@VnsIXMLContent@@@@AAEXPAVnsIXMLContent@@@Z ; 3942
??1?$nsCOMPtr@VnsIXMLContent@@@@QAE@XZ ; 3942
??B?$nsCOMPtr@VnsIXMLContent@@@@QBEPAV?$nsDerivedSafe@VnsIXMLContent@@@@XZ ; 3942
??C?$nsCOMPtr@VnsIXMLContent@@@@QBEPAV?$nsDerivedSafe@VnsIXMLContent@@@@XZ ; 3942
?assign_from_helper@?$nsCOMPtr@VnsIXMLContent@@@@AAEXABVnsCOMPtr_helper@@ABUnsID@@@Z ; 3942
?Assign@?$basic_nsAWritableString@G@@QAEXABV?$basic_nsAReadableString@G@@@Z ; 3926
?AssignFromReadable@?$basic_nsAWritableString@G@@IAEXABV?$basic_nsAReadableString@G@@@Z ; 3926
?assign_assuming_AddRef@?$nsCOMPtr@VnsISupportsArray@@@@AAEXPAVnsISupportsArray@@@Z ; 3815
?GetValue@LiteralImpl@@UAGIPAPAG@Z ; 3787
?UnsetAttribute@nsXULElement@@UAGIHPAVnsIAtom@@H@Z ; 3774
??1?$nsCOMPtr@VnsISupportsArray@@@@QAE@XZ ; 3731
??_GnsClassList@@QAEPAXI@Z ; 3682
??1nsClassList@@QAE@XZ ; 3682
??0?$nsPromiseSubstring@G@@QAE@ABV?$basic_nsAReadableString@G@@II@Z ; 3652
?Substring@@YA?AV?$nsPromiseSubstring@G@@ABV?$basic_nsAReadableString@G@@II@Z ; 3652
?IsA@RDFXMLDataSourceImpl@@QAEHPAVnsIRDFDataSource@@PAVnsIRDFResource@@1@Z ; 3624
?Find@MatchSet@@QBE?AVConstIterator@1@ABVMatch@@@Z ; 3615
?Contains@MatchSet@@QBEHABVMatch@@@Z ; 3615
??DConstIterator@MatchSet@@QBEABVMatch@@XZ ; 3569
??8Match@@QBEHABV0@@Z ; 3569
??0Instantiation@@QAE@XZ ; 3565
??0nsAssignmentSet@@QAE@XZ ; 3565
??0MemoryElementSet@@QAE@XZ ; 3565
?SupportsCommand@nsControllerCommandManager@@UAGIPBGPAVnsISupports@@PAH@Z ; 3500
?HashBindingElement@ConflictSet@@KAIPBX@Z ; 3464
??9Iterator@MatchSet@@QBEHABVConstIterator@1@@Z ; 3427
??0?$nsCOMPtr@VnsIRDFNode@@@@QAE@XZ ; 3390
??B?$nsGetterAddRefs@VnsIAtom@@@@QAEPAPAVnsIAtom@@XZ ; 3386
?get@?$nsCOMPtr@VnsIHTMLCSSStyleSheet@@@@QBEPAV?$nsDerivedSafe@VnsIHTMLCSSStyleSheet@@@@XZ ; 3384
??B?$nsCOMPtr@VnsIHTMLCSSStyleSheet@@@@QBEPAV?$nsDerivedSafe@VnsIHTMLCSSStyleSheet@@@@XZ ; 3372
??0ContentListItem@nsElementMap@@QAE@PAVnsIContent@@@Z ; 3326
??2ContentListItem@nsElementMap@@SAPAXIAAVnsFixedSizeAllocator@@@Z ; 3326
?SubstituteText@nsXULTemplateBuilder@@QAEIAAVMatch@@ABV?$basic_nsAReadableString@G@@AAVnsString@@@Z ; 3325
??0SubstituteTextClosure@@QAE@AAVMatch@@AAVnsString@@@Z ; 3325
??0?$nsCOMPtr@VnsIDOMElement@@@@QAE@ABVnsQueryInterface@@@Z ; 3280
??1?$nsCOMPtr@VnsIPresShell@@@@QAE@XZ ; 3256
?GetAssignmentFor@Match@@QAEHAAVConflictSet@@HPAVValue@@@Z ; 3243
?HasMoreElements@CompositeEnumeratorImpl@@UAGIPAH@Z ; 3232
?Release@nsXULAtoms@@SAKXZ ; 3227
?Release@List@MemoryElementSet@@QAEHXZ ; 3223
?getter_Copies@@YA?AVGetterCopies@nsXPIDLString@@AAV2@@Z ; 3216
?get@?$nsCOMPtr@VnsIRDFPurgeableDataSource@@@@QBEPAV?$nsDerivedSafe@VnsIRDFPurgeableDataSource@@@@XZ ; 3162
??B?$nsCOMPtr@VnsIXULPrototypeDocument@@@@QBEPAV?$nsDerivedSafe@VnsIXULPrototypeDocument@@@@XZ ; 3130
?dont_AddRef@@YA?BU?$already_AddRefed@VnsIAtom@@@@PAVnsIAtom@@@Z ; 3128
?Mid@?$basic_nsAReadableString@G@@QBEIAAV?$basic_nsAWritableString@G@@II@Z ; 3070
?GetScriptObject@nsRDFDOMNodeList@@UAGIPAVnsIScriptContext@@PAPAX@Z ; 3064
??0Value@@QAE@ABV0@@Z ; 3029
?RemoveAttribute@nsXULElement@@UAGIABV?$basic_nsAReadableString@G@@@Z ; 2994
?IsContainerProperty@RDFXMLDataSourceImpl@@QAEHPAVnsIRDFResource@@@Z ; 2993
??1?$nsGetterAddRefs@VnsIRDFNode@@@@QAE@XZ ; 2976
??B?$nsGetterAddRefs@VnsIRDFNode@@@@QAEPAPAVnsIRDFNode@@XZ ; 2976
??0?$nsGetterAddRefs@VnsIRDFNode@@@@QAE@AAV?$nsCOMPtr@VnsIRDFNode@@@@@Z ; 2976
?getter_AddRefs@@YA?AV?$nsGetterAddRefs@VnsIRDFNode@@@@AAV?$nsCOMPtr@VnsIRDFNode@@@@@Z ; 2976
?StartAssignment@?$nsCOMPtr@VnsIRDFNode@@@@QAEPAPAVnsIRDFNode@@XZ ; 2976
??8Instantiation@@QBEHABV0@@Z ; 2957
?Equals@Instantiation@@QBEHABV1@@Z ; 2957
??8nsAssignmentSet@@QBEHABV0@@Z ; 2957
?Equals@nsAssignmentSet@@QBEHABV1@@Z ; 2957
?GetEnumerator@CompositeAssertionEnumeratorImpl@@UAEIPAVnsIRDFDataSource@@PAPAVnsISimpleEnumerator@@@Z ; 2943
?AddRef@RDFXMLDataSourceImpl@@UAGKXZ ; 2929
?Promises@?$nsPromiseSubstring@G@@UBEHABV?$basic_nsAReadableString@G@@@Z ; 2918
?Assign@?$basic_nsAWritableString@G@@QAEXABV?$nsPromiseReadable@G@@@Z ; 2918
?AssignFromPromise@?$basic_nsAWritableString@G@@IAEXABV?$basic_nsAReadableString@G@@@Z ; 2918
??4?$basic_nsAWritableString@G@@QAEAAV0@ABV?$nsPromiseReadable@G@@@Z ; 2918
?Release@InMemoryArcsEnumeratorImpl@@UAGKXZ ; 2888
?AddRef@InMemoryArcsEnumeratorImpl@@UAGKXZ ; 2888
?ns_if_addref@@YAKPAVList@MemoryElementSet@@@Z ; 2887
?AddRef@List@MemoryElementSet@@QAEHXZ ; 2887
?assign_with_AddRef@?$nsCOMPtr@VnsIRDFResource@@@@AAEXPAVnsISupports@@@Z ; 2881
?get@?$nsCOMPtr@VnsIXBLService@@@@QBEPAV?$nsDerivedSafe@VnsIXBLService@@@@XZ ; 2880
?Release@RDFXMLDataSourceImpl@@UAGKXZ ; 2879
??C?$nsCOMPtr@VnsINameSpace@@@@QBEPAV?$nsDerivedSafe@VnsINameSpace@@@@XZ ; 2869
?LockedAssert@InMemoryDataSource@@IAEIPAVnsIRDFResource@@0PAVnsIRDFNode@@H@Z ; 2861
??9Iterator@InstantiationSet@@QBEHABVConstIterator@1@@Z ; 2856
?assign_assuming_AddRef@?$nsCOMPtr@VnsIFactory@@@@AAEXPAVnsIFactory@@@Z ; 2852
?Last@InstantiationSet@@QAE?AVIterator@1@XZ ; 2842
?Depth@ContextStack@XULContentSinkImpl@@QAEHXZ ; 2815
?MouseOver@XULPopupListenerImpl@@UAEIPAVnsIDOMEvent@@@Z ; 2805
?assign_with_AddRef@?$nsCOMPtr@VnsIFactory@@@@AAEXPAVnsISupports@@@Z ; 2798
??4?$nsCOMPtr@VnsIFactory@@@@QAEAAV0@ABV0@@Z ; 2798
??2Assertion@@SAPAXIAAVnsFixedSizeAllocator@@@Z ; 2783
??0Assertion@@QAE@PAVnsIRDFResource@@0PAVnsIRDFNode@@H@Z ; 2783
?First@MatchSet@@QAE?AVIterator@1@XZ ; 2775
??0nsXULPrototypeNode@@IAE@W4Type@0@H@Z ; 2775
??0Entry@ContextStack@XULContentSinkImpl@@QAE@XZ ; 2762
?Pop@ContextStack@XULContentSinkImpl@@QAEIPAW4State@2@@Z ; 2762
??_GEntry@ContextStack@XULContentSinkImpl@@QAEPAXI@Z ; 2762
?PushNameSpacesFrom@XULContentSinkImpl@@IAEXABVnsIParserNode@@@Z ; 2762
??1Entry@ContextStack@XULContentSinkImpl@@QAE@XZ ; 2762
?Push@ContextStack@XULContentSinkImpl@@QAEIPAVnsXULPrototypeNode@@W4State@2@@Z ; 2762
?GetTopNode@ContextStack@XULContentSinkImpl@@QAEIPAPAVnsXULPrototypeNode@@@Z ; 2762
?OpenContainer@XULContentSinkImpl@@UAGIABVnsIParserNode@@@Z ; 2762
?CloseContainer@XULContentSinkImpl@@UAGIABVnsIParserNode@@@Z ; 2762
?ParseTag@XULContentSinkImpl@@IAEIABV?$basic_nsAReadableString@G@@AAPAVnsINodeInfo@@@Z ; 2762
?PopNameSpaces@XULContentSinkImpl@@IAEXXZ ; 2762
??9@YAHABV?$nsCOMPtr@VnsIRDFResource@@@@PAVNSCAP_Zero@@@Z ; 2756
?MouseOut@XULPopupListenerImpl@@UAEIPAVnsIDOMEvent@@@Z ; 2754
?GetTarget@CompositeDataSourceImpl@@UAGIPAVnsIRDFResource@@0HPAPAVnsIRDFNode@@@Z ; 2750
?GetIID@nsIURI@@SAABUnsID@@XZ ; 2749
??0?$nsCOMPtr@VnsIURI@@@@QAE@ABVnsQueryInterface@@@Z ; 2749
?assign_from_helper@?$nsCOMPtr@VnsIURI@@@@AAEXABVnsCOMPtr_helper@@ABUnsID@@@Z ; 2749
?GetIID@?$nsCOMTypeInfo@VnsIURI@@@@SAABUnsID@@XZ ; 2749
?HasAssertion@CompositeDataSourceImpl@@UAGIPAVnsIRDFResource@@0PAVnsIRDFNode@@HPAH@Z ; 2736
?OpenTag@XULContentSinkImpl@@IAEIABVnsIParserNode@@PAVnsINodeInfo@@@Z ; 2722
?GetIID@nsIXBLService@@SAABUnsID@@XZ ; 2720
?assign_assuming_AddRef@?$nsCOMPtr@VnsIXBLService@@@@AAEXPAVnsIXBLService@@@Z ; 2720
?GetIID@?$nsCOMTypeInfo@VnsIXBLService@@@@SAABUnsID@@XZ ; 2720
??1?$nsCOMPtr@VnsIXBLService@@@@QAE@XZ ; 2720
?assign_from_helper@?$nsCOMPtr@VnsIXBLService@@@@AAEXABVnsCOMPtr_helper@@ABUnsID@@@Z ; 2720
?Assert_NoQueryNeeded@?$nsCOMPtr@VnsIURI@@@@QAEXXZ ; 2706
?MakeQName@RDFXMLDataSourceImpl@@QAEHPAVnsIRDFResource@@AAVnsString@@11@Z ; 2703
?SerializeAssertion@RDFXMLDataSourceImpl@@QAEIPAVnsIOutputStream@@PAVnsIRDFResource@@1PAVnsIRDFNode@@@Z ; 2703
?AddBindingDependency@ConflictSet@@QAEIPAVMatch@@PAVnsIRDFResource@@@Z ; 2702
??0nsXULPrototypeElement@@QAE@H@Z ; 2657
?CreateElement@XULContentSinkImpl@@IAEIPAVnsINodeInfo@@PAPAVnsXULPrototypeElement@@@Z ; 2657
?AddAttributes@XULContentSinkImpl@@IAEIABVnsIParserNode@@PAVnsXULPrototypeElement@@@Z ; 2657
?IsInsideXULTemplate@ContextStack@XULContentSinkImpl@@QAEHXZ ; 2657
?Release@RDFContainerImpl@@UAGKXZ ; 2646
?AddRef@RDFContainerImpl@@UAGKXZ ; 2646
??1?$nsCOMPtr@VnsIRDFDataSource@@@@QAE@XZ ; 2644
?GetNodeName@nsXULElement@@UAGIAAV?$basic_nsAWritableString@G@@@Z ; 2634
?CompareBindingElements@ConflictSet@@KAHPBX0@Z ; 2629
??_H@YGXPAXIHP6EX0@Z@Z ; 2611
?Assert@InMemoryDataSource@@UAGIPAVnsIRDFResource@@0PAVnsIRDFNode@@H@Z ; 2610
??0nsIRDFNode@@QAE@XZ ; 2608
?Hash@Value@@QBEIXZ ; 2604
?UseXULCache@nsXULContentUtils@@UAGHXZ ; 2591
?assign_assuming_AddRef@?$nsCOMPtr@VnsIDOMXULElement@@@@AAEXPAVnsIDOMXULElement@@@Z ; 2580
??1?$nsCOMPtr@VnsIDOMXULElement@@@@QAE@XZ ; 2579
?assign_from_helper@?$nsCOMPtr@VnsIDOMXULElement@@@@AAEXABVnsCOMPtr_helper@@ABUnsID@@@Z ; 2560
??0?$nsCOMPtr@VnsIDOMXULElement@@@@QAE@ABVnsQueryInterface@@@Z ; 2560
?AllocEntry@InMemoryDataSource@@KAPAUPLHashEntry@@PAXPBX@Z ; 2553
??B?$nsCOMPtr@VnsIDOMXULElement@@@@QBEPAV?$nsDerivedSafe@VnsIDOMXULElement@@@@XZ ; 2550
??0ConstIterator@ClusterKeySet@@QAE@ABV01@@Z ; 2524
?LookupSymbol@Rule@@QBEHABV?$basic_nsAReadableString@G@@@Z ; 2523
?AddLeaf@RDFContentSinkImpl@@UAGIABVnsIParserNode@@@Z ; 2523
?AddCharacterData@RDFContentSinkImpl@@UAGIABVnsIParserNode@@@Z ; 2523
?GetType@Value@@QBE?AW4Type@1@XZ ; 2517
?normalize_backward@?$nsReadingIterator@G@@QAEXXZ ; 2516
?SetReverseArcs@InMemoryDataSource@@QAEXPAVnsIRDFNode@@PAVAssertion@@@Z ; 2510
?QueryInterface@RDFContainerUtilsImpl@@UAGIABUnsID@@PAPAX@Z ; 2500
?AddRef@RDFContainerUtilsImpl@@UAGKXZ ; 2500
?Release@RDFContainerUtilsImpl@@UAGKXZ ; 2492
??C?$nsCOMPtr@VnsIDOMXULElement@@@@QBEPAV?$nsDerivedSafe@VnsIDOMXULElement@@@@XZ ; 2487
??1?$nsCOMPtr@VnsIFactory@@@@QAE@XZ ; 2481
??1ConstIterator@MemoryElementSet@@QAE@XZ ; 2460
??0ConstIterator@MemoryElementSet@@QAE@PAVList@1@@Z ; 2460
??0?$nsCOMPtr@VnsIFactory@@@@QAE@XZ ; 2456
?RegisterResource@RDFServiceImpl@@UAGIPAVnsIRDFResource@@H@Z ; 2454
??C?$nsCOMPtr@VnsIFactory@@@@QBEPAV?$nsDerivedSafe@VnsIFactory@@@@XZ ; 2454
??F?$nsReadingIterator@G@@QAEAAV0@XZ ; 2443
?AddRef@DateImpl@@UAGKXZ ; 2426
?AddRef@CompositeEnumeratorImpl@@UAGKXZ ; 2416
?Release@CompositeEnumeratorImpl@@UAGKXZ ; 2416
?get@?$nsCOMPtr@VnsIControllers@@@@QBEPAV?$nsDerivedSafe@VnsIControllers@@@@XZ ; 2411
?Controllers@nsXULElement@@IBEPAVnsIControllers@@XZ ; 2398
??EIterator@NodeSet@@QAEAAV01@XZ ; 2394
?GetIID@nsIRDFCompositeDataSource@@SAABUnsID@@XZ ; 2370
?GetIID@?$nsCOMTypeInfo@VnsIRDFCompositeDataSource@@@@SAABUnsID@@XZ ; 2370
?assign_with_AddRef@?$nsCOMPtr@VnsIStyleRule@@@@AAEXPAVnsISupports@@@Z ; 2362
?GetIID@nsIControllerCommand@@SAABUnsID@@XZ ; 2342
??0?$nsCOMPtr@VnsIControllerCommand@@@@QAE@ABVnsQueryInterface@@@Z ; 2342
?assign_from_helper@?$nsCOMPtr@VnsIControllerCommand@@@@AAEXABVnsCOMPtr_helper@@ABUnsID@@@Z ; 2342
?GetIID@?$nsCOMTypeInfo@VnsIControllerCommand@@@@SAABUnsID@@XZ ; 2342
?SerializeAssertion@RDFXMLDataSourceImpl@@QAEIPAVnsIOutputStream@@PAVnsIRDFResource@@1PAVnsIRDFNode@@@Z ; 2313
?rdf_MakeRelativeRef@@YAIABVnsString@@AAV1@@Z ; 2313
?SerializeAssertion@RDFXMLDataSourceImpl@@QAEIPAVnsIOutputStream@@PAVnsIRDFResource@@1PAVnsIRDFNode@@@Z ; 2313
?GetXBLDocumentInfo@nsXULPrototypeCache@@UAGIABVnsCString@@PAPAVnsIXBLDocumentInfo@@@Z ; 2305
??9@YAHABV?$nsCOMPtr@VnsIDocument@@@@PAVNSCAP_Zero@@@Z ; 2294
??4?$nsCOMPtr@VnsINodeInfo@@@@QAEAAV0@ABV0@@Z ; 2285
?get@?$nsCOMPtr@VnsIDOMXULDocument@@@@QBEPAV?$nsDerivedSafe@VnsIDOMXULDocument@@@@XZ ; 2283
?SetClassList@nsXULAttributes@@QAEIPAVnsClassList@@@Z ; 2278
??4?$nsCOMPtr@VnsIStyleRule@@@@QAEAAV0@PAVnsIStyleRule@@@Z ; 2278
?SetInlineStyleRule@nsXULAttributes@@QAEIPAVnsIStyleRule@@@Z ; 2278
?Last@NodeSet@@QAE?AVIterator@1@XZ ; 2271
??B?$nsCOMPtr@VnsIRDFCompositeDataSource@@@@QBEPAV?$nsDerivedSafe@VnsIRDFCompositeDataSource@@@@XZ ; 2263
?GetLiteral@RDFServiceImpl@@UAGIPBGPAPAVnsIRDFLiteral@@@Z ; 2249
??_GContentListItem@nsElementMap@@QAEPAXI@Z ; 2237
??3ContentListItem@nsElementMap@@SAXPAXI@Z ; 2237
??1ContentListItem@nsElementMap@@QAE@XZ ; 2237
??9ConstIterator@MemoryElementSet@@QBEHABV01@@Z ; 2215
??4nsAssignment@@QAEAAV0@ABV0@@Z ; 2202
??0List@nsAssignmentSet@@QAE@XZ ; 2202
?Add@nsAssignmentSet@@QAEIABVnsAssignment@@@Z ; 2202
??0nsAssignment@@QAE@XZ ; 2202
?SerializeProperty@RDFXMLDataSourceImpl@@QAEIPAVnsIOutputStream@@PAVnsIRDFResource@@1@Z ; 2191
?Release@DateImpl@@UAGKXZ ; 2183
?assign_assuming_AddRef@?$nsCOMPtr@VnsIRDFDataSource@@@@AAEXPAVnsIRDFDataSource@@@Z ; 2174
?Release@nsXULAtoms@@SAKXZ ; 2167
?SetScriptObject@nsRDFDOMNodeList@@UAGIPAX@Z ; 2149
??EIterator@InstantiationSet@@QAEAAV01@XZ ; 2142
?GetTargets@RDFXMLDataSourceImpl@@UAGIPAVnsIRDFResource@@0HPAPAVnsISimpleEnumerator@@@Z ; 2132
??0nsAssignment@@QAE@HABVValue@@@Z ; 2116
??0?$nsCOMPtr@VnsISupportsArray@@@@QAE@XZ ; 2107
??0ConstIterator@ResourceSet@@IAE@PAPAVnsIRDFResource@@@Z ; 2106
??9@YAHABV?$nsCOMPtr@VnsIDOMElement@@@@PAVNSCAP_Zero@@@Z ; 2099
??A?$basic_nsAReadableString@G@@QBEGI@Z ; 2099
??0?$nsGetterAddRefs@VnsIRDFLiteral@@@@QAE@AAV?$nsCOMPtr@VnsIRDFLiteral@@@@@Z ; 2056
?StartAssignment@?$nsCOMPtr@VnsIRDFLiteral@@@@QAEPAPAVnsIRDFLiteral@@XZ ; 2056
?getter_AddRefs@@YA?AV?$nsGetterAddRefs@VnsIRDFLiteral@@@@AAV?$nsCOMPtr@VnsIRDFLiteral@@@@@Z ; 2056
??1?$nsGetterAddRefs@VnsIRDFLiteral@@@@QAE@XZ ; 2056
?Assert_NoQueryNeeded@?$nsCOMPtr@VnsIRDFLiteral@@@@QAEXXZ ; 2056
??C?$nsCOMPtr@VnsISupports@@@@QBEPAV?$nsDerivedSafe@VnsISupports@@@@XZ ; 2041
?Assert_NoQueryNeeded@?$nsCOMPtr@VnsISupportsArray@@@@QAEXXZ ; 2032
?GetTarget@LocalStoreImpl@@UAGIPAVnsIRDFResource@@0HPAPAVnsIRDFNode@@@Z ; 2029
?First@NodeSet@@QAE?AVIterator@1@XZ ; 2012
?SubstituteTextReplaceVariable@nsXULTemplateBuilder@@SAXPAV1@ABV?$basic_nsAReadableString@G@@PAX@Z ; 2008
?HasMoreElements@ContainerEnumeratorImpl@@UAGIPAH@Z ; 2007
?Matches@nsXULCommandDispatcher@@IAEHABVnsString@@ABV?$basic_nsAReadableString@G@@@Z ; 1999
?get@?$nsCOMPtr@VnsIDOMDocument@@@@QBEPAV?$nsDerivedSafe@VnsIDOMDocument@@@@XZ ; 1994
??0Value@@QAE@PAVnsISupports@@@Z ; 1976
?GetPhase@OverlayForwardReference@nsXULDocument@@UAE?AW4Phase@nsForwardReference@@XZ ; 1960
??0List@InstantiationSet@@QAE@XZ ; 1958
??1List@InstantiationSet@@QAE@XZ ; 1958
?Push@ContextStack@nsXULDocument@@QAEIPAVnsXULPrototypeElement@@PAVnsIContent@@@Z ; 1957
?Pop@ContextStack@nsXULDocument@@QAEIXZ ; 1957
?GetUnicodeResource@RDFServiceImpl@@UAGIPBGPAPAVnsIRDFResource@@@Z ; 1951
?IsLoading@RDFXMLDataSourceImpl@@IAEHXZ ; 1946
?SetLazyState@nsXULElement@@UAGIH@Z ; 1935
??C?$nsCOMPtr@VnsIRDFCompositeDataSource@@@@QBEPAV?$nsDerivedSafe@VnsIRDFCompositeDataSource@@@@XZ ; 1930
?IndexToOrdinalResource@RDFContainerUtilsImpl@@UAGIHPAPAVnsIRDFResource@@@Z ; 1916
??4?$nsCOMPtr@VnsIRDFResource@@@@QAEAAV0@PAVnsIRDFResource@@@Z ; 1906
?Right@?$basic_nsAReadableString@G@@QBEIAAV?$basic_nsAWritableString@G@@I@Z ; 1904
??Y?$basic_nsAWritableString@G@@QAEAAV0@ABV?$basic_nsAReadableString@G@@@Z ; 1877
?GetTextForNode@nsXULContentUtils@@UAGIPAVnsIRDFNode@@AAV?$basic_nsAWritableString@G@@@Z ; 1877
?AddBroadcastListener@nsXULElement@@UAGIABV?$basic_nsAReadableString@G@@PAVnsIDOMElement@@@Z ; 1871
??0XULBroadcastListener@@QAE@ABV?$basic_nsAReadableString@G@@PAVnsIDOMElement@@@Z ; 1871
??DIterator@NodeSet@@QBEPAVReteNode@@XZ ; 1866
?assign_with_AddRef@?$nsCOMPtr@VnsIDOMNode@@@@AAEXPAVnsISupports@@@Z ; 1858
?GetFocusedElement@nsXULCommandDispatcher@@UAGIPAPAVnsIDOMElement@@@Z ; 1858
?HasAssertionN@CompositeDataSourceImpl@@QAEHHPAVnsIRDFResource@@0PAVnsIRDFNode@@H@Z ; 1857
?GetIID@?$nsCOMTypeInfo@VnsIRDFContainer@@@@SAABUnsID@@XZ ; 1851
?GetIID@nsIRDFContainer@@SAABUnsID@@XZ ; 1851
??C?$nsCOMPtr@VnsIScriptContext@@@@QBEPAV?$nsDerivedSafe@VnsIScriptContext@@@@XZ ; 1845
??4?$nsCOMPtr@VnsIDOMNode@@@@QAEAAV0@PAVnsIDOMNode@@@Z ; 1842
??_GList@nsAssignmentSet@@QAEPAXI@Z ; 1833
??1List@nsAssignmentSet@@QAE@XZ ; 1833
?ReleaseContentList@nsElementMap@@KAHPAUPLHashEntry@@HPAX@Z ; 1832
?StartAssignment@?$nsCOMPtr@VnsISupportsArray@@@@QAEPAPAVnsISupportsArray@@XZ ; 1823
??1?$nsGetterAddRefs@VnsISupportsArray@@@@QAE@XZ ; 1823
?getter_AddRefs@@YA?AV?$nsGetterAddRefs@VnsISupportsArray@@@@AAV?$nsCOMPtr@VnsISupportsArray@@@@@Z ; 1823
??B?$nsGetterAddRefs@VnsISupportsArray@@@@QAEPAPAVnsISupportsArray@@XZ ; 1823
??0?$nsGetterAddRefs@VnsISupportsArray@@@@QAE@AAV?$nsCOMPtr@VnsISupportsArray@@@@@Z ; 1823
?GetIID@nsIDOMEventListener@@SAABUnsID@@XZ ; 1821
?Init@RDFServiceImpl@@IAEIXZ ; 1821
?GetIID@?$nsCOMTypeInfo@VnsIDOMEventListener@@@@SAABUnsID@@XZ ; 1821
?UnregisterResource@RDFServiceImpl@@UAGIPAVnsIRDFResource@@@Z ; 1808
?ns_if_addref@@YAKPAVnsIURI@@@Z ; 1801
??9@YAHABV?$nsCOMPtr@VnsIDOMNode@@@@PAVNSCAP_Zero@@@Z ; 1794
?assign_from_helper@?$nsCOMPtr@VnsISupportsArray@@@@AAEXABVnsCOMPtr_helper@@ABUnsID@@@Z ; 1783
?GetIID@?$nsCOMTypeInfo@VnsISupportsArray@@@@SAABUnsID@@XZ ; 1783
??0?$nsCOMPtr@VnsISupportsArray@@@@QAE@ABVnsQueryInterface@@@Z ; 1783
?GetIID@nsISupportsArray@@SAABUnsID@@XZ ; 1783
??4?$basic_nsAWritableString@G@@QAEAAV0@PBG@Z ; 1783
??0MatchSet@@QAE@XZ ; 1778
?ClosePopup@XULPopupListenerImpl@@MAEXXZ ; 1734
?assign_from_helper@?$nsCOMPtr@VnsIRDFContainerUtils@@@@AAEXABVnsCOMPtr_helper@@ABUnsID@@@Z ; 1724
?get@?$nsCOMPtr@VnsIRDFContainerUtils@@@@QBEPAV?$nsDerivedSafe@VnsIRDFContainerUtils@@@@XZ ; 1724
?assign_assuming_AddRef@?$nsCOMPtr@VnsIRDFContainerUtils@@@@AAEXPAVnsIRDFContainerUtils@@@Z ; 1724
??1?$nsCOMPtr@VnsIRDFContainerUtils@@@@QAE@XZ ; 1724
?Equals@Value@@IBEHABV1@@Z ; 1703
?QueryInterface@nsXULTreeElement@@UAGIABUnsID@@PAPAX@Z ; 1696
?IsContainer@RDFContainerUtilsImpl@@UAGIPAVnsIRDFDataSource@@PAVnsIRDFResource@@PAH@Z ; 1693
?QueryInterface@DateImpl@@UAGIABUnsID@@PAPAX@Z ; 1686
??1AutoSentry@nsXULTemplateBuilder@@QAE@XZ ; 1676
??0AutoSentry@nsXULTemplateBuilder@@QAE@PAH@Z ; 1676
??C?$nsCOMPtr@VnsIDOMElement@@@@QBEPAV?$nsDerivedSafe@VnsIDOMElement@@@@XZ ; 1667
??2InMemoryArcsEnumeratorImpl@@SAPAXIAAVnsFixedSizeAllocator@@@Z ; 1663
??_GInMemoryArcsEnumeratorImpl@@UAEPAXI@Z ; 1663
??0InMemoryArcsEnumeratorImpl@@QAE@PAVInMemoryDataSource@@PAVnsIRDFResource@@PAVnsIRDFNode@@@Z ; 1663
??3InMemoryArcsEnumeratorImpl@@SAXPAXI@Z ; 1663
??1InMemoryArcsEnumeratorImpl@@UAE@XZ ; 1663
?SubstituteTextAppendText@nsXULTemplateBuilder@@SAXPAV1@ABV?$basic_nsAReadableString@G@@PAX@Z ; 1653
??CIterator@InstantiationSet@@QBEPAVInstantiation@@XZ ; 1651
?GetInlineStyleSheet@nsXULDocument@@UAGIPAPAVnsIHTMLCSSStyleSheet@@@Z ; 1646
?GetIID@nsIPresShell@@SAABUnsID@@XZ ; 1640
?GetIID@?$nsCOMTypeInfo@VnsIPresShell@@@@SAABUnsID@@XZ ; 1640
?Clear@MatchSet@@QAEXXZ ; 1638
??CConstIterator@MemoryElementSet@@QBEPBVMemoryElement@@XZ ; 1631
?QueryInterface@nsXULAggregateElement@@UAGIABUnsID@@PAPAX@Z ; 1630
?assign_from_helper@?$nsCOMPtr@VnsIPresShell@@@@AAEXABVnsCOMPtr_helper@@ABUnsID@@@Z ; 1628
??0?$nsCOMPtr@VnsIPresShell@@@@QAE@ABU?$already_AddRefed@VnsIPresShell@@@@@Z ; 1628
??0?$already_AddRefed@VnsIPresShell@@@@QAE@PAVnsIPresShell@@@Z ; 1628
??0?$nsCOMPtr@VnsIPresShell@@@@QAE@ABVnsQueryInterface@@@Z ; 1628
?assign_assuming_AddRef@?$nsCOMPtr@VnsIPresShell@@@@AAEXPAVnsIPresShell@@@Z ; 1628
??C?$nsCOMPtr@VnsIPresShell@@@@QBEPAV?$nsDerivedSafe@VnsIPresShell@@@@XZ ; 1628
?Assert_NoQueryNeeded@?$nsCOMPtr@VnsIPresShell@@@@QAEXXZ ; 1628
?GetIID@nsIRDFPurgeableDataSource@@SAABUnsID@@XZ ; 1627
?GetIID@?$nsCOMTypeInfo@VnsIRDFPurgeableDataSource@@@@SAABUnsID@@XZ ; 1627
??B?$nsCOMPtr@VnsIPresShell@@@@QBEPAV?$nsDerivedSafe@VnsIPresShell@@@@XZ ; 1621
?QueryInterface@RDFContainerImpl@@UAGIABUnsID@@PAPAX@Z ; 1620
?do_GetService@@YA?BVnsGetServiceByContractID@@PBDPAI@Z ; 1611
??0?$nsCOMPtr@VnsIRDFLiteral@@@@QAE@XZ ; 1608
?QueryInterface@RDFXMLDataSourceImpl@@UAGIABUnsID@@PAPAX@Z ; 1598
??C?$nsCOMPtr@VnsIURI@@@@QBEPAV?$nsDerivedSafe@VnsIURI@@@@XZ ; 1584
?CheckTemplateBuilder@nsXULDocument@@KAIPAVnsIContent@@@Z ; 1582
??B?$nsCOMPtr@VnsIRDFPurgeableDataSource@@@@QBEPAV?$nsDerivedSafe@VnsIRDFPurgeableDataSource@@@@XZ ; 1581
??C?$nsCOMPtr@VnsIRDFPurgeableDataSource@@@@QBEPAV?$nsDerivedSafe@VnsIRDFPurgeableDataSource@@@@XZ ; 1581
?get@?$nsCOMPtr@VnsIDOMCSSStyleDeclaration@@@@QBEPAV?$nsDerivedSafe@VnsIDOMCSSStyleDeclaration@@@@XZ ; 1581
_NS_NewScriptXULElement ; 1575
?Last@MemoryElementSet@@QBE?AVConstIterator@1@XZ ; 1561
??EConstIterator@MatchSet@@QAEAAV01@XZ ; 1546
?assign_from_helper@?$nsCOMPtr@VnsIIOService@@@@AAEXABVnsCOMPtr_helper@@ABUnsID@@@Z ; 1544
?get@?$nsCOMPtr@VnsIIOService@@@@QBEPAV?$nsDerivedSafe@VnsIIOService@@@@XZ ; 1544
?GetIID@nsIIOService@@SAABUnsID@@XZ ; 1544
?assign_assuming_AddRef@?$nsCOMPtr@VnsIIOService@@@@AAEXPAVnsIIOService@@@Z ; 1544
?Mark@InMemoryDataSource@@UAGIPAVnsIRDFResource@@0PAVnsIRDFNode@@HPAH@Z ; 1544
?GetIID@?$nsCOMTypeInfo@VnsIIOService@@@@SAABUnsID@@XZ ; 1544
??1?$nsCOMPtr@VnsIIOService@@@@QAE@XZ ; 1544
?AddRef@Match@@QAEHXZ ; 1540
??1?$nsCOMPtr@VnsIDOMXULTreeElement@@@@QAE@XZ ; 1537
??C?$nsCOMPtr@VnsIXBLService@@@@QBEPAV?$nsDerivedSafe@VnsIXBLService@@@@XZ ; 1510
??1MatchSet@@QAE@XZ ; 1509
??1ClusterKey@@QAE@XZ ; 1509
?AddRef@XULElementFactoryImpl@@UAGKXZ ; 1500
?Release@XULElementFactoryImpl@@UAGKXZ ; 1499
?AddEventListener@nsXULElement@@UAGIABV?$basic_nsAReadableString@G@@PAVnsIDOMEventListener@@H@Z ; 1499
??9ConstIterator@InstantiationSet@@QBEHABV01@@Z ; 1497
?QueryInterface@CompositeDataSourceImpl@@UAGIABUnsID@@PAPAX@Z ; 1497
?CutNameSpacePrefix@RDFContentSinkImpl@@IAEPAVnsIAtom@@AAVnsString@@@Z ; 1497
?Clear@NodeSet@@QAEIXZ ; 1490
?assign_assuming_AddRef@?$nsCOMPtr@VnsIRDFCompositeDataSource@@@@AAEXPAVnsIRDFCompositeDataSource@@@Z ; 1481
??0?$nsCOMPtr@VnsIDOMXULTreeElement@@@@QAE@XZ ; 1477
??4Value@@QAEAAV0@PAVnsISupports@@@Z ; 1475
?get@?$nsCOMPtr@VnsILineBreaker@@@@QBEPAV?$nsDerivedSafe@VnsILineBreaker@@@@XZ ; 1462
??CIterator@MatchSet@@QBEPAVMatch@@XZ ; 1458
?Append@?$basic_nsAWritableString@D@@QAEXD@Z ; 1455
??B?$nsCOMPtr@VnsILineBreaker@@@@QBEPAV?$nsDerivedSafe@VnsILineBreaker@@@@XZ ; 1454
?RemoveChildAt@nsXULElement@@UAGIHH@Z ; 1449
??1?$nsCOMPtr@VnsITreeBoxObject@@@@QAE@XZ ; 1449
??0?$nsCOMPtr@VnsITreeBoxObject@@@@QAE@XZ ; 1449
?GetParentNode@nsXULElement@@UAGIPAPAVnsIDOMNode@@@Z ; 1444
?GetNodeInfo@nsXULElement@@UBGIAAPAVnsINodeInfo@@@Z ; 1442
??4nsAssignmentSet@@QAEAAV0@ABV0@@Z ; 1433
??9ConstIterator@ResourceSet@@QBEHABV01@@Z ; 1412
??0?$nsCOMPtr@VnsIURI@@@@QAE@XZ ; 1412
?Last@ResourceSet@@QBE?AVConstIterator@1@XZ ; 1412
?FlushText@RDFContentSinkImpl@@IAEIHPAH@Z ; 1408
?GetIID@nsIXULPrototypeCache@@SAABUnsID@@XZ ; 1397
?GetIID@?$nsCOMTypeInfo@VnsIXULPrototypeCache@@@@SAABUnsID@@XZ ; 1397
??0?$nsCOMPtr@VnsIRDFDataSource@@@@QAE@XZ ; 1383
?GetIID@?$nsCOMTypeInfo@VnsIDOMKeyListener@@@@SAABUnsID@@XZ ; 1383
?GetIID@nsIDOMKeyListener@@SAABUnsID@@XZ ; 1383
?AddRef@nsXULPrototypeCache@@UAGKXZ ; 1372
?QueryInterface@nsXULPrototypeCache@@UAGIABUnsID@@PAPAX@Z ; 1370
?Release@nsXULPrototypeCache@@UAGKXZ ; 1369
??0?$nsCOMPtr@VnsIXBLService@@@@QAE@ABVnsCOMPtr_helper@@@Z ; 1360
?Assert_NoQueryNeeded@?$nsCOMPtr@VnsIXBLService@@@@QAEXXZ ; 1360
??0?$nsCOMPtr@VnsIXBLService@@@@QAE@ABVnsQueryInterface@@@Z ; 1360
?copy@?$nsCharTraits@G@@SAPAGPAGPBGI@Z ; 1355
?Add@NodeSet@@QAEIPAVReteNode@@@Z ; 1352
??0NodeSet@@QAE@XZ ; 1351
?First@InstantiationSet@@QAE?AVIterator@1@XZ ; 1338
?Last@InstantiationSet@@QBE?AVConstIterator@1@XZ ; 1334
?First@InstantiationSet@@QBE?AVConstIterator@1@XZ ; 1334
??2List@MatchSet@@SAPAXIAAVnsFixedSizeAllocator@@@Z ; 1333
?Add@MatchSet@@QAE?AVIterator@1@AAVnsFixedSizeAllocator@@PAVMatch@@@Z ; 1333
?Insert@MatchSet@@QAE?AVIterator@1@AAVnsFixedSizeAllocator@@V21@PAVMatch@@@Z ; 1333
?AssignFromReadable@?$basic_nsAWritableString@D@@IAEXABV?$basic_nsAReadableString@D@@@Z ; 1327
?Assign@?$basic_nsAWritableString@D@@QAEXABV?$basic_nsAReadableString@D@@@Z ; 1327
?get@?$nsCOMPtr@VnsIXULPopupListener@@@@QBEPAV?$nsDerivedSafe@VnsIXULPopupListener@@@@XZ ; 1323
??0nsIDOMEventListener@@QAE@XZ ; 1323
??EConstIterator@MemoryElementSet@@QAEAAV01@XZ ; 1316
?Contains@ResourceSet@@QBEHPAVnsIRDFResource@@@Z ; 1311
?ns_if_addref@@YAKPAVnsIRDFNode@@@Z ; 1304
??4?$nsCOMPtr@VnsITimer@@@@QAEAAV0@PAVnsITimer@@@Z ; 1300
?assign_with_AddRef@?$nsCOMPtr@VnsITimer@@@@AAEXPAVnsISupports@@@Z ; 1300
?Erase@InstantiationSet@@QAE?AVIterator@1@V21@@Z ; 1296
??4Instantiation@@QAEAAV0@ABV0@@Z ; 1296
??_GList@InstantiationSet@@QAEPAXI@Z ; 1296
??4MemoryElementSet@@QAEAAV0@ABV0@@Z ; 1296
?Insert@InstantiationSet@@QAE?AVIterator@1@V21@ABVInstantiation@@@Z ; 1296
??0CompositeEnumeratorImpl@@QAE@PAVCompositeDataSourceImpl@@HH@Z ; 1282
??2CompositeEnumeratorImpl@@SAPAXIAAVnsFixedSizeAllocator@@@Z ; 1282
??3CompositeEnumeratorImpl@@SAXPAXI@Z ; 1282
??1CompositeEnumeratorImpl@@UAE@XZ ; 1282
?assign_from_helper@?$nsCOMPtr@VnsIRDFDataSource@@@@AAEXABVnsCOMPtr_helper@@ABUnsID@@@Z ; 1277
_NS_InitXULElementClass ; 1272
_NS_NewScriptXULElement ; 1269
?getter_AddRefs@@YA?AV?$nsGetterAddRefs@VnsIURI@@@@AAV?$nsCOMPtr@VnsIURI@@@@@Z ; 1267
?StartAssignment@?$nsCOMPtr@VnsIURI@@@@QAEPAPAVnsIURI@@XZ ; 1267
??1?$nsGetterAddRefs@VnsIURI@@@@QAE@XZ ; 1267
??0?$nsGetterAddRefs@VnsIURI@@@@QAE@AAV?$nsCOMPtr@VnsIURI@@@@@Z ; 1267
?FreeTable@ClusterKeySet@@KAXPAX0@Z ; 1265
?ArcLabelsOut@InMemoryDataSource@@UAGIPAVnsIRDFResource@@PAPAVnsISimpleEnumerator@@@Z ; 1265
?AllocTable@ClusterKeySet@@KAPAXPAXI@Z ; 1265
?GetAllResources@InMemoryDataSource@@UAGIPAPAVnsISimpleEnumerator@@@Z ; 1264
?FreeEntry@InMemoryDataSource@@KAXPAXPAUPLHashEntry@@I@Z ; 1263
??0ConstIterator@ClusterKeySet@@QAE@PAVEntry@1@@Z ; 1262
?do_GetService@@YA?BVnsGetServiceByCID@@ABUnsID@@PAI@Z ; 1260
?Release@Match@@QAEHXZ ; 1250
??0nsRDFResource@@QAE@XZ ; 1248
?Init@nsRDFResource@@UAGIPBD@Z ; 1248
_NSGetModule ; 1248
?NS_NewDefaultResource@@YAIPAPAVnsIRDFResource@@@Z ; 1248
??0nsIRDFResource@@QAE@XZ ; 1248
?getter_AddRefs@@YA?BU?$already_AddRefed@VnsIPresShell@@@@PAVnsIPresShell@@@Z ; 1246
?Assert_NoQueryNeeded@?$nsCOMPtr@VnsIRDFDataSource@@@@QAEXXZ ; 1246
??0nsAssignmentSet@@QAE@ABV0@@Z ; 1241
?ComputeAssignmentFor@Rule@@QBEHAAVConflictSet@@PAVMatch@@HPAVValue@@@Z ; 1235
?FlushText@RDFContentSinkImpl@@IAEIHPAH@Z ; 1230
?QueryInterface@InMemoryArcsEnumeratorImpl@@UAGIABUnsID@@PAPAX@Z ; 1225
?GetBaseURL@nsXULDocument@@UBGIAAPAVnsIURI@@@Z ; 1224
?HasArcOut@InMemoryDataSource@@UAGIPAVnsIRDFResource@@0PAH@Z ; 1216
??8MemoryElement@@QBEHABV0@@Z ; 1214
?size_forward@?$nsWritingIterator@G@@QBEHXZ ; 1209
??B?$nsGetterAddRefs@VnsIRDFLiteral@@@@QAEPAPAVnsIRDFLiteral@@XZ ; 1208
?ns_if_addref@@YAKPAVnsIControllers@@@Z ; 1199
?GetControllers@nsXULElement@@UAGIPAPAVnsIControllers@@@Z ; 1199
?GetOwnerDocument@nsXULElement@@UAGIPAPAVnsIDOMDocument@@@Z ; 1199
??DConstIterator@InstantiationSet@@QBEABVInstantiation@@XZ ; 1176
?GetNext@CompositeEnumeratorImpl@@UAGIPAPAVnsISupports@@@Z ; 1171
??C?$nsCOMPtr@VnsIControllerCommand@@@@QBEPAV?$nsDerivedSafe@VnsIControllerCommand@@@@XZ ; 1171
??B?$nsCOMPtr@VnsIControllerCommand@@@@QBEPAV?$nsDerivedSafe@VnsIControllerCommand@@@@XZ ; 1171
?IsCommandEnabled@nsControllerCommandManager@@UAGIPBGPAVnsISupports@@PAH@Z ; 1171
??EIterator@MatchSet@@QAEAAV01@XZ ; 1161
?assign_assuming_AddRef@?$nsCOMPtr@VnsIDOMXULDocument@@@@AAEXPAVnsIDOMXULDocument@@@Z ; 1160
??1?$nsCOMPtr@VnsIDOMXULDocument@@@@QAE@XZ ; 1158
?GetIID@?$nsCOMTypeInfo@VnsIElementFactory@@@@SAABUnsID@@XZ ; 1154
?GetIID@nsIElementFactory@@SAABUnsID@@XZ ; 1154
?QueryInterface@XULElementFactoryImpl@@UAGIABUnsID@@PAPAX@Z ; 1150
??_GAssertion@@IAEPAXI@Z ; 1147
??1Assertion@@IAE@XZ ; 1147
??3Assertion@@SAXPAXI@Z ; 1147
?QueryInterface@CompositeEnumeratorImpl@@UAGIABUnsID@@PAPAX@Z ; 1134
??_GXULBroadcastListener@@QAEPAXI@Z ; 1124
??1XULBroadcastListener@@QAE@XZ ; 1124
?RemoveBroadcastListener@nsXULElement@@UAGIABV?$basic_nsAReadableString@G@@PAVnsIDOMElement@@@Z ; 1124
??0?$nsCOMPtr@VnsIRDFResource@@@@QAE@PAVnsIRDFResource@@@Z ; 1119
?Hash@nsAssignment@@QBEIXZ ; 1116
??8Value@@QBEHABV0@@Z ; 1103
??0?$nsCOMPtr@VnsIRDFDataSource@@@@QAE@ABVnsQueryInterface@@@Z ; 1099
??_ECompositeAssertionEnumeratorImpl@@UAEPAXI@Z ; 1087
??1CompositeAssertionEnumeratorImpl@@UAE@XZ ; 1087
??0CompositeAssertionEnumeratorImpl@@QAE@PAVCompositeDataSourceImpl@@PAVnsIRDFResource@@1PAVnsIRDFNode@@HHH@Z ; 1087
?assign_assuming_AddRef@?$nsCOMPtr@VnsIDOMDocument@@@@AAEXPAVnsIDOMDocument@@@Z ; 1066
??1?$nsCOMPtr@VnsIDOMDocument@@@@QAE@XZ ; 1065
?Release@nsXULTreeElement@@WM@AGKXZ ; 1062
??1NodeSet@@QAE@XZ ; 1061
?get@?$nsCOMPtr@VnsIDOMViewCSS@@@@QBEPAV?$nsDerivedSafe@VnsIDOMViewCSS@@@@XZ ; 1054
?assign_assuming_AddRef@?$nsCOMPtr@VnsIDOMCSSStyleDeclaration@@@@AAEXPAVnsIDOMCSSStyleDeclaration@@@Z ; 1054
??1?$nsCOMPtr@VnsIDOMCSSStyleDeclaration@@@@QAE@XZ ; 1054
?SetScriptObject@nsXULElement@@UAGIPAX@Z ; 1053
?AggregatedQueryInterface@InMemoryDataSource@@UAGIABUnsID@@PAPAX@Z ; 1053
?Assert@RDFXMLDataSourceImpl@@UAGIPAVnsIRDFResource@@0PAVnsIRDFNode@@H@Z ; 1051
?Release@nsXULTreeElement@@WM@AGKXZ ; 1035
?Count@nsAssignmentSet@@QBEHXZ ; 1028
?assign_from_helper@?$nsCOMPtr@VnsIDOMXULDocument@@@@AAEXABVnsCOMPtr_helper@@ABUnsID@@@Z ; 1022
?SerializeDescription@RDFXMLDataSourceImpl@@QAEIPAVnsIOutputStream@@PAVnsIRDFResource@@@Z ; 1020
?GetElementResource@nsXULContentUtils@@UAGIPAVnsIContent@@PAPAVnsIRDFResource@@@Z ; 1009
?HasNegation@CompositeAssertionEnumeratorImpl@@UAEIPAVnsIRDFDataSource@@PAVnsIRDFNode@@PAH@Z ; 1007
?AddRef@LocalStoreImpl@@UAGKXZ ; 1000
?get@?$nsCOMPtr@VnsIPref@@@@QBEPAV?$nsDerivedSafe@VnsIPref@@@@XZ ; 999
??B?$nsCOMPtr@VnsIDOMDocument@@@@QBEPAV?$nsDerivedSafe@VnsIDOMDocument@@@@XZ ; 999
?assign_from_helper@?$nsCOMPtr@VnsIDOMDocument@@@@AAEXABVnsCOMPtr_helper@@ABUnsID@@@Z ; 996
??0?$nsCOMPtr@VnsIDOMDocument@@@@QAE@ABVnsQueryInterface@@@Z ; 996
??0MemoryElement@@QAE@XZ ; 995
??0nsIURIKey@nsXULPrototypeCache@@QAE@PAVnsIURI@@@Z ; 981
??0?$nsCOMPtr@VnsIURI@@@@QAE@PAVnsIURI@@@Z ; 981
?Resolve@OverlayForwardReference@nsXULDocument@@UAE?AW4Result@nsForwardReference@@XZ ; 980
?QueryInterface@InMemoryDataSource@@UAGIABUnsID@@PAPAX@Z ; 977
?QueryInterface@Internal@InMemoryDataSource@@UAGIABUnsID@@PAPAX@Z ; 977
??0Entry@Rule@@QAE@XZ ; 976
??4?$nsCOMPtr@VnsIRDFResource@@@@QAEAAV0@ABV0@@Z ; 975
?GetElementRefResource@nsXULContentUtils@@UAGIPAVnsIContent@@PAPAVnsIRDFResource@@@Z ; 962
?GetNodeInfoManager@nsXULDocument@@UAGIAAPAVnsINodeInfoManager@@@Z ; 962
?Type@Element@RDFContainerMemberTestNode@@UBEPBDXZ ; 960
?InsertElement@nsXULDocument@@KAIPAVnsIContent@@0@Z ; 959
?get@?$nsCOMPtr@VnsIPresContext@@@@QBEPAV?$nsDerivedSafe@VnsIPresContext@@@@XZ ; 958
?Assert_NoQueryNeeded@?$nsCOMPtr@VnsIRDFCompositeDataSource@@@@QAEXXZ ; 958
?GetSelectedItems@nsXULTreeElement@@UAGIPAPAVnsIDOMNodeList@@@Z ; 953
?ns_if_addref@@YAKPAVnsRDFDOMNodeList@@@Z ; 953
??0LiteralImpl@@IAE@PBG@Z ; 952
?RegisterLiteral@RDFServiceImpl@@QAEIPAVnsIRDFLiteral@@H@Z ; 952
?Create@LiteralImpl@@SAIPBGPAPAVnsIRDFLiteral@@@Z ; 952
??0nsIRDFLiteral@@QAE@XZ ; 952
??2@YAPAXIPAX@Z ; 952
?length@?$nsCharTraits@G@@SAIPBG@Z ; 952
??C?$nsCOMPtr@VnsIDOMXULDocument@@@@QBEPAV?$nsDerivedSafe@VnsIDOMXULDocument@@@@XZ ; 948
_NS_NewScriptXULElement ; 941
?get@?$nsCOMPtr@VnsIDOMEventListener@@@@QBEPAV?$nsDerivedSafe@VnsIDOMEventListener@@@@XZ ; 939
?GetIID@?$nsCOMTypeInfo@VnsIRDFContentModelBuilder@@@@SAABUnsID@@XZ ; 939
??B?$nsCOMPtr@VnsIDOMEventListener@@@@QBEPAV?$nsDerivedSafe@VnsIDOMEventListener@@@@XZ ; 939
?GetIID@nsIRDFContentModelBuilder@@SAABUnsID@@XZ ; 939
??9ConstIterator@NodeSet@@QBEHABV01@@Z ; 938
?FindChar@?$basic_nsAReadableString@G@@QBEHGI@Z ; 938
?MakeElementResource@nsXULContentUtils@@UAGIPAVnsIDocument@@ABV?$basic_nsAReadableString@G@@PAPAVnsIRDFResource@@@Z ; 938
?MakeElementURI@nsXULContentUtils@@UAGIPAVnsIDocument@@ABV?$basic_nsAReadableString@G@@AAVnsCString@@@Z ; 938
?find@?$nsCharTraits@G@@SAPBGPBGIABG@Z ; 938
?get@?$nsCOMPtr@VnsIBoxObject@@@@QBEPAV?$nsDerivedSafe@VnsIBoxObject@@@@XZ ; 934
?GetIID@?$nsCOMTypeInfo@VnsIRDFRemoteDataSource@@@@SAABUnsID@@XZ ; 933
?GetIID@nsIRDFRemoteDataSource@@SAABUnsID@@XZ ; 933
?Release@LocalStoreImpl@@UAGKXZ ; 932
??C?$nsCOMPtr@VnsIDOMDocument@@@@QBEPAV?$nsDerivedSafe@VnsIDOMDocument@@@@XZ ; 928
?assign_assuming_AddRef@?$nsCOMPtr@VnsIPresContext@@@@AAEXPAVnsIPresContext@@@Z ; 922
??1?$nsCOMPtr@VnsIPresContext@@@@QAE@XZ ; 922
?IsXMLNSDirective@RDFContentSinkImpl@@IAEHABV?$basic_nsAReadableString@G@@PAPAVnsIAtom@@@Z ; 918
??EConstIterator@InstantiationSet@@QAEAAV01@XZ ; 917
?EndUpdate@nsXULDocument@@UAGIXZ ; 914
?BeginUpdate@nsXULDocument@@UAGIXZ ; 914
??B?$nsGetterAddRefs@VnsIURI@@@@QAEPAPAVnsIURI@@XZ ; 907
?Init@RDFContainerImpl@@UAGIPAVnsIRDFDataSource@@PAVnsIRDFResource@@@Z ; 905
?RemoveElementAt@nsXULAttributes@@QAEXH@Z ; 905
?Init@RDFContainerImpl@@AAEIXZ ; 900
?assign_assuming_AddRef@?$nsCOMPtr@VnsIRDFService@@@@AAEXPAVnsIRDFService@@@Z ; 900
??1?$nsCOMPtr@VnsIRDFService@@@@QAE@XZ ; 900
??0RDFContainerImpl@@AAE@XZ ; 900
??0nsIRDFContainer@@QAE@XZ ; 900
?NS_NewRDFContainer@@YAIPAPAVnsIRDFContainer@@@Z ; 900
??1RDFContainerImpl@@EAE@XZ ; 900
??_GRDFContainerImpl@@EAEPAXI@Z ; 900
?GetPool@ConflictSet@@QAEAAVnsFixedSizeAllocator@@XZ ; 899
?First@MemoryElementSet@@QBE?AVConstIterator@1@XZ ; 899
?get@?$nsCOMPtr@VnsIRDFContainer@@@@QBEPAV?$nsDerivedSafe@VnsIRDFContainer@@@@XZ ; 894
?AddForwardReference@nsXULDocument@@UAGIPAVnsForwardReference@@@Z ; 894
??0nsForwardReference@@IAE@XZ ; 894
??1nsForwardReference@@UAE@XZ ; 894
??1nsIURIKey@nsXULPrototypeCache@@UAE@XZ ; 892
?HashCode@nsIURIKey@nsXULPrototypeCache@@UBEIXZ ; 892
??0?$nsCOMPtr@VnsITimer@@@@QAE@XZ ; 888
??1?$nsCOMPtr@VnsIXULPopupListener@@@@QAE@XZ ; 882
?assign_assuming_AddRef@?$nsCOMPtr@VnsIXULPopupListener@@@@AAEXPAVnsIXULPopupListener@@@Z ; 882
?AddAssignment@Instantiation@@QAEIHABVValue@@@Z ; 881
?get@?$nsCOMPtr@VnsIXULDocument@@@@QBEPAV?$nsDerivedSafe@VnsIXULDocument@@@@XZ ; 879
?Left@?$basic_nsAReadableString@G@@QBEIAAV?$basic_nsAWritableString@G@@I@Z ; 875
??0nsPoint@@QAE@XZ ; 874
?GetPhase@BroadcasterHookup@nsXULDocument@@UAE?AW4Phase@nsForwardReference@@XZ ; 872
?GetTargets@CompositeDataSourceImpl@@UAGIPAVnsIRDFResource@@0HPAPAVnsISimpleEnumerator@@@Z ; 870
?CreateElement@nsXULTemplateBuilder@@QAEIHPAVnsIAtom@@PAPAVnsIContent@@@Z ; 868
??3List@MatchSet@@SAXPAXI@Z ; 864
?Erase@MatchSet@@QAE?AVIterator@1@V21@@Z ; 864
??C?$nsCOMPtr@VnsIRDFContainerUtils@@@@QBEPAV?$nsDerivedSafe@VnsIRDFContainerUtils@@@@XZ ; 862
??0?$nsCOMPtr@VnsIRDFContainerUtils@@@@QAE@ABVnsQueryInterface@@@Z ; 862
??0?$nsCOMPtr@VnsIRDFContainerUtils@@@@QAE@ABVnsCOMPtr_helper@@@Z ; 862
?GetNext@ContainerEnumeratorImpl@@UAGIPAPAVnsISupports@@@Z ; 862
?Assert_NoQueryNeeded@?$nsCOMPtr@VnsIRDFContainerUtils@@@@QAEXXZ ; 862
?ContentStatesChanged@nsXULDocument@@UAGIPAVnsIContent@@0@Z ; 860
??C?$nsCOMPtr@VnsIRDFNode@@@@QBEPAV?$nsDerivedSafe@VnsIRDFNode@@@@XZ ; 848
??B?$nsGetterAddRefs@VnsIRDFLiteral@@@@QAEPAPAXXZ ; 848
?Type@Element@ContentTestNode@nsXULTemplateBuilder@@UBEPBDXZ ; 842
?GetTargets@LocalStoreImpl@@UAGIPAVnsIRDFResource@@0HPAPAVnsISimpleEnumerator@@@Z ; 840
??EIterator@MatchSet@@QAE?AV01@H@Z ; 840
?SetForwardArcs@InMemoryDataSource@@QAEXPAVnsIRDFResource@@PAVAssertion@@@Z ; 839
??9ConstIterator@ClusterKeySet@@QBEHABV01@@Z ; 833
??1Entry@ClusterKeySet@@QAE@XZ ; 833
??0ClusterKey@@QAE@XZ ; 833
?Append@InstantiationSet@@QAE?AVIterator@1@ABVInstantiation@@@Z ; 832
?assign_from_helper@?$nsCOMPtr@VnsIRDFPurgeableDataSource@@@@AAEXABVnsCOMPtr_helper@@ABUnsID@@@Z ; 809
??0?$nsCOMPtr@VnsIRDFPurgeableDataSource@@@@QAE@ABVnsQueryInterface@@@Z ; 809
??1?$nsCOMPtr@VnsIRDFPurgeableDataSource@@@@QAE@XZ ; 809
?assign_assuming_AddRef@?$nsCOMPtr@VnsIRDFPurgeableDataSource@@@@AAEXPAVnsIRDFPurgeableDataSource@@@Z ; 809
?fragment@?$nsReadingIterator@G@@QBEABU?$nsReadableFragment@G@@XZ ; 806
?advance@?$nsWritingIterator@G@@QAEAAV1@H@Z ; 806
?normalize_forward@?$nsWritingIterator@G@@QAEXXZ ; 806
?HasArcOut@RDFXMLDataSourceImpl@@UAGIPAVnsIRDFResource@@0PAH@Z ; 800
?HasAssertion@FileSystemDataSource@@UAGIPAVnsIRDFResource@@0PAVnsIRDFNode@@HPAH@Z ; 797
?ParseAttributeString@RDFContentSinkImpl@@IAEIABV?$basic_nsAReadableString@G@@PAPBDPAPAVnsIAtom@@@Z ; 793
??DConstIterator@ResourceSet@@QBEPAVnsIRDFResource@@XZ ; 788
??0?$nsCOMPtr@VnsIRDFNode@@@@QAE@PAVnsIRDFNode@@@Z ; 783
??0?$nsCOMPtr@VnsIIOService@@@@QAE@ABVnsQueryInterface@@@Z ; 772
?do_GetIOService@@YA?BVnsGetServiceByCID@@PAI@Z ; 772
??0?$nsCOMPtr@VnsIIOService@@@@QAE@XZ ; 772
??4?$nsCOMPtr@VnsIIOService@@@@QAEAAV0@ABVnsCOMPtr_helper@@@Z ; 772
?Assert_NoQueryNeeded@?$nsCOMPtr@VnsIIOService@@@@QAEXXZ ; 772
?Mark@Assertion@@QAEXXZ ; 772
?SynchronizeAll@nsXULTemplateBuilder@@QAEIPAVnsIRDFResource@@0PAVnsIRDFNode@@1@Z ; 762
?Log@nsXULTemplateBuilder@@QAEIPBDPAVnsIRDFResource@@1PAVnsIRDFNode@@@Z ; 762
??B?$nsCOMPtr@VnsIBoxObject@@@@QBEPAV?$nsDerivedSafe@VnsIBoxObject@@@@XZ ; 762
?GetMatchesWithBindingDependency@ConflictSet@@QAEXPAVnsIRDFResource@@PAPBVMatchSet@@@Z ; 762
?LockedUnassert@InMemoryDataSource@@IAEIPAVnsIRDFResource@@0PAVnsIRDFNode@@@Z ; 760
??1Entry@Rule@@QAE@XZ ; 756
?GetNameSpaceURI@RDFContentSinkImpl@@IAEIPAVnsIAtom@@PAPBD@Z ; 755
?Empty@InstantiationSet@@QBEHXZ ; 754
??8ConstIterator@InstantiationSet@@QBEHABV01@@Z ; 754
??B?$nsCOMPtr@VnsIDOMXULDocument@@@@QBEPAV?$nsDerivedSafe@VnsIDOMXULDocument@@@@XZ ; 750
?Hash@ClusterKey@@QBEIXZ ; 744
?GetIID@nsIRDFXMLSink@@SAABUnsID@@XZ ; 736
?GetIID@?$nsCOMTypeInfo@VnsIRDFXMLSink@@@@SAABUnsID@@XZ ; 736
?GetLineBreaker@nsXULDocument@@UAGIPAPAVnsILineBreaker@@@Z ; 727
??0?$nsCOMPtr@VnsIDOMXULDocument@@@@QAE@ABVnsQueryInterface@@@Z ; 727
?ns_if_addref@@YAKPAVnsILineBreaker@@@Z ; 727
??0MemoryElementSet@@QAE@ABV0@@Z ; 723
??0Instantiation@@QAE@ABV0@@Z ; 723
?NS_MakeAbsoluteURI@@YAIPAPADPBDPAVnsIURI@@PAVnsIIOService@@@Z ; 720
??DConstIterator@MemoryElementSet@@QBEABVMemoryElement@@XZ ; 714
??1OverlayForwardReference@nsXULDocument@@UAE@XZ ; 708
??_GOverlayForwardReference@nsXULDocument@@UAEPAXI@Z ; 708
??0OverlayForwardReference@nsXULDocument@@QAE@PAV1@PAVnsIContent@@@Z ; 708
?CreateOverlayElement@nsXULDocument@@IAEIPAVnsXULPrototypeElement@@PAPAVnsIContent@@@Z ; 708
?Append@?$basic_nsAWritableString@D@@QAEXPBD@Z ; 708
?isFileURI@FileSystemDataSource@@SAHPAVnsIRDFResource@@@Z ; 705
??1MemoryElement@@UAE@XZ ; 705
?OpenContainer@RDFContentSinkImpl@@UAGIABVnsIParserNode@@@Z ; 704
?ParseTagString@RDFContentSinkImpl@@IAEIABV?$basic_nsAReadableString@G@@PAPBDPAPAVnsIAtom@@@Z ; 704
?CloseContainer@RDFContentSinkImpl@@UAGIABVnsIParserNode@@@Z ; 704
?PushContext@RDFContentSinkImpl@@IAEHPAVnsIRDFResource@@W4RDFContentSinkState@@@Z ; 704
?PopNameSpaces@RDFContentSinkImpl@@IAEIXZ ; 704
?PopContext@RDFContentSinkImpl@@IAEIAAPAVnsIRDFResource@@AAW4RDFContentSinkState@@@Z ; 704
?PushNameSpacesFrom@RDFContentSinkImpl@@IAEIABVnsIParserNode@@@Z ; 704
?First@ResourceSet@@QBE?AVConstIterator@1@XZ ; 694
?assign_from_helper@?$nsCOMPtr@VnsIRDFService@@@@AAEXABVnsCOMPtr_helper@@ABUnsID@@@Z ; 691
??9@YAHABV?$nsCOMPtr@VnsIRDFNode@@@@PAVNSCAP_Zero@@@Z ; 690
?GetResource@nsXULElement@@UAGIPAPAVnsIRDFResource@@@Z ; 685
?GetContextElement@RDFContentSinkImpl@@IAEPAVnsIRDFResource@@H@Z ; 684
?OnAssert@CompositeDataSourceImpl@@UAGIPAVnsIRDFDataSource@@PAVnsIRDFResource@@1PAVnsIRDFNode@@@Z ; 681
??0?$nsCOMPtr@VnsIRDFCompositeDataSource@@@@QAE@ABVnsQueryInterface@@@Z ; 677
?assign_from_helper@?$nsCOMPtr@VnsIRDFCompositeDataSource@@@@AAEXABVnsCOMPtr_helper@@ABUnsID@@@Z ; 677
?get@?$nsCOMPtr@VnsIDOMNSUIEvent@@@@QBEPAV?$nsDerivedSafe@VnsIDOMNSUIEvent@@@@XZ ; 676
??EIterator@InstantiationSet@@QAE?AV01@H@Z ; 672
?NS_NewURI@@YAIPAPAVnsIURI@@PBDPAV1@PAVnsIIOService@@@Z ; 671
?QueryInterface@LocalStoreImpl@@UAGIABUnsID@@PAPAX@Z ; 670
??CConstIterator@MatchSet@@QBEPBVMatch@@XZ ; 670
?AddRef@nsXULPrototypeDocument@@UAGKXZ ; 669
??0ReteNode@@QAE@XZ ; 666
?get@?$nsCOMPtr@VnsIParser@@@@QBEPAV?$nsDerivedSafe@VnsIParser@@@@XZ ; 665
?Clear@InstantiationSet@@QAEXXZ ; 662
??1InstantiationSet@@QAE@XZ ; 662
??1nsRDFResource@@UAE@XZ ; 659
??_GnsRDFResource@@UAEPAXI@Z ; 659
?Truncate@?$basic_nsAWritableString@D@@QAEXI@Z ; 657
??8@YAHABV?$nsCOMPtr@VnsIRDFResource@@@@0@Z ; 653
?GetPrototype@nsXULPrototypeCache@@UAGIPAVnsIURI@@PAPAVnsIXULPrototypeDocument@@@Z ; 651
?assign_with_AddRef@?$nsCOMPtr@VnsIRDFCompositeDataSource@@@@AAEXPAVnsISupports@@@Z ; 646
??4?$nsCOMPtr@VnsIRDFCompositeDataSource@@@@QAEAAV0@PAVnsIRDFCompositeDataSource@@@Z ; 644
?Unmark@Assertion@@QAEXXZ ; 642
?IsMarked@Assertion@@QAEHXZ ; 642
??1?$nsCOMPtr@VnsIRDFContainer@@@@QAE@XZ ; 641
?Add@MemoryElementSet@@QAEIPAVMemoryElement@@@Z ; 640
?AddSupportingElement@Instantiation@@QAEIPAVMemoryElement@@@Z ; 640
?CanPropogate@RDFContainerMemberTestNode@@UBEHPAVnsIRDFResource@@0PAVnsIRDFNode@@AAVInstantiation@@@Z ; 639
?GetMemberVariable@Rule@@QBEHXZ ; 634
?get@?$nsCOMPtr@VnsIRDFXMLSink@@@@QBEPAV?$nsDerivedSafe@VnsIRDFXMLSink@@@@XZ ; 634
?Merge@OverlayForwardReference@nsXULDocument@@IAEIPAVnsIContent@@0@Z ; 634
??1ClusterKeySet@@QAE@XZ ; 631
?First@ClusterKeySet@@QBE?AVConstIterator@1@XZ ; 631
??0Entry@ClusterKeySet@@QAE@XZ ; 631
??0ClusterKeySet@@QAE@XZ ; 631
?Last@ClusterKeySet@@QBE?AVConstIterator@1@XZ ; 631
??0?$nsCOMPtr@VnsIXULDocument@@@@QAE@ABVnsQueryInterface@@@Z ; 628
?assign_assuming_AddRef@?$nsCOMPtr@VnsIXULDocument@@@@AAEXPAVnsIXULDocument@@@Z ; 628
?assign_from_helper@?$nsCOMPtr@VnsIXULDocument@@@@AAEXABVnsCOMPtr_helper@@ABUnsID@@@Z ; 628
?get@?$nsCOMPtr@VnsIRDFService@@@@QBEPAV?$nsDerivedSafe@VnsIRDFService@@@@XZ ; 626
?get@?$nsCOMPtr@VnsIRDFContentModelBuilder@@@@QBEPAV?$nsDerivedSafe@VnsIRDFContentModelBuilder@@@@XZ ; 624
??FIterator@InstantiationSet@@QAE?AV01@H@Z ; 624
?CreateVariable@nsRuleNetwork@@QAEIPAH@Z ; 608
?GetContainerVariable@Rule@@QBEHXZ ; 607
??9Value@@QBEHABV0@@Z ; 600
?AddRef@ContainerEnumeratorImpl@@UAGKXZ ; 596
?Release@ContainerEnumeratorImpl@@UAGKXZ ; 596
_NSGetModule ; 594
??0List@MemoryElementSet@@QAE@XZ ; 588
?NS_NewURI@@YAIPAPAVnsIURI@@ABV?$basic_nsAReadableString@G@@PAV1@PAVnsIIOService@@@Z ; 586
?Release@nsXULPrototypeDocument@@UAGKXZ ; 582
?GetCachedTarget@XULSortServiceImpl@@CAIPAU_sortStruct@@HPAVnsIRDFResource@@1HPAPAVnsIRDFNode@@@Z ; 582
?NS_MakeAbsoluteURI@@YAIAAV?$basic_nsAWritableString@G@@ABV?$basic_nsAReadableString@G@@PAVnsIURI@@PAVnsIIOService@@@Z ; 580
?assign_with_AddRef@?$nsCOMPtr@VnsIRDFDataSource@@@@AAEXPAVnsISupports@@@Z ; 575
?BuildContentFromTemplate@nsXULTemplateBuilder@@QAEIPAVnsIContent@@00HPAVnsIRDFResource@@HPAVMatch@@PAPAV2@PAH@Z ; 575
??EConstIterator@NodeSet@@QAEAAV01@XZ ; 568
?assign_assuming_AddRef@?$nsCOMPtr@VnsIBoxObject@@@@AAEXPAVnsIBoxObject@@@Z ; 564
??1?$nsCOMPtr@VnsIBoxObject@@@@QAE@XZ ; 563
?RebuildContainer@nsXULTemplateBuilder@@UAGIPAVnsIContent@@@Z ; 558
??C?$nsCOMPtr@VnsIXULDocument@@@@QBEPAV?$nsDerivedSafe@VnsIXULDocument@@@@XZ ; 549
?dont_QueryInterface@@YAPAVnsIDOMNode@@PAV1@@Z ; 549
??1?$nsCOMPtr@VnsIPrincipal@@@@QAE@XZ ; 547
?GetSources@InMemoryDataSource@@UAGIPAVnsIRDFResource@@PAVnsIRDFNode@@HPAPAVnsISimpleEnumerator@@@Z ; 546
?assign_assuming_AddRef@?$nsCOMPtr@VnsIPrincipal@@@@AAEXPAVnsIPrincipal@@@Z ; 546
?CanPropogate@RDFPropertyTestNode@@UBEHPAVnsIRDFResource@@0PAVnsIRDFNode@@AAVInstantiation@@@Z ; 544
??0ClusterKey@@QAE@ABVInstantiation@@PBVRule@@@Z ; 542
?GetIID@?$nsCOMTypeInfo@VnsIXULPrototypeDocument@@@@SAABUnsID@@XZ ; 541
?GetIID@nsIXULPrototypeDocument@@SAABUnsID@@XZ ; 541
?Equals@Element@ContentTestNode@nsXULTemplateBuilder@@UBEHABVMemoryElement@@@Z ; 540
?AddProperties@RDFContentSinkImpl@@IAEIABVnsIParserNode@@PAVnsIRDFResource@@PAH@Z ; 537
?FireNewlyMatchedRules@nsXULTemplateBuilder@@QAEIABVClusterKeySet@@@Z ; 535
?Propogate@nsXULTemplateBuilder@@QAEIPAVnsIRDFResource@@0PAVnsIRDFNode@@AAVClusterKeySet@@@Z ; 535
??CIterator@NodeSet@@QBEPAVReteNode@@XZ ; 528
?GetIID@nsIDOMCSSStyleDeclaration@@SAABUnsID@@XZ ; 527
?Assert_NoQueryNeeded@?$nsCOMPtr@VnsIDOMCSSStyleDeclaration@@@@QAEXXZ ; 527
?getter_AddRefs@@YA?AV?$nsGetterAddRefs@VnsIDOMCSSStyleDeclaration@@@@AAV?$nsCOMPtr@VnsIDOMCSSStyleDeclaration@@@@@Z ; 527
?assign_assuming_AddRef@?$nsCOMPtr@VnsIDOMViewCSS@@@@AAEXPAVnsIDOMViewCSS@@@Z ; 527
?GetIID@?$nsCOMTypeInfo@VnsIDOMViewCSS@@@@SAABUnsID@@XZ ; 527
??0?$nsCOMPtr@VnsIDOMCSSStyleDeclaration@@@@QAE@XZ ; 527
??B?$nsCOMPtr@VnsIDOMCSSStyleDeclaration@@@@QBEPAV?$nsDerivedSafe@VnsIDOMCSSStyleDeclaration@@@@XZ ; 527
??1?$nsCOMPtr@VnsIDOMViewCSS@@@@QAE@XZ ; 527
??C?$nsCOMPtr@VnsIDOMCSSStyleDeclaration@@@@QBEPAV?$nsDerivedSafe@VnsIDOMCSSStyleDeclaration@@@@XZ ; 527
??0?$nsCOMPtr@VnsIDOMCSSStyleDeclaration@@@@QAE@ABVnsQueryInterface@@@Z ; 527
??1?$nsGetterAddRefs@VnsIDOMCSSStyleDeclaration@@@@QAE@XZ ; 527
??B?$nsCOMPtr@VnsIDOMViewCSS@@@@QBEPAV?$nsDerivedSafe@VnsIDOMViewCSS@@@@XZ ; 527
?assign_from_helper@?$nsCOMPtr@VnsIDOMCSSStyleDeclaration@@@@AAEXABVnsCOMPtr_helper@@ABUnsID@@@Z ; 527
??B?$nsGetterAddRefs@VnsIDOMCSSStyleDeclaration@@@@QAEPAPAVnsIDOMCSSStyleDeclaration@@XZ ; 527
??C?$nsCOMPtr@VnsIDOMViewCSS@@@@QBEPAV?$nsDerivedSafe@VnsIDOMViewCSS@@@@XZ ; 527
?GetIID@?$nsCOMTypeInfo@VnsIDOMCSSStyleDeclaration@@@@SAABUnsID@@XZ ; 527
??0?$nsGetterAddRefs@VnsIDOMCSSStyleDeclaration@@@@QAE@AAV?$nsCOMPtr@VnsIDOMCSSStyleDeclaration@@@@@Z ; 527
?GetIID@nsIDOMViewCSS@@SAABUnsID@@XZ ; 527
?assign_from_helper@?$nsCOMPtr@VnsIDOMViewCSS@@@@AAEXABVnsCOMPtr_helper@@ABUnsID@@@Z ; 527
?StartAssignment@?$nsCOMPtr@VnsIDOMCSSStyleDeclaration@@@@QAEPAPAVnsIDOMCSSStyleDeclaration@@XZ ; 527
??0?$nsCOMPtr@VnsIDOMViewCSS@@@@QAE@ABVnsQueryInterface@@@Z ; 527
??1LiteralImpl@@MAE@XZ ; 524
??_ELiteralImpl@@MAEPAXI@Z ; 524
?UnregisterLiteral@RDFServiceImpl@@QAEIPAVnsIRDFLiteral@@@Z ; 524
??9?$basic_nsAReadableString@G@@QBEHABV0@@Z ; 521
?SerializeMember@RDFXMLDataSourceImpl@@QAEIPAVnsIOutputStream@@PAVnsIRDFResource@@PAVnsIRDFNode@@@Z ; 520
?RegisterCommand@nsControllerCommandManager@@UAGIPBGPAVnsIControllerCommand@@@Z ; 512
?GetIID@nsILocalStore@@SAABUnsID@@XZ ; 511
??4?$nsCOMPtr@VnsIRDFDataSource@@@@QAEAAV0@PAVnsIRDFDataSource@@@Z ; 511
?GetIID@?$nsCOMTypeInfo@VnsILocalStore@@@@SAABUnsID@@XZ ; 511
?AddChild@InnerNode@@QAEIPAVReteNode@@@Z ; 510
?HasArcOut@CompositeDataSourceImpl@@UAGIPAVnsIRDFResource@@0PAH@Z ; 510
?AddNode@nsRuleNetwork@@QAEIPAVReteNode@@@Z ; 510
?GetIID@nsIBoxObject@@SAABUnsID@@XZ ; 509
??4?$nsCOMPtr@VnsIContent@@@@QAEAAV0@PAVnsIContent@@@Z ; 509
?Unassert@InMemoryDataSource@@UAGIPAVnsIRDFResource@@0PAVnsIRDFNode@@@Z ; 509
??_GnsAssignment@@QAEPAXI@Z ; 509
?HasAssignment@nsAssignmentSet@@QBEHABVnsAssignment@@@Z ; 509
?GetIID@?$nsCOMTypeInfo@VnsIBoxObject@@@@SAABUnsID@@XZ ; 509
??0nsAssignment@@QAE@ABV0@@Z ; 509
?HasAssignment@nsAssignmentSet@@QBEHHABVValue@@@Z ; 509
??DConstIterator@nsAssignmentSet@@QBEABVnsAssignment@@XZ ; 509
??0InnerNode@@QAE@XZ ; 504
?Type@Element@RDFPropertyTestNode@@UBEPBDXZ ; 504
??0Element@RDFContainerMemberTestNode@@QAE@PAVnsIRDFResource@@PAVnsIRDFNode@@@Z ; 503
?assign_assuming_AddRef@?$nsCOMPtr@VnsIPref@@@@AAEXPAVnsIPref@@@Z ; 500
??C?$nsCOMPtr@VnsIPref@@@@QBEPAV?$nsDerivedSafe@VnsIPref@@@@XZ ; 500
?GetIID@?$nsCOMTypeInfo@VnsIPref@@@@SAABUnsID@@XZ ; 500
?CompareMemoryElements@ConflictSet@@KAHPBX0@Z ; 500
?assign_from_helper@?$nsCOMPtr@VnsIPref@@@@AAEXABVnsCOMPtr_helper@@ABUnsID@@@Z ; 500
?GetIID@nsIPref@@SAABUnsID@@XZ ; 500
??1?$nsCOMPtr@VnsIPref@@@@QAE@XZ ; 500
??DConstIterator@NodeSet@@QBEPBVReteNode@@XZ ; 499
?HasArcOut@LocalStoreImpl@@UAGIPAVnsIRDFResource@@0PAH@Z ; 498
?HashPointer@ContentSupportMap@@KAIPBX@Z ; 491
?Propogate@TestNode@@UAEIABVInstantiationSet@@PAX@Z ; 488
??0InstantiationSet@@QAE@ABV0@@Z ; 488
??EConstIterator@ResourceSet@@QAE?AV01@H@Z ; 486
?GetIID@?$nsCOMTypeInfo@VnsIXULTemplateBuilder@@@@SAABUnsID@@XZ ; 473
?GetIID@nsIXULTemplateBuilder@@SAABUnsID@@XZ ; 473
?get@?$nsCOMPtr@VnsILoadGroup@@@@QBEPAV?$nsDerivedSafe@VnsILoadGroup@@@@XZ ; 472
?GetLazyState@nsXULElement@@UAGIHAAH@Z ; 472
?QueryInterface@nsXULTemplateBuilder@@UAGIABUnsID@@PAPAX@Z ; 472
??2Element@RDFContainerMemberTestNode@@SAPAXIAAVnsFixedSizeAllocator@@@Z ; 471
?OnAssert@nsXULTemplateBuilder@@UAGIPAVnsIRDFDataSource@@PAVnsIRDFResource@@1PAVnsIRDFNode@@@Z ; 464
??DIterator@InstantiationSet@@QBEAAVInstantiation@@XZ ; 464
?assign_assuming_AddRef@?$nsCOMPtr@VnsIRDFContainer@@@@AAEXPAVnsIRDFContainer@@@Z ; 462
??C?$nsCOMPtr@VnsIRDFContainer@@@@QBEPAV?$nsDerivedSafe@VnsIRDFContainer@@@@XZ ; 462
?GetIID@nsIPresContext@@SAABUnsID@@XZ ; 461
??0?$nsCOMPtr@VnsIPresContext@@@@QAE@ABVnsQueryInterface@@@Z ; 461
??0?$nsGetterAddRefs@VnsIPresContext@@@@QAE@AAV?$nsCOMPtr@VnsIPresContext@@@@@Z ; 461
?StartAssignment@?$nsCOMPtr@VnsIPresContext@@@@QAEPAPAVnsIPresContext@@XZ ; 461
?GetIID@?$nsCOMTypeInfo@VnsIPresContext@@@@SAABUnsID@@XZ ; 461
??0?$nsCOMPtr@VnsIPresContext@@@@QAE@XZ ; 461
??B?$nsCOMPtr@VnsIPresContext@@@@QBEPAV?$nsDerivedSafe@VnsIPresContext@@@@XZ ; 461
?assign_from_helper@?$nsCOMPtr@VnsIPresContext@@@@AAEXABVnsCOMPtr_helper@@ABUnsID@@@Z ; 461
?Assert_NoQueryNeeded@?$nsCOMPtr@VnsIPresContext@@@@QAEXXZ ; 461
??1?$nsGetterAddRefs@VnsIPresContext@@@@QAE@XZ ; 461
??B?$nsGetterAddRefs@VnsIPresContext@@@@QAEPAPAVnsIPresContext@@XZ ; 461
?getter_AddRefs@@YA?AV?$nsGetterAddRefs@VnsIPresContext@@@@AAV?$nsCOMPtr@VnsIPresContext@@@@@Z ; 461
??C?$nsCOMPtr@VnsIRDFResource@@@@QBEPAV?$nsDerivedSafe@VnsIRDFResource@@@@XZ ; 459
?CreateInstanceByTag@XULElementFactoryImpl@@UAGIPAVnsINodeInfo@@PAPAVnsIContent@@@Z ; 454
?assign_with_AddRef@?$nsCOMPtr@VnsIRDFNode@@@@AAEXPAVnsISupports@@@Z ; 454
?GetEnumerator@CompositeArcsInOutEnumeratorImpl@@UAEIPAVnsIRDFDataSource@@PAPAVnsISimpleEnumerator@@@Z ; 450
??0?$nsCOMPtr@VnsIRDFService@@@@QAE@ABVnsQueryInterface@@@Z ; 450
?Assert_NoQueryNeeded@?$nsCOMPtr@VnsIRDFService@@@@QAEXXZ ; 450
?RemoveSubtreeFromDocument@nsXULDocument@@IAEIPAVnsIContent@@@Z ; 449
?RemoveElementFromMap@nsXULDocument@@IAEIPAVnsIContent@@@Z ; 449
??1?$nsCOMPtr@VnsILoadGroup@@@@QAE@XZ ; 448
?AppendElement@RDFContainerImpl@@UAGIPAVnsIRDFNode@@@Z ; 448
?GetNextValue@RDFContainerImpl@@AAEIPAPAVnsIRDFResource@@@Z ; 448
?assign_assuming_AddRef@?$nsCOMPtr@VnsILoadGroup@@@@AAEXPAVnsILoadGroup@@@Z ; 448
?AddRef@nsXULPDGlobalObject@@UAGKXZ ; 447
?GetIdAboutAttribute@RDFContentSinkImpl@@IAEIABVnsIParserNode@@PAPAVnsIRDFResource@@PAH@Z ; 445
?Equals@Element@RDFContainerMemberTestNode@@UBEHABVMemoryElement@@@Z ; 444
??1ReteNode@@UAE@XZ ; 442
??0?$nsCOMPtr@VnsIDOMEventListener@@@@QAE@ABVnsQueryInterface@@@Z ; 441
??0nsIDOMKeyListener@@QAE@XZ ; 441
?StartAssignment@?$nsCOMPtr@VnsIXULPopupListener@@@@QAEPAPAVnsIXULPopupListener@@XZ ; 441
??1?$nsGetterAddRefs@VnsIXULPopupListener@@@@QAE@XZ ; 441
??0?$nsCOMPtr@VnsIXULPopupListener@@@@QAE@XZ ; 441
?AddPopupListener@nsXULElement@@IAEIPAVnsIAtom@@@Z ; 441
??C?$nsCOMPtr@VnsIXULPopupListener@@@@QBEPAV?$nsDerivedSafe@VnsIXULPopupListener@@@@XZ ; 441
?assign_from_helper@?$nsCOMPtr@VnsIXULPopupListener@@@@AAEXABVnsCOMPtr_helper@@ABUnsID@@@Z ; 441
?assign_assuming_AddRef@?$nsCOMPtr@VnsIDOMEventListener@@@@AAEXPAVnsIDOMEventListener@@@Z ; 441
?NS_NewXULPopupListener@@YAIPAPAVnsIXULPopupListener@@@Z ; 441
?Assert_NoQueryNeeded@?$nsCOMPtr@VnsIXULPopupListener@@@@QAEXXZ ; 441
_NSGetModule ; 441
??B?$nsGetterAddRefs@VnsIXULPopupListener@@@@QAEPAPAXXZ ; 441
??1?$nsCOMPtr@VnsIDOMEventListener@@@@QAE@XZ ; 441
??0nsIDOMMouseListener@@QAE@XZ ; 441
??B?$nsCOMPtr@VnsIXULPopupListener@@@@QBEPAV?$nsDerivedSafe@VnsIXULPopupListener@@@@XZ ; 441
??0XULPopupListenerImpl@@QAE@XZ ; 441
??0nsIDOMMouseMotionListener@@QAE@XZ ; 441
??0?$nsGetterAddRefs@VnsIXULPopupListener@@@@QAE@AAV?$nsCOMPtr@VnsIXULPopupListener@@@@@Z ; 441
?Init@XULPopupListenerImpl@@UAGIPAVnsIDOMElement@@ABW4XULPopupType@@@Z ; 441
??0?$nsCOMPtr@VnsIXULPopupListener@@@@QAE@ABVnsQueryInterface@@@Z ; 441
?getter_AddRefs@@YA?AV?$nsGetterAddRefs@VnsIXULPopupListener@@@@AAV?$nsCOMPtr@VnsIXULPopupListener@@@@@Z ; 441
??0nsIXULPopupListener@@QAE@XZ ; 441
?assign_from_helper@?$nsCOMPtr@VnsIDOMEventListener@@@@AAEXABVnsCOMPtr_helper@@ABUnsID@@@Z ; 441
??0nsEvent@@QAE@XZ ; 437
?GetIID@nsILoadGroup@@SAABUnsID@@XZ ; 436
??C?$nsCOMPtr@VnsIParser@@@@QBEPAV?$nsDerivedSafe@VnsIParser@@@@XZ ; 436
?assign_from_helper@?$nsCOMPtr@VnsILoadGroup@@@@AAEXABVnsCOMPtr_helper@@ABUnsID@@@Z ; 436
?GetIID@?$nsCOMTypeInfo@VnsILoadGroup@@@@SAABUnsID@@XZ ; 436
??0?$nsCOMPtr@VnsIDOMXULDocument@@@@QAE@XZ ; 433
?GetResourceAttribute@RDFContentSinkImpl@@IAEIABVnsIParserNode@@PAPAVnsIRDFResource@@@Z ; 431
?assign_from_helper@?$nsCOMPtr@VnsIBoxObject@@@@AAEXABVnsCOMPtr_helper@@ABUnsID@@@Z ; 428
?Release@nsXULPDGlobalObject@@UAGKXZ ; 419
??0?$nsCOMPtr@VnsIURI@@@@QAE@ABU?$already_AddRefed@VnsIURI@@@@@Z ; 418
??0?$already_AddRefed@VnsIURI@@@@QAE@PAVnsIURI@@@Z ; 418
??0ResourceSet@@QAE@XZ ; 415
?CreateTemplateAndContainerContents@nsXULTemplateBuilder@@QAEIPAVnsIContent@@PAPAV2@PAH@Z ; 414
?rdf_MakeAbsoluteURI@@YAIABVnsString@@AAV1@@Z ; 414
??1List@MemoryElementSet@@QAE@XZ ; 411
??_GList@MemoryElementSet@@QAEPAXI@Z ; 411
??0?$nsCOMPtr@VnsIRDFContainer@@@@QAE@XZ ; 410
??0?$nsCOMPtr@VnsIRDFDataSource@@@@QAE@PAVnsIRDFDataSource@@@Z ; 407
??8@YAHABV?$nsCOMPtr@VnsIDOMXULDocument@@@@PAVNSCAP_Zero@@@Z ; 406
?SetPopupNode@nsXULDocument@@UAGIPAVnsIDOMNode@@@Z ; 405
?BeginWriting@?$basic_nsAWritableString@G@@QAEAAV?$nsWritingIterator@G@@AAV2@@Z ; 403
?read@?$nsCharSourceTraits@V?$nsReadingIterator@G@@@@SAPBGABV?$nsReadingIterator@G@@@Z ; 403
??0?$nsWritableFragment@G@@QAE@XZ ; 403
?copy_string@@YAAAV?$nsWritingIterator@G@@AAV?$nsReadingIterator@G@@ABV2@AAV1@@Z ; 403
?advance@?$nsCharSourceTraits@V?$nsReadingIterator@G@@@@SAXAAV?$nsReadingIterator@G@@H@Z ; 403
?readable_distance@?$nsCharSourceTraits@V?$nsReadingIterator@G@@@@SAIABV?$nsReadingIterator@G@@0@Z ; 403
?move@?$nsCharTraits@G@@SAPAGPAGPBGI@Z ; 403
?Cut@?$basic_nsAWritableString@G@@UAEXII@Z ; 403
??0?$nsWritingIterator@G@@QAE@XZ ; 403
?write@?$nsWritingIterator@G@@QAEIPBGI@Z ; 403
?SameFragment@@YAHABV?$nsReadingIterator@G@@0@Z ; 403
?write@?$nsCharSinkTraits@V?$nsWritingIterator@G@@@@SAIAAV?$nsWritingIterator@G@@PBGI@Z ; 403
?dont_AddRef@@YA?BU?$already_AddRefed@VnsIURI@@@@PAVnsIURI@@@Z ; 400
?ArcLabelsIn@InMemoryDataSource@@UAGIPAVnsIRDFNode@@PAPAVnsISimpleEnumerator@@@Z ; 398
?GetLocalName@nsXULElement@@UAGIAAV?$basic_nsAWritableString@G@@@Z ; 397
?AddSymbol@Rule@@QAEIABV?$basic_nsAReadableString@G@@H@Z ; 395
??0?$nsCOMPtr@VnsIBoxObject@@@@QAE@ABVnsQueryInterface@@@Z ; 392
?get@?$nsCOMPtr@VnsIRDFRemoteDataSource@@@@QBEPAV?$nsDerivedSafe@VnsIRDFRemoteDataSource@@@@XZ ; 391
?AddBindingsFor@nsXULTemplateBuilder@@SAXPAV1@ABV?$basic_nsAReadableString@G@@PAX@Z ; 391
?CreateContents@nsXULDocument@@UAGIPAVnsIContent@@@Z ; 385
?assign_assuming_AddRef@?$nsCOMPtr@VnsIXULPrototypeDocument@@@@AAEXPAVnsIXULPrototypeDocument@@@Z ; 384
?dont_AddRef@@YA?BU?$already_AddRefed@VnsIPresShell@@@@PAVnsIPresShell@@@Z ; 382
?GetDataSource@RDFServiceImpl@@UAGIPBDPAPAVnsIRDFDataSource@@@Z ; 379
?AllocTable@InMemoryDataSource@@KAPAXPAXI@Z ; 379
??_EXULPopupListenerImpl@@UAEPAXI@Z ; 379
??1XULPopupListenerImpl@@UAE@XZ ; 379
?get@?$nsCOMPtr@VnsIChannel@@@@QBEPAV?$nsDerivedSafe@VnsIChannel@@@@XZ ; 379
?GetNodeValue@XULSortServiceImpl@@CAIPAVnsIContent@@PAU_sortStruct@@HHPAPAVnsIRDFNode@@AAH@Z ; 378
?GetSources@RDFXMLDataSourceImpl@@UAGIPAVnsIRDFResource@@PAVnsIRDFNode@@HPAPAVnsISimpleEnumerator@@@Z ; 376
?DependsOn@Rule@@QBEHHH@Z ; 370
?IsTreeElement@XULSortServiceImpl@@AAEHPAVnsIContent@@@Z ; 365
?GetDateLiteral@RDFServiceImpl@@UAGI_JPAPAVnsIRDFDate@@@Z ; 364
??0nsIRDFDate@@QAE@XZ ; 364
??0DateImpl@@QAE@_J@Z ; 364
?HasNegation@CompositeArcsInOutEnumeratorImpl@@UAEIPAVnsIRDFDataSource@@PAVnsIRDFNode@@PAH@Z ; 360
??D?$nsGetterAddRefs@VnsIURI@@@@QAEAAPAVnsIURI@@XZ ; 360
?AddDataSource@CompositeDataSourceImpl@@UAGIPAVnsIRDFDataSource@@@Z ; 357
?AppendFromReadable@?$basic_nsAWritableString@D@@IAEXABV?$basic_nsAReadableString@D@@@Z ; 354
?Database@nsXULElement@@IBEPAVnsIRDFCompositeDataSource@@XZ ; 354
?Append@?$basic_nsAWritableString@D@@QAEXABV?$basic_nsAReadableString@D@@@Z ; 354
?dont_QueryInterface@@YAPAVnsIRDFDataSource@@PAV1@@Z ; 352
??0Binding@Rule@@QAE@XZ ; 351
?AddBinding@Rule@@QAEIHPAVnsIRDFResource@@H@Z ; 351
??0nsClassList@@QAE@ABV0@@Z ; 349
??0?$nsCOMPtr@VnsIAtom@@@@QAE@ABV0@@Z ; 349
??0TestNode@@QAE@PAVInnerNode@@@Z ; 348
??Y?$basic_nsAWritableString@D@@QAEAAV0@ABV?$basic_nsAReadableString@D@@@Z ; 348
??C?$nsCOMPtr@VnsIAtom@@@@QBEPAV?$nsDerivedSafe@VnsIAtom@@@@XZ ; 348
??1Element@RDFContainerMemberTestNode@@UAE@XZ ; 347
?Assign@?$basic_nsAWritableString@D@@QAEXPBD@Z ; 347
?GetDocumentURL@nsXULDocument@@UBEPAVnsIURI@@XZ ; 341
?GetCount@RDFContainerImpl@@UAGIPAH@Z ; 341
??8ClusterKey@@QBEHABV0@@Z ; 340
?Equals@ClusterKey@@IBEHABV1@@Z ; 340
?AllocSupportTable@ConflictSet@@KAPAXPAXI@Z ; 340
?CompareClusterKeys@ClusterKey@@SAHPBX0@Z ; 340
?AllocClusterTable@ConflictSet@@KAPAXPAXI@Z ; 340
?get@?$nsCOMPtr@VnsIWeakReference@@@@QBEPAV?$nsDerivedSafe@VnsIWeakReference@@@@XZ ; 340
?MouseUp@XULPopupListenerImpl@@UAEIPAVnsIDOMEvent@@@Z ; 339
?assign_assuming_AddRef@?$nsCOMPtr@VnsIDOMNSUIEvent@@@@AAEXPAVnsIDOMNSUIEvent@@@Z ; 338
??C?$nsCOMPtr@VnsIDOMNSUIEvent@@@@QBEPAV?$nsDerivedSafe@VnsIDOMNSUIEvent@@@@XZ ; 338
?GetIID@nsIDOMNSUIEvent@@SAABUnsID@@XZ ; 338
??B?$nsCOMPtr@VnsIDOMNSUIEvent@@@@QBEPAV?$nsDerivedSafe@VnsIDOMNSUIEvent@@@@XZ ; 338
??0?$nsCOMPtr@VnsIDOMNSUIEvent@@@@QAE@XZ ; 338
??0?$nsCOMPtr@VnsIDOMMouseEvent@@@@QAE@XZ ; 338
??4?$nsCOMPtr@VnsIDOMNSUIEvent@@@@QAEAAV0@ABVnsQueryInterface@@@Z ; 338
?AllocTable@ContentSupportMap@@KAPAXPAXI@Z ; 338
?PreLaunchPopup@XULPopupListenerImpl@@AAEIPAVnsIDOMEvent@@@Z ; 338
??1?$nsCOMPtr@VnsIDOMNSUIEvent@@@@QAE@XZ ; 338
?GetIID@?$nsCOMTypeInfo@VnsIDOMNSUIEvent@@@@SAABUnsID@@XZ ; 338
??4?$nsCOMPtr@VnsIDOMMouseEvent@@@@QAEAAV0@ABVnsQueryInterface@@@Z ; 338
?assign_from_helper@?$nsCOMPtr@VnsIDOMNSUIEvent@@@@AAEXABVnsCOMPtr_helper@@ABUnsID@@@Z ; 338
?MouseDown@XULPopupListenerImpl@@UAEIPAVnsIDOMEvent@@@Z ; 336
??1InnerNode@@UAE@XZ ; 334
?GetAnonymousNodes@nsXULDocument@@UAGIPAVnsIDOMElement@@PAPAVnsIDOMNodeList@@@Z ; 330
?AllocBindingTable@ConflictSet@@KAPAXPAXI@Z ; 330
?QueryInterface@nsXULPrototypeDocument@@UAGIABUnsID@@PAPAX@Z ; 329
?CanPropogate@RDFContainerInstanceTestNode@@UBEHPAVnsIRDFResource@@0PAVnsIRDFNode@@AAVInstantiation@@@Z ; 328
?GetValue@DateImpl@@UAGIPA_J@Z ; 328
?Remove@nsElementMap@@QAEIABV?$basic_nsAReadableString@G@@PAVnsIContent@@@Z ; 325
?AllocSupportEntry@ConflictSet@@KAPAUPLHashEntry@@PAXPBX@Z ; 323
?SetProperty@nsXULElement@@UAEHPAUJSContext@@PAUJSObject@@JPAJ@Z ; 323
??2SupportEntry@ConflictSet@@SAPAXIAAVnsFixedSizeAllocator@@@Z ; 323
??0SupportEntry@ConflictSet@@QAE@XZ ; 323
?Release@nsXULTreeElement@@WM@AGKXZ ; 323
??B?$nsCOMPtr@VnsIXULDocument@@@@QBEPAV?$nsDerivedSafe@VnsIXULDocument@@@@XZ ; 322
?StartAssignment@?$nsCOMPtr@VnsIRDFDataSource@@@@QAEPAPAVnsIRDFDataSource@@XZ ; 322
??0?$nsGetterAddRefs@VnsIRDFDataSource@@@@QAE@AAV?$nsCOMPtr@VnsIRDFDataSource@@@@@Z ; 322
??1?$nsGetterAddRefs@VnsIRDFDataSource@@@@QAE@XZ ; 322
?getter_AddRefs@@YA?AV?$nsGetterAddRefs@VnsIRDFDataSource@@@@AAV?$nsCOMPtr@VnsIRDFDataSource@@@@@Z ; 322
??B?$nsGetterAddRefs@VnsIRDFDataSource@@@@QAEPAPAVnsIRDFDataSource@@XZ ; 322
?Clear@ResourceSet@@QAEIXZ ; 319
??0?$nsCOMPtr@VnsIRDFXMLSink@@@@QAE@ABVnsQueryInterface@@@Z ; 317
??C?$nsCOMPtr@VnsIRDFXMLSink@@@@QBEPAV?$nsDerivedSafe@VnsIRDFXMLSink@@@@XZ ; 317
?assign_assuming_AddRef@?$nsCOMPtr@VnsIRDFXMLSink@@@@AAEXPAVnsIRDFXMLSink@@@Z ; 317
??1?$nsCOMPtr@VnsIRDFXMLSink@@@@QAE@XZ ; 317
??B?$nsCOMPtr@VnsIRDFXMLSink@@@@QBEPAV?$nsDerivedSafe@VnsIRDFXMLSink@@@@XZ ; 317
?assign_from_helper@?$nsCOMPtr@VnsIRDFXMLSink@@@@AAEXABVnsCOMPtr_helper@@ABUnsID@@@Z ; 317
??_EElement@RDFContainerMemberTestNode@@UAEPAXI@Z ; 315
?AddComment@XULContentSinkImpl@@UAGIABVnsIParserNode@@@Z ; 315
??3Element@RDFContainerMemberTestNode@@SAXPAXI@Z ; 315
?GetIID@nsIXULContentUtils@@SAABUnsID@@XZ ; 315
?GetIID@?$nsCOMTypeInfo@VnsIXULContentUtils@@@@SAABUnsID@@XZ ; 315
??0nsIRDFObserver@@QAE@XZ ; 314
?InsertChildAt@nsXULElement@@UAGIPAVnsIContent@@HH@Z ; 314
??0?$nsCOMPtr@VnsIPrincipal@@@@QAE@XZ ; 313
?assign_assuming_AddRef@?$nsCOMPtr@VnsIRDFContentModelBuilder@@@@AAEXPAVnsIRDFContentModelBuilder@@@Z ; 312
?assign_assuming_AddRef@?$nsCOMPtr@VnsIChromeRegistry@@@@AAEXPAVnsIChromeRegistry@@@Z ; 312
?get@?$nsCOMPtr@VnsIChromeRegistry@@@@QBEPAV?$nsDerivedSafe@VnsIChromeRegistry@@@@XZ ; 312
?GetIID@?$nsCOMTypeInfo@VnsIChromeRegistry@@@@SAABUnsID@@XZ ; 312
??C?$nsCOMPtr@VnsIRDFContentModelBuilder@@@@QBEPAV?$nsDerivedSafe@VnsIRDFContentModelBuilder@@@@XZ ; 312
?assign_from_helper@?$nsCOMPtr@VnsIChromeRegistry@@@@AAEXABVnsCOMPtr_helper@@ABUnsID@@@Z ; 312
??1?$nsCOMPtr@VnsIRDFContentModelBuilder@@@@QAE@XZ ; 312
?GetIID@nsIChromeRegistry@@SAABUnsID@@XZ ; 312
??1?$nsCOMPtr@VnsIChromeRegistry@@@@QAE@XZ ; 312
?HashMatch@MatchSet@@KAIPBX@Z ; 306
?Hash@Instantiation@@SAIPBX@Z ; 306
?QueryInterface@nsXULPDGlobalObject@@UAGIABUnsID@@PAPAX@Z ; 306
??8@YAHABV?$nsCOMPtr@VnsIRDFNode@@@@0@Z ; 305
?GetResource@nsXULContentUtils@@UAGIHABV?$basic_nsAReadableString@G@@PAPAVnsIRDFResource@@@Z ; 305
?GetResource@nsXULContentUtils@@UAGIHPAVnsIAtom@@PAPAVnsIRDFResource@@@Z ; 305
??0nsIRDFDataSource@@QAE@XZ ; 305
?MouseClick@XULPopupListenerImpl@@UAEIPAVnsIDOMEvent@@@Z ; 305
?CreateContainerContents@nsXULTemplateBuilder@@QAEIPAVnsIContent@@PAVnsIRDFResource@@HPAPAV2@PAH@Z ; 303
?IsLazyWidgetItem@nsXULTemplateBuilder@@QAEHPAVnsIContent@@@Z ; 303
?OpenProperty@RDFContentSinkImpl@@MAEIABVnsIParserNode@@@Z ; 301
?assign_assuming_AddRef@?$nsCOMPtr@VnsIParser@@@@AAEXPAVnsIParser@@@Z ; 298
?CreateTemplateContents@nsXULTemplateBuilder@@QAEIPAVnsIContent@@ABVnsString@@PAPAV2@PAH@Z ; 298
?UpdateCommands@nsXULCommandDispatcher@@UAGIABV?$basic_nsAReadableString@G@@@Z ; 298
??1?$nsCOMPtr@VnsIParser@@@@QAE@XZ ; 298
?FindChildByTag@nsXULContentUtils@@UAGIPAVnsIContent@@HPAVnsIAtom@@PAPAV2@@Z ; 298
??8@YAHABV?$nsCOMPtr@VnsIContent@@@@0@Z ; 297
??4?$nsCOMPtr@VnsIDOMXULDocument@@@@QAEAAV0@ABVnsQueryInterface@@@Z ; 295
?get@?$nsCOMPtr@VnsIStreamLoader@@@@QBEPAV?$nsDerivedSafe@VnsIStreamLoader@@@@XZ ; 294
?Retract@RDFContainerMemberTestNode@@UBEXPAVnsIRDFResource@@0PAVnsIRDFNode@@AAVMatchSet@@2@Z ; 293
?QueryInterface@ContainerEnumeratorImpl@@UAGIABUnsID@@PAPAX@Z ; 293
?ArcLabelsIn@RDFXMLDataSourceImpl@@UAGIPAVnsIRDFNode@@PAPAVnsISimpleEnumerator@@@Z ; 292
?Hash@Element@RDFContainerMemberTestNode@@UBEIXZ ; 291
?AddRef@nsXULContentUtils@@UAGKXZ ; 287
?GetIID@nsIStreamListener@@SAABUnsID@@XZ ; 286
?GetIID@?$nsCOMTypeInfo@VnsIStreamListener@@@@SAABUnsID@@XZ ; 286
?QueryInterface@nsXULContentUtils@@UAGIABUnsID@@PAPAX@Z ; 285
?Get@ContentSupportMap@@QAEHPAVnsIContent@@PAPAVMatch@@@Z ; 284
??_EContainerEnumeratorImpl@@UAEPAXI@Z ; 283
?Retract@nsXULTemplateBuilder@@QAEIPAVnsIRDFResource@@0PAVnsIRDFNode@@@Z ; 283
??1ContainerEnumeratorImpl@@UAE@XZ ; 283
??0ContainerEnumeratorImpl@@QAE@PAVnsIRDFDataSource@@PAVnsIRDFResource@@@Z ; 283
?dont_QueryInterface@@YAPAVnsIRDFResource@@PAV1@@Z ; 283
?NS_NewContainerEnumerator@@YAIPAVnsIRDFDataSource@@PAVnsIRDFResource@@PAPAVnsISimpleEnumerator@@@Z ; 283
?Release@nsXULContentUtils@@UAGKXZ ; 281
?assign_assuming_AddRef@?$nsCOMPtr@VnsIStreamListener@@@@AAEXPAVnsIStreamListener@@@Z ; 281
?GetIID@?$nsCOMTypeInfo@VnsIChannel@@@@SAABUnsID@@XZ ; 281
?GetIID@nsIChannel@@SAABUnsID@@XZ ; 281
??0nsQueryReferent@@QAE@ABV0@@Z ; 280
??0nsCOMPtr_helper@@QAE@ABV0@@Z ; 280
?do_QueryReferent@@YA?BVnsQueryReferent@@PAVnsIWeakReference@@PAI@Z ; 280
??0nsQueryReferent@@QAE@PAVnsIWeakReference@@PAI@Z ; 280
??0nsCOMPtr_helper@@QAE@XZ ; 280
??B?$nsCOMPtr@VnsIWeakReference@@@@QBEPAV?$nsDerivedSafe@VnsIWeakReference@@@@XZ ; 280
?dont_QueryInterface@@YAPAVnsIRDFCompositeDataSource@@PAV1@@Z ; 279
?SetDocument@nsXULTemplateBuilder@@UAGIPAVnsIXULDocument@@@Z ; 279
?get@?$nsCOMPtr@VnsIStreamListener@@@@QBEPAV?$nsDerivedSafe@VnsIStreamListener@@@@XZ ; 279
?SetDataBase@nsXULTemplateBuilder@@UAGIPAVnsIRDFCompositeDataSource@@@Z ; 279
?GetIID@?$nsCOMTypeInfo@VnsIPrincipal@@@@SAABUnsID@@XZ ; 277
??0?$nsCOMPtr@VnsIPrincipal@@@@QAE@ABVnsQueryInterface@@@Z ; 277
?assign_from_helper@?$nsCOMPtr@VnsIPrincipal@@@@AAEXABVnsCOMPtr_helper@@ABUnsID@@@Z ; 277
?GetIID@nsIPrincipal@@SAABUnsID@@XZ ; 277
?get@?$nsCOMPtr@VnsIRDFContentSink@@@@QBEPAV?$nsDerivedSafe@VnsIRDFContentSink@@@@XZ ; 276
?AddRef@RDFContentSinkImpl@@UAGKXZ ; 276
?Release@RDFContentSinkImpl@@UAGKXZ ; 276
??_GnsVoidArray@@UAEPAXI@Z ; 275
?get@?$nsCOMPtr@VnsIPopupSetBoxObject@@@@QBEPAV?$nsDerivedSafe@VnsIPopupSetBoxObject@@@@XZ ; 272
?CheckContainer@nsXULTemplateBuilder@@QAEIPAVnsIRDFResource@@PAH1@Z ; 272
?IndexOf@RDFContainerImpl@@UAGIPAVnsIRDFNode@@PAH@Z ; 271
?Assert_NoQueryNeeded@?$nsCOMPtr@VnsIPrincipal@@@@QAEXXZ ; 269
??_GBinding@Rule@@QAEPAXI@Z ; 266
?AddEventListenerByIID@nsXULElement@@UAGIPAVnsIDOMEventListener@@ABUnsID@@@Z ; 266
??1Binding@Rule@@QAE@XZ ; 266
?GetRoot@nsRuleNetwork@@QAEPAVRootNode@@XZ ; 262
?get@?$nsCOMPtr@VnsIHTMLStyleSheet@@@@QBEPAV?$nsDerivedSafe@VnsIHTMLStyleSheet@@@@XZ ; 262
?StartAssignment@?$nsCOMPtr@VnsIPrincipal@@@@QAEPAPAVnsIPrincipal@@XZ ; 261
??0?$nsGetterAddRefs@VnsIPrincipal@@@@QAE@AAV?$nsCOMPtr@VnsIPrincipal@@@@@Z ; 261
??B?$nsGetterAddRefs@VnsIPrincipal@@@@QAEPAPAVnsIPrincipal@@XZ ; 261
??1?$nsGetterAddRefs@VnsIPrincipal@@@@QAE@XZ ; 261
?getter_AddRefs@@YA?AV?$nsGetterAddRefs@VnsIPrincipal@@@@AAV?$nsCOMPtr@VnsIPrincipal@@@@@Z ; 261
?OnUnassert@CompositeDataSourceImpl@@UAGIPAVnsIRDFDataSource@@PAVnsIRDFResource@@1PAVnsIRDFNode@@@Z ; 261
??2Match@@SAPAXIAAVnsFixedSizeAllocator@@@Z ; 259
??0Match@@QAE@PBVRule@@ABVInstantiation@@ABVnsAssignmentSet@@@Z ; 259
?Add@ClusterKeySet@@QAEIABVClusterKey@@@Z ; 259
?Hash@Element@ContentTestNode@nsXULTemplateBuilder@@UBEIXZ ; 259
?GetPriority@Rule@@QBEHXZ ; 259
??CConstIterator@InstantiationSet@@QBEPBVInstantiation@@XZ ; 259
?InitBindings@Rule@@QBEIAAVConflictSet@@PAVMatch@@@Z ; 259
?Add@ConflictSet@@QAEIPAVMatch@@@Z ; 259
?GetResourceValue@XULSortServiceImpl@@CAIPAVnsIRDFResource@@PAU_sortStruct@@HHHPAPAVnsIRDFNode@@AAH@Z ; 258
?ns_if_addref@@YAKPAVnsIDOMNode@@@Z ; 256
?Change@InMemoryDataSource@@UAGIPAVnsIRDFResource@@0PAVnsIRDFNode@@1@Z ; 251
?Assert_NoQueryNeeded@?$nsCOMPtr@VnsIPref@@@@QAEXXZ ; 250
??0?$nsCOMPtr@VnsIPref@@@@QAE@ABVnsCOMPtr_helper@@@Z ; 250
??0?$nsCOMPtr@VnsIPref@@@@QAE@ABVnsQueryInterface@@@Z ; 250
??0Element@ContentTestNode@nsXULTemplateBuilder@@QAE@PAVnsIContent@@@Z ; 249
??2Element@ContentTestNode@nsXULTemplateBuilder@@SAPAXIAAVnsFixedSizeAllocator@@@Z ; 249
??B?$nsCOMPtr@VnsIPref@@@@QBEPAV?$nsDerivedSafe@VnsIPref@@@@XZ ; 249
?get@?$nsCOMPtr@VnsIScriptObjectOwner@@@@QBEPAV?$nsDerivedSafe@VnsIScriptObjectOwner@@@@XZ ; 247
??0RDFTestNode@@QAE@PAVInnerNode@@@Z ; 245
?CompareNodes@XULSortServiceImpl@@SAIPAVnsIRDFNode@@H0HAAH1@Z ; 245
?InplaceSort@XULSortServiceImpl@@SAIPAVnsIContent@@0PAU_sortStruct@@AAH@Z ; 245
?inplaceSortCallback@@YAHPBX0PAX@Z ; 245
??4?$nsCOMPtr@VnsIRDFNode@@@@QAEAAV0@ABV0@@Z ; 245
??1?$nsCOMPtr@VnsIXULPrototypeDocument@@@@QAE@XZ ; 242
?Append@?$basic_nsAWritableString@G@@QAEXPBGI@Z ; 242
??0?$nsCOMPtr@VnsIRDFService@@@@QAE@ABVnsCOMPtr_helper@@@Z ; 241
??1ResourceSet@@QAE@XZ ; 240
??1TestNode@@UAE@XZ ; 238
?get@?$nsCOMPtr@VnsICSSLoader@@@@QBEPAV?$nsDerivedSafe@VnsICSSLoader@@@@XZ ; 238
?assign_assuming_AddRef@?$nsCOMPtr@VnsIChannel@@@@AAEXPAVnsIChannel@@@Z ; 238
?GetURI@nsXULPrototypeDocument@@UAGIPAPAVnsIURI@@@Z ; 236
?OpenObject@RDFContentSinkImpl@@MAEIABVnsIParserNode@@@Z ; 236
?SweepForwardArcsEntries@InMemoryDataSource@@KAHPAUPLHashEntry@@HPAX@Z ; 235
?GetBoxObject@nsXULElement@@UAGIPAPAVnsIBoxObject@@@Z ; 235
?Change@RDFXMLDataSourceImpl@@UAGIPAVnsIRDFResource@@0PAVnsIRDFNode@@1@Z ; 232
??EConstIterator@ResourceSet@@QAEAAV01@XZ ; 232
?getter_AddRefs@@YA?AV?$nsGetterAddRefs@VnsIRDFContainer@@@@AAV?$nsCOMPtr@VnsIRDFContainer@@@@@Z ; 231
??0?$nsCOMPtr@VnsIRDFContainer@@@@QAE@ABVnsQueryInterface@@@Z ; 231
?StartAssignment@?$nsCOMPtr@VnsIRDFContainer@@@@QAEPAPAVnsIRDFContainer@@XZ ; 231
?assign_from_helper@?$nsCOMPtr@VnsIRDFContainer@@@@AAEXABVnsCOMPtr_helper@@ABUnsID@@@Z ; 231
??0?$nsGetterAddRefs@VnsIRDFContainer@@@@QAE@AAV?$nsCOMPtr@VnsIRDFContainer@@@@@Z ; 231
??1?$nsGetterAddRefs@VnsIRDFContainer@@@@QAE@XZ ; 231
??B?$nsGetterAddRefs@VnsIRDFContainer@@@@QAEPAPAVnsIRDFContainer@@XZ ; 231
?Assert_NoQueryNeeded@?$nsCOMPtr@VnsIRDFContainer@@@@QAEXXZ ; 231
?GetBoxObjectFor@nsXULDocument@@UAGIPAVnsIDOMElement@@PAPAVnsIBoxObject@@@Z ; 230
?get@?$nsCOMPtr@VnsIRDFDate@@@@QBEPAV?$nsDerivedSafe@VnsIRDFDate@@@@XZ ; 230
?assign_with_AddRef@?$nsCOMPtr@VnsIScriptContext@@@@AAEXPAVnsISupports@@@Z ; 229
??4?$nsCOMPtr@VnsIScriptContext@@@@QAEAAV0@PAVnsIScriptContext@@@Z ; 229
?FilterInstantiations@ContentTestNode@nsXULTemplateBuilder@@UBEIAAVInstantiationSet@@PAX@Z ; 227
?OnUnassert@nsXULTemplateBuilder@@UAGIPAVnsIRDFDataSource@@PAVnsIRDFResource@@1PAVnsIRDFNode@@@Z ; 227
?FindMatchWithHighestPriority@MatchSet@@QBEPAVMatch@@XZ ; 226
?GetIID@?$nsCOMTypeInfo@VnsIScriptGlobalObjectOwner@@@@SAABUnsID@@XZ ; 226
?GetIID@nsIScriptGlobalObjectOwner@@SAABUnsID@@XZ ; 226
?Equals@nsISupportsKey@@UBEHPBVnsHashKey@@@Z ; 226
?Assert_NoQueryNeeded@?$nsCOMPtr@VnsILoadGroup@@@@QAEXXZ ; 224
??B?$nsCOMPtr@VnsILoadGroup@@@@QBEPAV?$nsDerivedSafe@VnsILoadGroup@@@@XZ ; 224
??0?$nsCOMPtr@VnsILoadGroup@@@@QAE@ABVnsQueryInterface@@@Z ; 224
??1?$nsCOMPtr@VnsIChannel@@@@QAE@XZ ; 223
?FilterInstantiations@RDFContainerMemberTestNode@@UBEIAAVInstantiationSet@@PAX@Z ; 221
?FreeSupportTable@ConflictSet@@KAXPAX0@Z ; 220
?getter_AddRefs@@YA?BU?$already_AddRefed@VnsISupports@@@@PAVnsISupports@@@Z ; 220
??0?$nsCOMPtr@VnsISupports@@@@QAE@ABU?$already_AddRefed@VnsISupports@@@@@Z ; 220
??0?$already_AddRefed@VnsISupports@@@@QAE@PAVnsISupports@@@Z ; 220
?FreeClusterTable@ConflictSet@@KAXPAX0@Z ; 220
??4Entry@Rule@@QAEAAU01@ABU01@@Z ; 220
?AddRef@nsControllerCommandManager@@UAGKXZ ; 219
?RemoveEventListener@nsXULElement@@UAGIABV?$basic_nsAReadableString@G@@PAVnsIDOMEventListener@@H@Z ; 219
?IsOpen@nsXULTemplateBuilder@@QAEHPAVnsIContent@@@Z ; 219
?FreeTable@ContentSupportMap@@KAXPAX0@Z ; 218
?GetSources@CompositeDataSourceImpl@@UAGIPAVnsIRDFResource@@PAVnsIRDFNode@@HPAPAVnsISimpleEnumerator@@@Z ; 217
?AllocEntry@MatchSet@@KAPAUPLHashEntry@@PAXPBX@Z ; 216
??0?$nsCOMPtr@VnsILoadGroup@@@@QAE@ABVnsCOMPtr_helper@@@Z ; 212
??1SupportEntry@ConflictSet@@QAE@XZ ; 210
?FreeBindingTable@ConflictSet@@KAXPAX0@Z ; 210
??3SupportEntry@ConflictSet@@SAXPAXI@Z ; 210
??_GSupportEntry@ConflictSet@@QAEPAXI@Z ; 210
?FreeSupportEntry@ConflictSet@@KAXPAXPAUPLHashEntry@@I@Z ; 210
??0?$nsCOMPtr@VnsIRDFService@@@@QAE@XZ ; 209
??0_sortStruct@@QAE@XZ ; 209
??4?$nsCOMPtr@VnsIRDFService@@@@QAEAAV0@PAVnsIRDFService@@@Z ; 209
?GetAnonymousResource@RDFServiceImpl@@UAGIPAPAVnsIRDFResource@@@Z ; 209
?assign_with_AddRef@?$nsCOMPtr@VnsIRDFService@@@@AAEXPAVnsISupports@@@Z ; 209
??4?$nsCOMPtr@VnsIAtom@@@@QAEAAV0@PAVnsIAtom@@@Z ; 209
?assign_with_AddRef@?$nsCOMPtr@VnsIAtom@@@@AAEXPAVnsISupports@@@Z ; 209
??4?$nsCOMPtr@VnsIRDFNode@@@@QAEAAV0@PAVnsIRDFNode@@@Z ; 209
??4?$nsCOMPtr@VnsISupportsArray@@@@QAEAAV0@PAVnsISupportsArray@@@Z ; 209
?assign_with_AddRef@?$nsCOMPtr@VnsISupportsArray@@@@AAEXPAVnsISupports@@@Z ; 209
??1_sortStruct@@QAE@XZ ; 209
?Equals@Element@RDFPropertyTestNode@@UBEHABVMemoryElement@@@Z ; 208
?InsertContainerNode@XULSortServiceImpl@@UAGIPAVnsIRDFCompositeDataSource@@PAVnsRDFSortState@@PAVnsIContent@@222H@Z ; 207
?AllocEntry@ContentSupportMap@@KAPAUPLHashEntry@@PAXPBX@Z ; 207
?AddPersistentAttributes@nsXULTemplateBuilder@@QAEIPAVnsIContent@@PAVnsIRDFResource@@0@Z ; 207
?ForceElementToOwnResource@nsXULElement@@UAGIH@Z ; 207
?FreeTable@InMemoryDataSource@@KAXPAX0@Z ; 207
?Put@ContentSupportMap@@QAEIPAVnsIContent@@PAVMatch@@@Z ; 207
?GetSources@LocalStoreImpl@@UAGIPAVnsIRDFResource@@PAVnsIRDFNode@@HPAPAVnsISimpleEnumerator@@@Z ; 205
?AllocEntry@ClusterKeySet@@KAPAUPLHashEntry@@PAXPBX@Z ; 202
?HashClusterKey@ClusterKey@@SAIPBX@Z ; 202
?SetLastMatch@MatchSet@@QAEXPBVMatch@@@Z ; 202
?FreeEntry@ClusterKeySet@@KAXPAXPAUPLHashEntry@@I@Z ; 202
??3Entry@ClusterKeySet@@SAXPAXI@Z ; 202
??2ClusterEntry@ConflictSet@@SAPAXIAAVnsFixedSizeAllocator@@@Z ; 202
?GetMatchesForClusterKey@ConflictSet@@QAEXABVClusterKey@@PAPBVMatchSet@@@Z ; 202
??EConstIterator@ClusterKeySet@@QAEAAV01@XZ ; 202
??_GEntry@ClusterKeySet@@QAEPAXI@Z ; 202
??0ClusterEntry@ConflictSet@@QAE@XZ ; 202
??2Entry@ClusterKeySet@@SAPAXIAAVnsFixedSizeAllocator@@@Z ; 202
?Clone@Element@RDFContainerMemberTestNode@@UBEPAVMemoryElement@@PAX@Z ; 202
??DConstIterator@ClusterKeySet@@QBEABVClusterKey@@XZ ; 202
??0Entry@ClusterKeySet@@QAE@ABVClusterKey@@@Z ; 202
??4ClusterKey@@QAEAAV0@ABV0@@Z ; 202
??2BindingEntry@ConflictSet@@SAPAXIAAVnsFixedSizeAllocator@@@Z ; 202
?AllocBindingEntry@ConflictSet@@KAPAUPLHashEntry@@PAXPBX@Z ; 202
??0BindingEntry@ConflictSet@@QAE@XZ ; 202
??0ClusterKey@@QAE@ABV0@@Z ; 202
?AllocClusterEntry@ConflictSet@@KAPAUPLHashEntry@@PAXPBX@Z ; 202
??B?$nsCOMPtr@VnsIRDFContainer@@@@QBEPAV?$nsDerivedSafe@VnsIRDFContainer@@@@XZ ; 201
??9@YAHABV?$nsCOMPtr@VnsIScriptContext@@@@PAVNSCAP_Zero@@@Z ; 201
?Release@nsControllerCommandManager@@UAGKXZ ; 201
??B?$nsCOMPtr@VnsIRDFRemoteDataSource@@@@QBEPAV?$nsDerivedSafe@VnsIRDFRemoteDataSource@@@@XZ ; 197
?assign_assuming_AddRef@?$nsCOMPtr@VnsIStreamLoader@@@@AAEXPAVnsIStreamLoader@@@Z ; 196
?GetIID@?$nsCOMTypeInfo@VnsIStreamLoader@@@@SAABUnsID@@XZ ; 196
?Assert_NoQueryNeeded@?$nsCOMPtr@VnsIXULPrototypeDocument@@@@QAEXXZ ; 196
??1?$nsCOMPtr@VnsIStreamLoader@@@@QAE@XZ ; 196
?GetIID@nsIStreamLoader@@SAABUnsID@@XZ ; 196
??_GCompositeArcsInOutEnumeratorImpl@@UAEPAXI@Z ; 195
??1CompositeArcsInOutEnumeratorImpl@@UAE@XZ ; 195
??0?$nsCOMPtr@VnsIRDFRemoteDataSource@@@@QAE@ABVnsQueryInterface@@@Z ; 195
??0CompositeArcsInOutEnumeratorImpl@@QAE@PAVCompositeDataSourceImpl@@PAVnsIRDFNode@@W4Type@0@HH@Z ; 195
??1?$nsCOMPtr@VnsIRDFRemoteDataSource@@@@QAE@XZ ; 195
?assign_assuming_AddRef@?$nsCOMPtr@VnsIRDFRemoteDataSource@@@@AAEXPAVnsIRDFRemoteDataSource@@@Z ; 195
?assign_from_helper@?$nsCOMPtr@VnsIRDFRemoteDataSource@@@@AAEXABVnsCOMPtr_helper@@ABUnsID@@@Z ; 195
??3Element@ContentTestNode@nsXULTemplateBuilder@@SAXPAXI@Z ; 194
??_GElement@ContentTestNode@nsXULTemplateBuilder@@UAEPAXI@Z ; 194
??1Element@ContentTestNode@nsXULTemplateBuilder@@UAE@XZ ; 194
?GetDocumentElement@nsXULDocument@@UAGIPAPAVnsIDOMElement@@@Z ; 193
?Release@PlaceholderChannel@@UAGKXZ ; 192
?GetIndexOfStyleSheet@nsXULDocument@@UAEHPAVnsIStyleSheet@@@Z ; 192
?AddRef@PlaceholderChannel@@UAGKXZ ; 192
?ExecuteScript@nsXULDocument@@IAEIPAUJSObject@@@Z ; 191
?Resolve@BroadcasterHookup@nsXULDocument@@UAE?AW4Result@nsForwardReference@@XZ ; 190
?QueryInterface@nsXULAttribute@@UAGIABUnsID@@PAPAX@Z ; 189
?GetIID@?$nsCOMTypeInfo@VnsIDOMAttr@@@@SAABUnsID@@XZ ; 189
?GetQualifiedName@nsXULAttribute@@QAEXAAV?$basic_nsAWritableString@G@@@Z ; 189
?GetNodeName@nsXULAttribute@@UAGIAAV?$basic_nsAWritableString@G@@@Z ; 189
?GetIID@nsIDOMAttr@@SAABUnsID@@XZ ; 189
?Item@nsXULAttributes@@UAGIIPAPAVnsIDOMNode@@@Z ; 189
?Constrain@TestNode@@UAEIAAVInstantiationSet@@PAX@Z ; 188
?AddRef@nsXULTreeElement@@UAGKXZ ; 187
??0Element@RDFPropertyTestNode@@QAE@PAVnsIRDFResource@@0PAVnsIRDFNode@@@Z ; 187
??2Element@RDFPropertyTestNode@@SAPAXIAAVnsFixedSizeAllocator@@@Z ; 187
?Persist@nsXULDocument@@IAEIPAVnsIContent@@HPAVnsIAtom@@@Z ; 187
?Change@LocalStoreImpl@@UAGIPAVnsIRDFResource@@0PAVnsIRDFNode@@1@Z ; 187
?AddRef@nsXULAggregateElement@@UAGKXZ ; 187
??1BroadcasterHookup@nsXULDocument@@UAE@XZ ; 186
??0BroadcasterHookup@nsXULDocument@@QAE@PAV1@PAVnsIContent@@@Z ; 186
?Release@nsXULAggregateElement@@UAGKXZ ; 186
??_EBroadcasterHookup@nsXULDocument@@UAEPAXI@Z ; 186
?Release@nsXULTreeElement@@UAGKXZ ; 186
?FlushPendingNotifications@nsXULDocument@@UAGIH@Z ; 186
??B?$nsCOMPtr@VnsIHTMLStyleSheet@@@@QBEPAV?$nsDerivedSafe@VnsIHTMLStyleSheet@@@@XZ ; 186
?MakeSeq@RDFContainerUtilsImpl@@UAGIPAVnsIRDFDataSource@@PAVnsIRDFResource@@PAPAVnsIRDFContainer@@@Z ; 185
?AddElementForID@nsXULDocument@@UAGIABV?$basic_nsAReadableString@G@@PAVnsIContent@@@Z ; 185
??4?$basic_nsAWritableString@G@@QAEAAV0@ABV?$basic_nsAReadableString@G@@@Z ; 185
?MakeContainer@RDFContainerUtilsImpl@@AAEIPAVnsIRDFDataSource@@PAVnsIRDFResource@@1PAPAVnsIRDFContainer@@@Z ; 185
??C?$nsCOMPtr@VnsIRDFRemoteDataSource@@@@QBEPAV?$nsDerivedSafe@VnsIRDFRemoteDataSource@@@@XZ ; 184
?Unassert@RDFXMLDataSourceImpl@@UAGIPAVnsIRDFResource@@0PAVnsIRDFNode@@@Z ; 181
??0?$nsCOMPtr@VnsIAtom@@@@QAE@PAVnsIAtom@@@Z ; 181
??1RDFTestNode@@UAE@XZ ; 178
?DeleteForwardArcsEntry@InMemoryDataSource@@KAHPAUPLHashEntry@@HPAX@Z ; 178
?RemoveAllChildren@InnerNode@@QAEIXZ ; 175
??C?$nsCOMPtr@VnsIRDFService@@@@QBEPAV?$nsDerivedSafe@VnsIRDFService@@@@XZ ; 175
?Clear@nsRuleNetwork@@QAEIXZ ; 175
?ArcLabelsIn@CompositeDataSourceImpl@@UAGIPAVnsIRDFNode@@PAPAVnsISimpleEnumerator@@@Z ; 175
??0InstantiationSet@@QAE@XZ ; 174
?FilterInstantiations@RDFPropertyTestNode@@UBEIAAVInstantiationSet@@PAX@Z ; 173
?Assert_NoQueryNeeded@?$nsCOMPtr@VnsIStreamListener@@@@QAEXXZ ; 172
?Assert_NoQueryNeeded@?$nsCOMPtr@VnsIBoxObject@@@@QAEXXZ ; 172
??CConstIterator@ClusterKeySet@@QBEPBVClusterKey@@XZ ; 172
?assign_from_helper@?$nsCOMPtr@VnsIXULPrototypeDocument@@@@AAEXABVnsCOMPtr_helper@@ABUnsID@@@Z ; 172
?GetContent@Rule@@QBEIPAPAVnsIContent@@@Z ; 172
??4?$nsCOMPtr@VnsIRDFDataSource@@@@QAEAAV0@ABVnsQueryInterface@@@Z ; 172
??0?$nsCOMPtr@VnsIXULPrototypeDocument@@@@QAE@ABVnsQueryInterface@@@Z ; 172
?GetIID@nsIRequest@@SAABUnsID@@XZ ; 168
?QueryInterface@PlaceholderChannel@@UAGIABUnsID@@PAPAX@Z ; 168
?GetIID@?$nsCOMTypeInfo@VnsIRequest@@@@SAABUnsID@@XZ ; 168
??9@YAHABV?$nsCOMPtr@VnsIURI@@@@PAVNSCAP_Zero@@@Z ; 168
?GetIID@?$nsCOMTypeInfo@VnsIControllerCommandManager@@@@SAABUnsID@@XZ ; 166
?QueryInterface@nsControllerCommandManager@@UAGIABUnsID@@PAPAX@Z ; 166
?rdf_MakeAbsoluteURI@@YAIPAVnsIURI@@AAVnsString@@@Z ; 166
?GetIID@nsIControllerCommandManager@@SAABUnsID@@XZ ; 166
?Init@ConflictSet@@IAEIXZ ; 165
?Init@ContentSupportMap@@IAEXXZ ; 165
?GetElementsForID@nsXULDocument@@UAGIABV?$basic_nsAReadableString@G@@PAVnsISupportsArray@@@Z ; 165
?Find@nsElementMap@@QAEIABV?$basic_nsAReadableString@G@@PAVnsISupportsArray@@@Z ; 165
?LoadScript@nsXULDocument@@IAEIPAVnsXULPrototypeScript@@PAH@Z ; 164
?GetURI@PlaceholderChannel@@UAGIPAPAVnsIURI@@@Z ; 164
?ArcLabelsIn@LocalStoreImpl@@UAGIPAVnsIRDFNode@@PAPAVnsISimpleEnumerator@@@Z ; 163
?SetContainerVariable@Rule@@QAEXH@Z ; 162
?SetMemberVariable@Rule@@QAEXH@Z ; 162
??0InstantiationNode@@QAE@AAVConflictSet@@PAVRule@@PAVnsIRDFDataSource@@@Z ; 162
??0Rule@@QAE@PAVnsIRDFDataSource@@PAVnsIContent@@H@Z ; 162
?AddObserver@CompositeDataSourceImpl@@UAGIPAVnsIRDFObserver@@@Z ; 161
?GetIID@?$nsCOMTypeInfo@VnsIXULContentSink@@@@SAABUnsID@@XZ ; 160
?AddRef@XULContentSinkImpl@@UAGKXZ ; 160
?Release@XULContentSinkImpl@@UAGKXZ ; 160
?GetIID@nsIXULContentSink@@SAABUnsID@@XZ ; 160
??0?$nsGetterAddRefs@VnsIRDFCompositeDataSource@@@@QAE@AAV?$nsCOMPtr@VnsIRDFCompositeDataSource@@@@@Z ; 158
?NS_NewRDFCompositeDataSource@@YAIPAPAVnsIRDFCompositeDataSource@@@Z ; 158
??0nsIRDFCompositeDataSource@@QAE@XZ ; 158
?StartAssignment@?$nsCOMPtr@VnsIRDFCompositeDataSource@@@@QAEPAPAVnsIRDFCompositeDataSource@@XZ ; 158
?getter_AddRefs@@YA?AV?$nsGetterAddRefs@VnsIRDFCompositeDataSource@@@@AAV?$nsCOMPtr@VnsIRDFCompositeDataSource@@@@@Z ; 158
?RemoveEventListenerByIID@nsXULElement@@UAGIPAVnsIDOMEventListener@@ABUnsID@@@Z ; 158
??1?$nsGetterAddRefs@VnsIRDFCompositeDataSource@@@@QAE@XZ ; 158
??0CompositeDataSourceImpl@@QAE@XZ ; 158
?GetQuotedAttributeValue@nsRDFParserUtils@@SAIABVnsString@@0AAV2@@Z ; 158
_NSGetModule ; 158
?Init@LocalStoreImpl@@UAGIPBD@Z ; 157
?NS_NewXULTemplateBuilder@@YAIPAPAVnsIRDFContentModelBuilder@@@Z ; 156
?getter_AddRefs@@YA?AV?$nsGetterAddRefs@VnsIXULPrototypeDocument@@@@AAV?$nsCOMPtr@VnsIXULPrototypeDocument@@@@@Z ; 156
??0?$nsCOMPtr@VnsITimer@@@@QAE@PAVnsITimer@@@Z ; 156
?assign_from_helper@?$nsCOMPtr@VnsIRDFContentModelBuilder@@@@AAEXABVnsCOMPtr_helper@@ABUnsID@@@Z ; 156
?Assert_NoQueryNeeded@?$nsCOMPtr@VnsIRDFContentModelBuilder@@@@QAEXXZ ; 156
??0?$nsCOMPtr@VnsIRDFContentModelBuilder@@@@QAE@ABVnsQueryInterface@@@Z ; 156
?StartAssignment@?$nsCOMPtr@VnsIXULPrototypeDocument@@@@QAEPAPAVnsIXULPrototypeDocument@@XZ ; 156
??0nsIXULTemplateBuilder@@QAE@XZ ; 156
??B?$nsCOMPtr@VnsIRDFContentModelBuilder@@@@QBEPAV?$nsDerivedSafe@VnsIRDFContentModelBuilder@@@@XZ ; 156
??0?$nsCOMPtr@VnsIRDFCompositeDataSource@@@@QAE@PAVnsIRDFCompositeDataSource@@@Z ; 156
?AddObserver@LocalStoreImpl@@UAGIPAVnsIRDFObserver@@@Z ; 156
??0nsIRDFContentModelBuilder@@QAE@XZ ; 156
??0RootNode@@QAE@XZ ; 156
?SetRootContent@nsXULTemplateBuilder@@UAGIPAVnsIContent@@@Z ; 156
_NSGetModule ; 156
?AddContentModelBuilder@nsXULDocument@@UAGIPAVnsIRDFContentModelBuilder@@@Z ; 156
??0?$nsGetterAddRefs@VnsIXULPrototypeDocument@@@@QAE@AAV?$nsCOMPtr@VnsIXULPrototypeDocument@@@@@Z ; 156
??0?$nsCOMPtr@VnsIChromeRegistry@@@@QAE@ABVnsCOMPtr_helper@@@Z ; 156
??0?$nsCOMPtr@VnsIChromeRegistry@@@@QAE@ABVnsQueryInterface@@@Z ; 156
?AddObserver@InMemoryDataSource@@UAGIPAVnsIRDFObserver@@@Z ; 156
?Assert_NoQueryNeeded@?$nsCOMPtr@VnsIChromeRegistry@@@@QAEXXZ ; 156
??1?$nsGetterAddRefs@VnsIRDFContentModelBuilder@@@@QAE@XZ ; 156
??0nsRuleNetwork@@QAE@XZ ; 156
??B?$nsGetterAddRefs@VnsIRDFContentModelBuilder@@@@QAEPAPAXXZ ; 156
??0ContentSupportMap@@QAE@XZ ; 156
??0?$nsGetterAddRefs@VnsIRDFContentModelBuilder@@@@QAE@AAV?$nsCOMPtr@VnsIRDFContentModelBuilder@@@@@Z ; 156
??B?$nsGetterAddRefs@VnsIRDFCompositeDataSource@@@@QAEPAPAXXZ ; 156
??C?$nsCOMPtr@VnsIChromeRegistry@@@@QBEPAV?$nsDerivedSafe@VnsIChromeRegistry@@@@XZ ; 156
?dont_QueryInterface@@YAPAVnsIContent@@PAV1@@Z ; 156
?getter_AddRefs@@YA?AV?$nsGetterAddRefs@VnsIRDFContentModelBuilder@@@@AAV?$nsCOMPtr@VnsIRDFContentModelBuilder@@@@@Z ; 156
??1?$nsGetterAddRefs@VnsIXULPrototypeDocument@@@@QAE@XZ ; 156
??0nsXULTemplateBuilder@@QAE@XZ ; 156
?StartAssignment@?$nsCOMPtr@VnsIRDFContentModelBuilder@@@@QAEPAPAVnsIRDFContentModelBuilder@@XZ ; 156
??0?$nsCOMPtr@VnsIRDFContentModelBuilder@@@@QAE@XZ ; 156
?Init@nsXULTemplateBuilder@@QAEIXZ ; 156
??0nsRDFSortState@@QAE@XZ ; 156
?InitTemplateRoot@nsXULElement@@UAGIPAVnsIRDFCompositeDataSource@@PAVnsIXULTemplateBuilder@@@Z ; 156
??0ConflictSet@@QAE@XZ ; 156
?Add@ResourceSet@@QAEIPAVnsIRDFResource@@@Z ; 154
?AddSimpleRuleBindings@nsXULTemplateBuilder@@QAEIPAVRule@@PAVnsIContent@@@Z ; 154
??0?$nsCOMPtr@VnsIStyleRule@@@@QAE@ABVnsQueryInterface@@@Z ; 154
?GetIID@nsIStyleRule@@SAABUnsID@@XZ ; 154
?assign_from_helper@?$nsCOMPtr@VnsIStyleRule@@@@AAEXABVnsCOMPtr_helper@@ABUnsID@@@Z ; 154
?CompileSimpleRule@nsXULTemplateBuilder@@QAEIPAVnsIContent@@HPAVInnerNode@@@Z ; 154
?GetIID@?$nsCOMTypeInfo@VnsIStyleRule@@@@SAABUnsID@@XZ ; 154
?Empty@MatchSet@@QBEHXZ ; 153
??8ConstIterator@MatchSet@@QBEHABV01@@Z ; 153
??B?$nsCOMPtr@VnsIChannel@@@@QBEPAV?$nsDerivedSafe@VnsIChannel@@@@XZ ; 153
?GetStyleSheet@nsXULPrototypeCache@@UAGIPAVnsIURI@@PAPAVnsICSSStyleSheet@@@Z ; 152
?NodeHasSortInfo@XULSortServiceImpl@@AAEIPAVnsIContent@@AAVnsString@@11AAH2@Z ; 152
?GetSortColumnInfo@XULSortServiceImpl@@AAEIPAVnsIContent@@AAVnsString@@11AAH@Z ; 152
?getter_AddRefs@@YA?AV?$nsGetterAddRefs@VnsIParser@@@@AAV?$nsCOMPtr@VnsIParser@@@@@Z ; 149
?GetIID@nsIParser@@SAABUnsID@@XZ ; 149
??0?$nsCOMPtr@VnsIParser@@@@QAE@ABVnsQueryInterface@@@Z ; 149
?Assert_NoQueryNeeded@?$nsCOMPtr@VnsIParser@@@@QAEXXZ ; 149
?assign_from_helper@?$nsCOMPtr@VnsIParser@@@@AAEXABVnsCOMPtr_helper@@ABUnsID@@@Z ; 149
?GetRootContent@nsXULDocument@@UAEPAVnsIContent@@XZ ; 149
?GetIID@?$nsCOMTypeInfo@VnsIParser@@@@SAABUnsID@@XZ ; 149
??1?$nsGetterAddRefs@VnsIParser@@@@QAE@XZ ; 149
?StartAssignment@?$nsCOMPtr@VnsIParser@@@@QAEPAPAVnsIParser@@XZ ; 149
??0?$nsGetterAddRefs@VnsIParser@@@@QAE@AAV?$nsCOMPtr@VnsIParser@@@@@Z ; 149
??0?$nsCOMPtr@VnsIParser@@@@QAE@XZ ; 149
?GetIID@?$nsCOMTypeInfo@VnsIRDFDate@@@@SAABUnsID@@XZ ; 148
??0?$nsCOMPtr@VnsIRDFDate@@@@QAE@ABVnsQueryInterface@@@Z ; 148
??1?$nsCOMPtr@VnsIRDFDate@@@@QAE@XZ ; 148
?assign_assuming_AddRef@?$nsCOMPtr@VnsIRDFDate@@@@AAEXPAVnsIRDFDate@@@Z ; 148
??B?$nsCOMPtr@VnsIRDFDate@@@@QBEPAV?$nsDerivedSafe@VnsIRDFDate@@@@XZ ; 148
?assign_from_helper@?$nsCOMPtr@VnsIRDFDate@@@@AAEXABVnsCOMPtr_helper@@ABUnsID@@@Z ; 148
?GetIID@nsIRDFDate@@SAABUnsID@@XZ ; 148
?AddNameSpace@RDFXMLDataSourceImpl@@UAGIPAVnsIAtom@@ABVnsString@@@Z ; 147
??3Match@@SAXPAXI@Z ; 144
??1Match@@IAE@XZ ; 144
??_GMatch@@IAEPAXI@Z ; 144
?Insert@?$basic_nsAWritableString@G@@QAEXPBGII@Z ; 143
??1?$nsCOMPtr@VnsIWeakReference@@@@QAE@XZ ; 143
?ResumeWalk@nsXULDocument@@IAEIXZ ; 142
?GetElements@RDFContainerImpl@@UAGIPAPAVnsISimpleEnumerator@@@Z ; 142
?GetFirstChild@nsXULElement@@UAGIPAPAVnsIDOMNode@@@Z ; 142
?SerializeContainer@RDFXMLDataSourceImpl@@QAEIPAVnsIOutputStream@@PAVnsIRDFResource@@@Z ; 141
??1?$nsCOMPtr@VnsIStreamListener@@@@QAE@XZ ; 140
?rdf_MakeAbsoluteURI@@YAIPAVnsIURI@@AAVnsCString@@@Z ; 140
?get@?$nsCOMPtr@VnsICSSStyleSheet@@@@QBEPAV?$nsDerivedSafe@VnsICSSStyleSheet@@@@XZ ; 140
?StartAssignment@?$nsCOMPtr@VnsIDOMXULDocument@@@@QAEPAPAVnsIDOMXULDocument@@XZ ; 138
??C?$nsCOMPtr@VnsIStreamListener@@@@QBEPAV?$nsDerivedSafe@VnsIStreamListener@@@@XZ ; 138
??B?$nsGetterAddRefs@VnsIDOMXULDocument@@@@QAEPAPAVnsIDOMXULDocument@@XZ ; 138
?GetIID@nsIRDFContentSink@@SAABUnsID@@XZ ; 138
?assign_assuming_AddRef@?$nsCOMPtr@VnsIRDFContentSink@@@@AAEXPAVnsIRDFContentSink@@@Z ; 138
??1?$nsGetterAddRefs@VnsIDOMXULDocument@@@@QAE@XZ ; 138
?Assert_NoQueryNeeded@?$nsCOMPtr@VnsIDOMXULDocument@@@@QAEXXZ ; 138
?assign_with_AddRef@?$nsCOMPtr@VnsIURI@@@@AAEXPAVnsISupports@@@Z ; 138
??C?$nsCOMPtr@VnsIRDFContentSink@@@@QBEPAV?$nsDerivedSafe@VnsIRDFContentSink@@@@XZ ; 138
?getter_AddRefs@@YA?AV?$nsGetterAddRefs@VnsIDOMXULDocument@@@@AAV?$nsCOMPtr@VnsIDOMXULDocument@@@@@Z ; 138
??0?$nsGetterAddRefs@VnsIDOMXULDocument@@@@QAE@AAV?$nsCOMPtr@VnsIDOMXULDocument@@@@@Z ; 138
?GetIID@?$nsCOMTypeInfo@VnsIRDFContentSink@@@@SAABUnsID@@XZ ; 138
??_EEntry@Rule@@QAEPAXI@Z ; 138
?QueryInterface@RDFContentSinkImpl@@UAGIABUnsID@@PAPAX@Z ; 138
?FindDocumentForNode@XULPopupListenerImpl@@IAEIPAVnsIDOMNode@@PAPAVnsIDOMXULDocument@@@Z ; 138
??_I@YGXPAXIHP6EX0@Z@Z ; 138
??1?$nsCOMPtr@VnsIRDFContentSink@@@@QAE@XZ ; 138
??1VariableSet@@QAE@XZ ; 137
??0VariableSet@@QAE@XZ ; 137
?RecomputeBindings@Rule@@QBEIAAVConflictSet@@PAVMatch@@PAVnsIRDFResource@@2PAVnsIRDFNode@@3AAVVariableSet@@@Z ; 137
?GetCount@VariableSet@@QBEHXZ ; 137
??B?$nsCOMPtr@VnsIPopupSetBoxObject@@@@QBEPAV?$nsDerivedSafe@VnsIPopupSetBoxObject@@@@XZ ; 136
??C?$nsCOMPtr@VnsIPopupSetBoxObject@@@@QBEPAV?$nsDerivedSafe@VnsIPopupSetBoxObject@@@@XZ ; 136
??0?$nsGetterAddRefs@VnsIBoxObject@@@@QAE@AAV?$nsCOMPtr@VnsIBoxObject@@@@@Z ; 136
?GetIID@nsIPopupSetBoxObject@@SAABUnsID@@XZ ; 136
??0?$nsCOMPtr@VnsIPopupSetBoxObject@@@@QAE@ABVnsQueryInterface@@@Z ; 136
?assign_assuming_AddRef@?$nsCOMPtr@VnsIPopupSetBoxObject@@@@AAEXPAVnsIPopupSetBoxObject@@@Z ; 136
?GetIID@?$nsCOMTypeInfo@VnsIPopupSetBoxObject@@@@SAABUnsID@@XZ ; 136
??0?$nsCOMPtr@VnsIBoxObject@@@@QAE@XZ ; 136
??1?$nsGetterAddRefs@VnsIBoxObject@@@@QAE@XZ ; 136
?StartAssignment@?$nsCOMPtr@VnsIBoxObject@@@@QAEPAPAVnsIBoxObject@@XZ ; 136
??B?$nsGetterAddRefs@VnsIBoxObject@@@@QAEPAPAVnsIBoxObject@@XZ ; 136
?Equals@nsIURIKey@nsXULPrototypeCache@@UBEHPBVnsHashKey@@@Z ; 136
?getter_AddRefs@@YA?AV?$nsGetterAddRefs@VnsIBoxObject@@@@AAV?$nsCOMPtr@VnsIBoxObject@@@@@Z ; 136
?assign_from_helper@?$nsCOMPtr@VnsIPopupSetBoxObject@@@@AAEXABVnsCOMPtr_helper@@ABUnsID@@@Z ; 136
??1?$nsCOMPtr@VnsIPopupSetBoxObject@@@@QAE@XZ ; 135
?get@?$nsCOMPtr@VnsIStyleSet@@@@QBEPAV?$nsDerivedSafe@VnsIStyleSet@@@@XZ ; 135
?GetLocalName@nsXULTreeElement@@UAGIAAV?$basic_nsAWritableString@G@@@Z ; 135
?SetTooltipNode@nsXULDocument@@UAGIPAVnsIDOMNode@@@Z ; 135
??1?$nsCOMPtr@VnsIScriptObjectOwner@@@@QAE@XZ ; 134
??B?$nsCOMPtr@VnsIScriptObjectOwner@@@@QBEPAV?$nsDerivedSafe@VnsIScriptObjectOwner@@@@XZ ; 134
??1Element@RDFPropertyTestNode@@UAE@XZ ; 134
?assign_from_helper@?$nsCOMPtr@VnsIScriptObjectOwner@@@@AAEXABVnsCOMPtr_helper@@ABUnsID@@@Z ; 134
??1ClusterEntry@ConflictSet@@QAE@XZ ; 134
?get@?$nsCOMPtr@VnsIDOMXULTreeElement@@@@QBEPAV?$nsDerivedSafe@VnsIDOMXULTreeElement@@@@XZ ; 134
?FreeClusterEntry@ConflictSet@@KAXPAXPAUPLHashEntry@@I@Z ; 134
??_GClusterEntry@ConflictSet@@QAEPAXI@Z ; 134
??3Element@RDFPropertyTestNode@@SAXPAXI@Z ; 134
?assign_assuming_AddRef@?$nsCOMPtr@VnsIScriptObjectOwner@@@@AAEXPAVnsIScriptObjectOwner@@@Z ; 134
??0?$nsCOMPtr@VnsIScriptObjectOwner@@@@QAE@ABVnsQueryInterface@@@Z ; 134
??3ClusterEntry@ConflictSet@@SAXPAXI@Z ; 134
??_EElement@RDFPropertyTestNode@@UAEPAXI@Z ; 134
??1?$nsCOMPtr@VnsICSSParser@@@@QAE@XZ ; 131
?HasChildNodes@nsXULElement@@UAGIPAH@Z ; 131
?OpenMember@RDFContentSinkImpl@@MAEIABVnsIParserNode@@@Z ; 130
?CopyInto@MatchSet@@QBEIAAV1@AAVnsFixedSizeAllocator@@@Z ; 129
?GetTargets@FileSystemDataSource@@UAGIPAVnsIRDFResource@@0HPAPAVnsISimpleEnumerator@@@Z ; 128
?FreeEntry@ContentSupportMap@@KAXPAXPAUPLHashEntry@@I@Z ; 127
?GetScriptObject@nsXULPDGlobalObject@@UAGIPAVnsIScriptContext@@PAPAX@Z ; 127
?RemoveObserver@CompositeDataSourceImpl@@UAGIPAVnsIRDFObserver@@@Z ; 127
?GetIID@?$nsCOMTypeInfo@VnsIRDFObserver@@@@SAABUnsID@@XZ ; 126
?GetIID@nsIRDFObserver@@SAABUnsID@@XZ ; 126
?Assert_NoQueryNeeded@?$nsCOMPtr@VnsIChannel@@@@QAEXXZ ; 125
??B?$nsCOMPtr@VnsICSSLoader@@@@QBEPAV?$nsDerivedSafe@VnsICSSLoader@@@@XZ ; 125
?get@?$nsCOMPtr@VnsICSSParser@@@@QBEPAV?$nsDerivedSafe@VnsICSSParser@@@@XZ ; 123
?Type@Element@RDFContainerInstanceTestNode@@UBEPBDXZ ; 122
??_EDateImpl@@UAEPAXI@Z ; 121
??1DateImpl@@UAE@XZ ; 121
?assign_assuming_AddRef@?$nsCOMPtr@VnsIWeakReference@@@@AAEXPAVnsIWeakReference@@@Z ; 120
?assign_assuming_AddRef@?$nsCOMPtr@VnsIRDFInt@@@@AAEXPAVnsIRDFInt@@@Z ; 120
?get@?$nsCOMPtr@VnsIXULContentSink@@@@QBEPAV?$nsDerivedSafe@VnsIXULContentSink@@@@XZ ; 120
?GetIID@nsIRDFInt@@SAABUnsID@@XZ ; 120
??1?$nsCOMPtr@VnsIRDFInt@@@@QAE@XZ ; 120
?get@?$nsCOMPtr@VnsIHTMLContentContainer@@@@QBEPAV?$nsDerivedSafe@VnsIHTMLContentContainer@@@@XZ ; 120
?assign_from_helper@?$nsCOMPtr@VnsIRDFInt@@@@AAEXABVnsCOMPtr_helper@@ABUnsID@@@Z ; 120
??0?$nsCOMPtr@VnsIRDFInt@@@@QAE@ABVnsQueryInterface@@@Z ; 120
??B?$nsCOMPtr@VnsIRDFInt@@@@QBEPAV?$nsDerivedSafe@VnsIRDFInt@@@@XZ ; 120
?get@?$nsCOMPtr@VnsIRDFInt@@@@QBEPAV?$nsDerivedSafe@VnsIRDFInt@@@@XZ ; 120
?GetIID@?$nsCOMTypeInfo@VnsIRDFInt@@@@SAABUnsID@@XZ ; 120
?FreeEntry@MatchSet@@KAXPAXPAUPLHashEntry@@I@Z ; 119
?EnsureElementHasGenericChild@nsXULTemplateBuilder@@QAEIPAVnsIContent@@HPAVnsIAtom@@HPAPAV2@@Z ; 119
?InsertBefore@nsXULElement@@UAGIPAVnsIDOMNode@@0PAPAV2@@Z ; 119
?OnChange@CompositeDataSourceImpl@@UAGIPAVnsIRDFDataSource@@PAVnsIRDFResource@@1PAVnsIRDFNode@@2@Z ; 117
??B?$nsCOMPtr@VnsISimpleEnumerator@@@@QBEPAV?$nsDerivedSafe@VnsISimpleEnumerator@@@@XZ ; 117
?get@?$nsCOMPtr@VnsITextContent@@@@QBEPAV?$nsDerivedSafe@VnsITextContent@@@@XZ ; 117
??8ConstIterator@NodeSet@@QBEHABV01@@Z ; 116
?GetRootElement@nsXULPrototypeDocument@@UAGIPAPAVnsXULPrototypeElement@@@Z ; 116
?GetOverlayReferences@nsXULPrototypeDocument@@UAGIPAPAVnsISupportsArray@@@Z ; 116
?PrepareToWalk@nsXULDocument@@IAEIXZ ; 116
?GetTarget@FileSystemDataSource@@UAGIPAVnsIRDFResource@@0HPAPAVnsIRDFNode@@@Z ; 116
??4?$nsCOMPtr@VnsIContent@@@@QAEAAV0@ABVnsQueryInterface@@@Z ; 116
?AddChromeOverlays@nsXULDocument@@IAEIXZ ; 116
??B?$nsGetterAddRefs@VnsIXULPrototypeDocument@@@@QAEPAPAVnsIXULPrototypeDocument@@XZ ; 116
??1BindingEntry@ConflictSet@@QAE@XZ ; 114
??3BindingEntry@ConflictSet@@SAXPAXI@Z ; 114
?FreeBindingEntry@ConflictSet@@KAXPAXPAUPLHashEntry@@I@Z ; 114
??_GBindingEntry@ConflictSet@@QAEPAXI@Z ; 114
??1?$nsGetterAddRefs@VnsIChannel@@@@QAE@XZ ; 113
??9@YAHABV?$nsCOMPtr@VnsIScriptGlobalObject@@@@PAVNSCAP_Zero@@@Z ; 113
??0?$nsCOMPtr@VnsIScriptGlobalObjectOwner@@@@QAE@ABVnsQueryInterface@@@Z ; 113
?getter_AddRefs@@YA?AV?$nsGetterAddRefs@VnsIChannel@@@@AAV?$nsCOMPtr@VnsIChannel@@@@@Z ; 113
?ns_if_addref@@YAKPAVnsIScriptContext@@@Z ; 113
?GetScriptGlobalObject@nsXULPrototypeDocument@@UAGIPAPAVnsIScriptGlobalObject@@@Z ; 113
??1?$nsCOMPtr@VnsIScriptGlobalObjectOwner@@@@QAE@XZ ; 113
?assign_from_helper@?$nsCOMPtr@VnsIChannel@@@@AAEXABVnsCOMPtr_helper@@ABUnsID@@@Z ; 113
??0?$nsCOMPtr@VnsIChannel@@@@QAE@ABVnsQueryInterface@@@Z ; 113
??0?$nsGetterAddRefs@VnsIChannel@@@@QAE@AAV?$nsCOMPtr@VnsIChannel@@@@@Z ; 113
?CompileEventHandler@nsXULElement@@UAGIPAVnsIScriptContext@@PAXPAVnsIAtom@@ABV?$basic_nsAReadableString@G@@PAPAX@Z ; 113
??B?$nsGetterAddRefs@VnsIChannel@@@@QAEPAPAVnsIChannel@@XZ ; 113
??0?$nsCOMPtr@VnsIChannel@@@@QAE@XZ ; 113
?assign_assuming_AddRef@?$nsCOMPtr@VnsIScriptGlobalObjectOwner@@@@AAEXPAVnsIScriptGlobalObjectOwner@@@Z ; 113
?StartAssignment@?$nsCOMPtr@VnsIChannel@@@@QAEPAPAVnsIChannel@@XZ ; 113
??C?$nsCOMPtr@VnsIScriptGlobalObjectOwner@@@@QBEPAV?$nsDerivedSafe@VnsIScriptGlobalObjectOwner@@@@XZ ; 113
?GetContext@nsXULPDGlobalObject@@UAGIPAPAVnsIScriptContext@@@Z ; 113
??C?$nsCOMPtr@VnsIChannel@@@@QBEPAV?$nsDerivedSafe@VnsIChannel@@@@XZ ; 113
??C?$nsCOMPtr@VnsIScriptObjectOwner@@@@QBEPAV?$nsDerivedSafe@VnsIScriptObjectOwner@@@@XZ ; 113
?get@?$nsCOMPtr@VnsIScriptGlobalObjectOwner@@@@QBEPAV?$nsDerivedSafe@VnsIScriptGlobalObjectOwner@@@@XZ ; 113
?assign_from_helper@?$nsCOMPtr@VnsIScriptGlobalObjectOwner@@@@AAEXABVnsCOMPtr_helper@@ABUnsID@@@Z ; 113
??1?$nsCOMPtr@VnsICSSStyleSheet@@@@QAE@XZ ; 112
?assign_assuming_AddRef@?$nsCOMPtr@VnsICSSStyleSheet@@@@AAEXPAVnsICSSStyleSheet@@@Z ; 112
??0?$nsCOMPtr@VnsIWeakReference@@@@QAE@XZ ; 111
?GetControllerAt@nsXULControllers@@UAGIIPAPAVnsIController@@@Z ; 111
??0nsIContentSink@@QAE@XZ ; 109
??0?$nsCOMPtr@VnsIStreamListener@@@@QAE@ABVnsQueryInterface@@@Z ; 109
??B?$nsGetterAddRefs@VnsIParser@@@@QAEPAPAXXZ ; 109
??0nsIXMLContentSink@@QAE@XZ ; 109
?assign_from_helper@?$nsCOMPtr@VnsIStreamListener@@@@AAEXABVnsCOMPtr_helper@@ABUnsID@@@Z ; 109
??1InstantiationNode@@UAE@XZ ; 108
?GetIID@nsIStreamObserver@@SAABUnsID@@XZ ; 108
?HasArcOut@FileSystemDataSource@@UAGIPAVnsIRDFResource@@0PAH@Z ; 108
??_GRule@@QAEPAXI@Z ; 108
??_EInstantiationNode@@UAEPAXI@Z ; 108
??1Rule@@QAE@XZ ; 108
?GetIID@?$nsCOMTypeInfo@VnsIStreamObserver@@@@SAABUnsID@@XZ ; 108
?CreateElement@nsXULDocument@@IAEIPAVnsINodeInfo@@PAPAVnsIContent@@@Z ; 107
?ns_if_addref@@YAKPAVnsIAtom@@@Z ; 107
?GetFocusedWindow@nsXULCommandDispatcher@@UAGIPAPAVnsIDOMWindowInternal@@@Z ; 107
?GetControllerCount@nsXULControllers@@UAGIPAI@Z ; 107
??0NameSpaceMap@RDFXMLDataSourceImpl@@QAE@XZ ; 107
?CreateElement@nsXULDocument@@UAGIABV?$basic_nsAReadableString@G@@PAPAVnsIDOMElement@@@Z ; 106
?assign_assuming_AddRef@?$nsCOMPtr@VnsIDOMXULCommandDispatcher@@@@AAEXPAVnsIDOMXULCommandDispatcher@@@Z ; 106
??0nsXULPrototypeScript@@QAE@HPBD@Z ; 105
?Destroy@ConflictSet@@IAEIXZ ; 105
?OpenScript@XULContentSinkImpl@@IAEIABVnsIParserNode@@@Z ; 105
??0nsIStreamObserver@@QAE@XZ ; 105
?Compile@nsXULPrototypeScript@@QAEIPBGHPAVnsIURI@@HPAVnsIDocument@@PAVnsIXULPrototypeDocument@@@Z ; 105
?Finish@ContentSupportMap@@IAEXXZ ; 105
?ArcLabelsOut@RDFXMLDataSourceImpl@@UAGIPAVnsIRDFResource@@PAPAVnsISimpleEnumerator@@@Z ; 104
?assign_with_AddRef@?$nsCOMPtr@VnsIStreamListener@@@@AAEXPAVnsISupports@@@Z ; 103
??1?$nsCOMPtr@VnsIDOMXULCommandDispatcher@@@@QAE@XZ ; 103
?Retract@RDFPropertyTestNode@@UBEXPAVnsIRDFResource@@0PAVnsIRDFNode@@AAVMatchSet@@2@Z ; 103
??4?$nsCOMPtr@VnsIStreamListener@@@@QAEAAV0@PAVnsIStreamListener@@@Z ; 103
?assign_assuming_AddRef@?$nsCOMPtr@VnsICSSLoader@@@@AAEXPAVnsICSSLoader@@@Z ; 102
?WillResume@RDFContentSinkImpl@@UAGIXZ ; 101
?NS_OpenURI@@YAIPAPAVnsIChannel@@PAVnsIURI@@PAVnsIIOService@@PAVnsILoadGroup@@PAVnsIInterfaceRequestor@@III@Z ; 101
?Resume@RDFXMLDataSourceImpl@@UAGIXZ ; 101
??1?$nsCOMPtr@VnsICSSLoader@@@@QAE@XZ ; 100
?GetIID@nsIRDFXMLSource@@SAABUnsID@@XZ ; 100
?assign_assuming_AddRef@?$nsCOMPtr@VnsICSSParser@@@@AAEXPAVnsICSSParser@@@Z ; 100
?GetIID@?$nsCOMTypeInfo@VnsIRDFXMLSource@@@@SAABUnsID@@XZ ; 100
?GetURI@RDFXMLDataSourceImpl@@UAGIPAPAD@Z ; 100
?Flush@RDFXMLDataSourceImpl@@UAGIXZ ; 98
?getter_AddRefs@@YA?AV?$nsGetterAddRefs@VnsIStreamLoader@@@@AAV?$nsCOMPtr@VnsIStreamLoader@@@@@Z ; 98
??B?$nsGetterAddRefs@VnsIStreamLoader@@@@QAEPAPAXXZ ; 98
??0?$nsCOMPtr@VnsIStreamLoader@@@@QAE@XZ ; 98
?OnStreamComplete@nsXULDocument@@UAGIPAVnsIStreamLoader@@PAVnsISupports@@IIPBD@Z ; 98
?Assert_NoQueryNeeded@?$nsCOMPtr@VnsIStreamLoader@@@@QAEXXZ ; 98
??B?$nsCOMPtr@VnsIStreamLoader@@@@QBEPAV?$nsDerivedSafe@VnsIStreamLoader@@@@XZ ; 98
??C?$nsCOMPtr@VnsIStreamLoader@@@@QBEPAV?$nsDerivedSafe@VnsIStreamLoader@@@@XZ ; 98
??0?$nsCOMPtr@VnsIStreamLoader@@@@QAE@ABVnsQueryInterface@@@Z ; 98
??1?$nsGetterAddRefs@VnsIStreamLoader@@@@QAE@XZ ; 98
??0?$nsGetterAddRefs@VnsIStreamLoader@@@@QAE@AAV?$nsCOMPtr@VnsIStreamLoader@@@@@Z ; 98
??4?$nsCOMPtr@VnsIURI@@@@QAEAAV0@ABV0@@Z ; 98
?assign_from_helper@?$nsCOMPtr@VnsIStreamLoader@@@@AAEXABVnsCOMPtr_helper@@ABUnsID@@@Z ; 98
?NS_NewStreamLoader@@YAIPAPAVnsIStreamLoader@@PAVnsIURI@@PAVnsIStreamLoaderObserver@@PAVnsISupports@@PAVnsILoadGroup@@PAVnsIInterfaceRequestor@@III@Z ; 98
?StartAssignment@?$nsCOMPtr@VnsIStreamLoader@@@@QAEPAPAVnsIStreamLoader@@XZ ; 98
?assign_assuming_AddRef@?$nsCOMPtr@VnsIDOMXULTreeElement@@@@AAEXPAVnsIDOMXULTreeElement@@@Z ; 97
??_GnsArrayEnumerator@@UAEPAXI@Z ; 97
?GetCompiledEventHandler@nsXULElement@@UAGIPAVnsIAtom@@PAPAX@Z ; 97
?Hash@Element@RDFPropertyTestNode@@UBEIXZ ; 97
??1ConflictSet@@QAE@XZ ; 96
?Release@ParserObserver@nsXULDocument@@UAGKXZ ; 96
??1nsRDFSortState@@QAE@XZ ; 96
?OpenContainer@nsXULTemplateBuilder@@UAGIPAVnsIContent@@@Z ; 96
??1RootNode@@UAE@XZ ; 96
?Propogate@RootNode@@UAEIABVInstantiationSet@@PAX@Z ; 96
?CompileEventHandler@nsXULElement@@UAGIPAVnsIScriptContext@@PAXPAVnsIAtom@@ABV?$basic_nsAReadableString@G@@PAPAX@Z ; 96
??1nsRuleNetwork@@QAE@XZ ; 96
??1ContentSupportMap@@QAE@XZ ; 96
??_ECompositeDataSourceImpl@@MAEPAXI@Z ; 96
??1nsXULTemplateBuilder@@UAE@XZ ; 96
??1CompositeDataSourceImpl@@MAE@XZ ; 96
??_EnsXULTemplateBuilder@@UAEPAXI@Z ; 96
?AddRef@ParserObserver@nsXULDocument@@UAGKXZ ; 96
?CloseContainer@nsXULTemplateBuilder@@UAGIPAVnsIContent@@@Z ; 96
?GetAllResources@InMemoryDataSource@@UAGIPAPAVnsISimpleEnumerator@@@Z ; 96
?RemoveObserver@LocalStoreImpl@@UAGIPAVnsIRDFObserver@@@Z ; 95
?AddRef@IntImpl@@UAGKXZ ; 94
?GetIID@?$nsCOMTypeInfo@VnsISecurityCheckedComponent@@@@SAABUnsID@@XZ ; 93
?GetIID@nsISecurityCheckedComponent@@SAABUnsID@@XZ ; 93
?SetSortHints@XULSortServiceImpl@@AAEIPAVnsIContent@@ABVnsString@@11HH@Z ; 92
?Propogate@InstantiationNode@@UAEIABVInstantiationSet@@PAX@Z ; 92
?AppendChild@nsXULElement@@UAGIPAVnsIDOMNode@@PAPAV2@@Z ; 91
?assign_assuming_AddRef@?$nsCOMPtr@VnsIStyleSet@@@@AAEXPAVnsIStyleSet@@@Z ; 90
??1?$nsCOMPtr@VnsIStyleSet@@@@QAE@XZ ; 90
?HasAncestor@TestNode@@UBEHPBVReteNode@@@Z ; 89
?Clone@nsIURIKey@nsXULPrototypeCache@@UBEPAVnsHashKey@@XZ ; 89
?Release@IntImpl@@UAGKXZ ; 88
?GetAttributeStyleSheet@nsXULDocument@@UAGIPAPAVnsIHTMLStyleSheet@@@Z ; 87
?RemoveObserver@InMemoryDataSource@@UAGIPAVnsIRDFObserver@@@Z ; 87
??0ContentTestNode@nsXULTemplateBuilder@@QAE@PAVInnerNode@@AAVConflictSet@@PAVnsIXULDocument@@PAVnsIContent@@HHPAVnsIAtom@@@Z ; 87
??0RDFContainerMemberTestNode@@QAE@PAVInnerNode@@AAVConflictSet@@PAVnsIRDFDataSource@@ABVResourceSet@@HH@Z ; 87
?AddComment@RDFContentSinkImpl@@UAGIABVnsIParserNode@@@Z ; 85
??4?$nsCOMPtr@VnsIStyleRule@@@@QAEAAV0@ABV0@@Z ; 84
?WillResume@XULContentSinkImpl@@UAGIXZ ; 82
?InitContainer@RDFContentSinkImpl@@IAEIPAVnsIRDFResource@@0@Z ; 82
?ContentAppended@nsXULDocument@@UAGIPAVnsIContent@@H@Z ; 82
??C?$nsCOMPtr@VnsIRDFDate@@@@QBEPAV?$nsDerivedSafe@VnsIRDFDate@@@@XZ ; 82
?IsSeq@RDFContainerUtilsImpl@@UAGIPAVnsIRDFDataSource@@PAVnsIRDFResource@@PAH@Z ; 82
?ProcessStyleLink@XULContentSinkImpl@@IAEIPAVnsIContent@@ABVnsString@@H111@Z ; 81
??0?$nsCOMPtr@VnsICSSParser@@@@QAE@XZ ; 81
?get@?$basic_nsLiteralString@G@@QBEPBGXZ ; 80
?QueryInterface@XULContentSinkImpl@@UAGIABUnsID@@PAPAX@Z ; 80
??1?$nsCOMPtr@VnsIXULContentSink@@@@QAE@XZ ; 80
?MouseDblClick@XULPopupListenerImpl@@UAEIPAVnsIDOMEvent@@@Z ; 80
?assign_assuming_AddRef@?$nsCOMPtr@VnsIXULContentSink@@@@AAEXPAVnsIXULContentSink@@@Z ; 80
??B?$nsCOMPtr@VnsIParser@@@@QBEPAV?$nsDerivedSafe@VnsIParser@@@@XZ ; 80
?ComputeContainmentProperties@nsXULTemplateBuilder@@QAEIXZ ; 79
?GetFlags@nsXULTemplateBuilder@@QAEIXZ ; 79
?InitializeRuleNetwork@nsXULTemplateBuilder@@QAEIPAPAVInnerNode@@@Z ; 79
?RegisterDataSource@RDFServiceImpl@@UAGIPAVnsIRDFDataSource@@H@Z ; 79
?GetListenerManager@nsXULDocument@@UAGIPAPAVnsIEventListenerManager@@@Z ; 79
??4nsCOMPtr_helper@@QAEAAV0@ABV0@@Z ; 79
?NS_MAX@@YAABHABH0@Z ; 79
?CompileRules@nsXULTemplateBuilder@@QAEIXZ ; 79
?GetIID@nsITextContent@@SAABUnsID@@XZ ; 78
?assign_assuming_AddRef@?$nsCOMPtr@VnsITextContent@@@@AAEXPAVnsITextContent@@@Z ; 78
??_GNameSpaceEntry@RDFContentSinkImpl@@QAEPAXI@Z ; 78
??0NameSpaceEntry@RDFContentSinkImpl@@QAE@PAVnsIAtom@@PBD@Z ; 78
??1NameSpaceEntry@RDFContentSinkImpl@@QAE@XZ ; 78
?GetIID@?$nsCOMTypeInfo@VnsITextContent@@@@SAABUnsID@@XZ ; 78
??1?$nsCOMPtr@VnsITextContent@@@@QAE@XZ ; 78
??0InMemoryDataSource@@IAE@PAVnsISupports@@@Z ; 76
?NS_NewRDFInMemoryDataSource@@YGIPAVnsISupports@@ABUnsID@@PAPAX@Z ; 76
?AddPrototypeSheets@nsXULDocument@@IAEIXZ ; 76
?GetStyleSheetReferences@nsXULPrototypeDocument@@UAGIPAPAVnsISupportsArray@@@Z ; 76
??0?$nsCOMPtr@VnsIXULPrototypeDocument@@@@QAE@XZ ; 76
??0nsIRDFPurgeableDataSource@@QAE@XZ ; 76
?Init@InMemoryDataSource@@IAEIXZ ; 76
??0Internal@InMemoryDataSource@@QAE@XZ ; 76
?AddProcessingInstruction@XULContentSinkImpl@@UAGIABVnsIParserNode@@@Z ; 74
??4?$nsCOMPtr@VnsIRDFNode@@@@QAEAAV0@ABVnsQueryInterface@@@Z ; 73
??0nsIStreamListener@@QAE@XZ ; 73
?Last@?$basic_nsAReadableString@G@@QBEGXZ ; 73
??0RDFPropertyTestNode@@QAE@PAVInnerNode@@AAVConflictSet@@PAVnsIRDFDataSource@@HPAVnsIRDFResource@@PAVnsIRDFNode@@@Z ; 73
?size_backward@?$nsReadingIterator@G@@QBEHXZ ; 73
??_ERDFPropertyTestNode@@UAEPAXI@Z ; 72
?OnChange@nsXULTemplateBuilder@@UAGIPAVnsIRDFDataSource@@PAVnsIRDFResource@@1PAVnsIRDFNode@@2@Z ; 72
??0?$already_AddRefed@VnsIContent@@@@QAE@PAVnsIContent@@@Z ; 72
?GetParentNode@nsXULDocument@@UAGIPAPAVnsIDOMNode@@@Z ; 72
??B?$nsCOMPtr@VnsIStreamListener@@@@QBEPAV?$nsDerivedSafe@VnsIStreamListener@@@@XZ ; 72
??0?$nsCOMPtr@VnsIContent@@@@QAE@ABU?$already_AddRefed@VnsIContent@@@@@Z ; 72
??B?$nsGetterAddRefs@VnsIContent@@@@QAEPAPAXXZ ; 72
?InnerXULElement@nsXULElement@@IBEPAVnsXULAggregateElement@@XZ ; 72
?InsertFromReadable@?$basic_nsAWritableString@G@@IAEXABV?$basic_nsAReadableString@G@@I@Z ; 72
?dont_AddRef@@YA?BU?$already_AddRefed@VnsIContent@@@@PAVnsIContent@@@Z ; 72
??1RDFPropertyTestNode@@UAE@XZ ; 72
?Insert@?$basic_nsAWritableString@G@@QAEXABV?$basic_nsAReadableString@G@@I@Z ; 72
?Assert_NoQueryNeeded@?$nsCOMPtr@VnsIDOMDocument@@@@QAEXXZ ; 70
??0nsIRDFRemoteDataSource@@QAE@XZ ; 70
?Clone@Element@RDFPropertyTestNode@@UBEPAVMemoryElement@@PAX@Z ; 70
?sTooltipCallback@XULPopupListenerImpl@@CAXPAVnsITimer@@PAX@Z ; 70
??0?$nsCOMPtr@VnsIDOMDocument@@@@QAE@XZ ; 70
??1?$nsGetterAddRefs@VnsIDOMDocument@@@@QAE@XZ ; 70
??B?$nsGetterAddRefs@VnsIDOMDocument@@@@QAEPAPAVnsIDOMDocument@@XZ ; 70
??0?$nsGetterAddRefs@VnsIDOMDocument@@@@QAE@AAV?$nsCOMPtr@VnsIDOMDocument@@@@@Z ; 70
?StartAssignment@?$nsCOMPtr@VnsIDOMDocument@@@@QAEPAPAVnsIDOMDocument@@XZ ; 70
?getter_AddRefs@@YA?AV?$nsGetterAddRefs@VnsIDOMDocument@@@@AAV?$nsCOMPtr@VnsIDOMDocument@@@@@Z ; 70
??0RDFContentSinkImpl@@QAE@XZ ; 69
?MakeElementID@nsXULContentUtils@@UAGIPAVnsIDocument@@ABV?$basic_nsAReadableString@G@@AAV?$basic_nsAWritableString@G@@@Z ; 69
??_ERDFContentSinkImpl@@UAEPAXI@Z ; 69
?NS_NewRDFContentSink@@YAIPAPAVnsIRDFContentSink@@@Z ; 69
??0nsIRDFXMLSink@@QAE@XZ ; 69
??0?$nsGetterAddRefs@VnsIRDFContentSink@@@@QAE@AAV?$nsCOMPtr@VnsIRDFContentSink@@@@@Z ; 69
_NSGetModule ; 69
??0nsIRDFContentSink@@QAE@XZ ; 69
?Refresh@RDFXMLDataSourceImpl@@UAGIH@Z ; 69
?SetDataSource@RDFContentSinkImpl@@UAGIPAVnsIRDFDataSource@@@Z ; 69
?Init@RDFXMLDataSourceImpl@@IAEIXZ ; 69
??0?$nsCOMPtr@VnsIRDFContentSink@@@@QAE@XZ ; 69
?Assert_NoQueryNeeded@?$nsCOMPtr@VnsIRDFContentSink@@@@QAEXXZ ; 69
??0?$nsCOMPtr@VnsIRDFContentSink@@@@QAE@ABVnsQueryInterface@@@Z ; 69
??1?$nsGetterAddRefs@VnsIStreamListener@@@@QAE@XZ ; 69
?SetParser@RDFContentSinkImpl@@UAGIPAVnsIParser@@@Z ; 69
??B?$nsCOMPtr@VnsIRDFContentSink@@@@QBEPAV?$nsDerivedSafe@VnsIRDFContentSink@@@@XZ ; 69
??B?$nsGetterAddRefs@VnsIStreamListener@@@@QAEPAPAXXZ ; 69
??0nsIRDFXMLSource@@QAE@XZ ; 69
?getter_AddRefs@@YA?AV?$nsGetterAddRefs@VnsIStreamListener@@@@AAV?$nsCOMPtr@VnsIStreamListener@@@@@Z ; 69
?assign_from_helper@?$nsCOMPtr@VnsIRDFContentSink@@@@AAEXABVnsCOMPtr_helper@@ABUnsID@@@Z ; 69
?Init@RDFXMLDataSourceImpl@@UAGIPBD@Z ; 69
??0?$nsGetterAddRefs@VnsIStreamListener@@@@QAE@AAV?$nsCOMPtr@VnsIStreamListener@@@@@Z ; 69
??0?$nsCOMPtr@VnsIStreamListener@@@@QAE@XZ ; 69
??1?$nsGetterAddRefs@VnsIRDFContentSink@@@@QAE@XZ ; 69
?NS_NewRDFXMLDataSource@@YAIPAPAVnsIRDFDataSource@@@Z ; 69
??B?$nsGetterAddRefs@VnsIRDFContentSink@@@@QAEPAPAXXZ ; 69
?getter_AddRefs@@YA?AV?$nsGetterAddRefs@VnsIRDFContentSink@@@@AAV?$nsCOMPtr@VnsIRDFContentSink@@@@@Z ; 69
??0RDFXMLDataSourceImpl@@IAE@XZ ; 69
?StartAssignment@?$nsCOMPtr@VnsIStreamListener@@@@QAEPAPAVnsIStreamListener@@XZ ; 69
?StartAssignment@?$nsCOMPtr@VnsIRDFContentSink@@@@QAEPAPAVnsIRDFContentSink@@XZ ; 69
?Init@RDFContentSinkImpl@@UAGIPAVnsIURI@@@Z ; 69
_NSGetModule ; 69
??1RDFContentSinkImpl@@UAE@XZ ; 69
??9@YAHABV?$nsCOMPtr@VnsIDOMWindowInternal@@@@PAVNSCAP_Zero@@@Z ; 68
?get@?$nsCOMPtr@VnsIDOMWindowInternal@@@@QBEPAV?$nsDerivedSafe@VnsIDOMWindowInternal@@@@XZ ; 68
?assign_assuming_AddRef@?$nsCOMPtr@VnsIMenuBoxObject@@@@AAEXPAVnsIMenuBoxObject@@@Z ; 68
?LaunchPopup@XULPopupListenerImpl@@MAEIHH@Z ; 68
?GetIID@nsIDOMWindowInternal@@SAABUnsID@@XZ ; 68
?GetIID@nsIMenuBoxObject@@SAABUnsID@@XZ ; 68
?assign_from_helper@?$nsCOMPtr@VnsIDOMWindowInternal@@@@AAEXABVnsCOMPtr_helper@@ABUnsID@@@Z ; 68
?GetIID@?$nsCOMTypeInfo@VnsIMenuBoxObject@@@@SAABUnsID@@XZ ; 68
??C?$nsCOMPtr@VnsPIBoxObject@@@@QBEPAV?$nsDerivedSafe@VnsPIBoxObject@@@@XZ ; 68
?assign_assuming_AddRef@?$nsCOMPtr@VnsIDOMWindowInternal@@@@AAEXPAVnsIDOMWindowInternal@@@Z ; 68
??0?$nsCOMPtr@VnsIMenuBoxObject@@@@QAE@ABVnsQueryInterface@@@Z ; 68
?GetIID@?$nsCOMTypeInfo@VnsIDOMWindowInternal@@@@SAABUnsID@@XZ ; 68
??B?$nsCOMPtr@VnsIDOMXULTreeElement@@@@QBEPAV?$nsDerivedSafe@VnsIDOMXULTreeElement@@@@XZ ; 68
??0?$nsCOMPtr@VnsIDocument@@@@QAE@ABVnsCOMPtr_helper@@@Z ; 68
??0?$nsCOMPtr@VnsIDOMWindowInternal@@@@QAE@ABVnsQueryInterface@@@Z ; 68
?assign_from_helper@?$nsCOMPtr@VnsIMenuBoxObject@@@@AAEXABVnsCOMPtr_helper@@ABUnsID@@@Z ; 68
??1?$nsCOMPtr@VnsIMenuBoxObject@@@@QAE@XZ ; 67
?AddEventListener@nsXULDocument@@UAGIABV?$basic_nsAReadableString@G@@PAVnsIDOMEventListener@@H@Z ; 67
??1?$nsCOMPtr@VnsIDOMWindowInternal@@@@QAE@XZ ; 67
?CreateAutoHideTimer@XULPopupListenerImpl@@IAEXXZ ; 67
?SerializePrologue@RDFXMLDataSourceImpl@@QAEIPAVnsIOutputStream@@@Z ; 66
??1?$nsCOMPtr@VnsIOutputStream@@@@QAE@XZ ; 66
?IsAttrImpactedByVars@nsXULTemplateBuilder@@QAEHAAVMatch@@ABV?$basic_nsAReadableString@G@@ABVVariableSet@@@Z ; 66
?get@?$nsCOMPtr@VnsIOutputStream@@@@QBEPAV?$nsDerivedSafe@VnsIOutputStream@@@@XZ ; 66
?SerializeEpilogue@RDFXMLDataSourceImpl@@QAEIPAVnsIOutputStream@@@Z ; 66
?GetTooltipNode@nsXULDocument@@UAGIPAPAVnsIDOMNode@@@Z ; 66
??9@YAHABV?$nsCOMPtr@VnsIAtom@@@@0@Z ; 66
?Serialize@RDFXMLDataSourceImpl@@UAGIPAVnsIOutputStream@@@Z ; 66
??0IsVarInSetClosure@@QAE@AAVMatch@@ABVVariableSet@@@Z ; 66
?NS_OpenURI@@YAIPAPAVnsIChannel@@PAVnsIURI@@PAVnsIIOService@@PAVnsILoadGroup@@PAVnsIInterfaceRequestor@@III@Z ; 66
??B?$nsCOMPtr@VnsIOutputStream@@@@QBEPAV?$nsDerivedSafe@VnsIOutputStream@@@@XZ ; 66
?ContentInserted@nsXULDocument@@UAGIPAVnsIContent@@0H@Z ; 66
?Retract@RDFContainerInstanceTestNode@@UBEXPAVnsIRDFResource@@0PAVnsIRDFNode@@AAVMatchSet@@2@Z ; 65
?SetContainerAttrs@nsXULTemplateBuilder@@QAEIPAVnsIContent@@PBVMatch@@@Z ; 65
?assign_from_helper@?$nsCOMPtr@VnsIDOMXULTreeElement@@@@AAEXABVnsCOMPtr_helper@@ABUnsID@@@Z ; 65
??0RDFContainerInstanceTestNode@@QAE@PAVInnerNode@@AAVConflictSet@@PAVnsIRDFDataSource@@ABVResourceSet@@HW4Test@0@4@Z ; 65
?WillInterrupt@RDFContentSinkImpl@@UAGIXZ ; 64
?OnDataAvailable@RDFXMLDataSourceImpl@@UAGIPAVnsIChannel@@PAVnsISupports@@PAVnsIInputStream@@II@Z ; 64
??4?$nsCOMPtr@VnsIRDFDataSource@@@@QAEAAV0@ABV0@@Z ; 64
?Interrupt@RDFXMLDataSourceImpl@@UAGIXZ ; 64
?GetIID@?$nsCOMTypeInfo@VnsIDOMNamedNodeMap@@@@SAABUnsID@@XZ ; 62
??_GNameSpaceMap@RDFXMLDataSourceImpl@@QAEPAXI@Z ; 62
??C?$nsCOMPtr@VnsICSSLoader@@@@QBEPAV?$nsDerivedSafe@VnsICSSLoader@@@@XZ ; 62
??1NameSpaceMap@RDFXMLDataSourceImpl@@QAE@XZ ; 62
?QueryInterface@nsXULAttributes@@UAGIABUnsID@@PAPAX@Z ; 62
?GetAttributes@nsXULElement@@UAGIPAPAVnsIDOMNamedNodeMap@@@Z ; 62
?GetIID@?$nsCOMTypeInfo@VnsICSSLoader@@@@SAABUnsID@@XZ ; 62
?GetIID@nsIDOMNamedNodeMap@@SAABUnsID@@XZ ; 62
?GetLength@nsXULAttributes@@UAGIPAI@Z ; 62
?GetIID@nsICSSLoader@@SAABUnsID@@XZ ; 62
?SetBuffer@ProxyStream@@QAEXPBDI@Z ; 61
?ReadSegments@ProxyStream@@UAGIP6GIPAVnsIInputStream@@PAXPBDIIPAI@Z1I3@Z ; 61
?SetFocus@nsXULElement@@UAGIPAVnsIPresContext@@@Z ; 61
?Assert_NoQueryNeeded@?$nsCOMPtr@VnsIWeakReference@@@@QAEXXZ ; 60
??4?$nsCOMPtr@VnsIWeakReference@@@@QAEAAV0@ABU?$already_AddRefed@VnsIWeakReference@@@@@Z ; 60
?assign_from_helper@?$nsCOMPtr@VnsIWeakReference@@@@AAEXABVnsCOMPtr_helper@@ABUnsID@@@Z ; 60
?getter_AddRefs@@YA?BU?$already_AddRefed@VnsIWeakReference@@@@PAVnsIWeakReference@@@Z ; 60
?GetIID@nsIWeakReference@@SAABUnsID@@XZ ; 60
??0?$already_AddRefed@VnsIWeakReference@@@@QAE@PAVnsIWeakReference@@@Z ; 60
??0?$nsCOMPtr@VnsIDOMXULTreeElement@@@@QAE@ABVnsQueryInterface@@@Z ; 60
??0?$nsCOMPtr@VnsIWeakReference@@@@QAE@ABVnsQueryInterface@@@Z ; 60
?GetIID@?$nsCOMTypeInfo@VnsIWeakReference@@@@SAABUnsID@@XZ ; 60
?GetIID@nsICSSParser@@SAABUnsID@@XZ ; 59
?GetIID@?$nsCOMTypeInfo@VnsICSSParser@@@@SAABUnsID@@XZ ; 59
?IsEmpty@RDFContainerUtilsImpl@@UAGIPAVnsIRDFDataSource@@PAVnsIRDFResource@@PAH@Z ; 59
??0nsXULControllers@@IAE@XZ ; 58
?GetDocumentLoadGroup@nsXULDocument@@UBGIPAPAVnsILoadGroup@@@Z ; 58
?ns_if_addref@@YAKPAVnsILoadGroup@@@Z ; 58
?NS_NewXULControllers@@YGIPAVnsISupports@@ABUnsID@@PAPAX@Z ; 58
?GetCSSLoader@nsXULDocument@@UAGIAAPAVnsICSSLoader@@@Z ; 58
?GetElementsByTagName@nsXULDocument@@SAIPAVnsIContent@@ABV?$basic_nsAReadableString@G@@HPAVnsRDFDOMNodeList@@@Z ; 58
?ns_if_addref@@YAKPAVnsICSSLoader@@@Z ; 58
??0nsIControllers@@QAE@XZ ; 58
??0nsISecurityCheckedComponent@@QAE@XZ ; 58
??C?$nsCOMPtr@VnsICSSParser@@@@QBEPAV?$nsDerivedSafe@VnsICSSParser@@@@XZ ; 57
?Assert_NoQueryNeeded@?$nsCOMPtr@VnsICSSStyleSheet@@@@QAEXXZ ; 56
?getter_AddRefs@@YA?AV?$nsGetterAddRefs@VnsICSSStyleSheet@@@@AAV?$nsCOMPtr@VnsICSSStyleSheet@@@@@Z ; 56
?GetIID@nsICSSStyleSheet@@SAABUnsID@@XZ ; 56
?assign_from_helper@?$nsCOMPtr@VnsICSSStyleSheet@@@@AAEXABVnsCOMPtr_helper@@ABUnsID@@@Z ; 56
??0?$nsGetterAddRefs@VnsICSSStyleSheet@@@@QAE@AAV?$nsCOMPtr@VnsICSSStyleSheet@@@@@Z ; 56
??0?$nsCOMPtr@VnsICSSStyleSheet@@@@QAE@XZ ; 56
??B?$nsCOMPtr@VnsICSSStyleSheet@@@@QBEPAV?$nsDerivedSafe@VnsICSSStyleSheet@@@@XZ ; 56
?GetIID@?$nsCOMTypeInfo@VnsICSSStyleSheet@@@@SAABUnsID@@XZ ; 56
??0?$nsCOMPtr@VnsICSSStyleSheet@@@@QAE@ABVnsQueryInterface@@@Z ; 56
??1?$nsGetterAddRefs@VnsICSSStyleSheet@@@@QAE@XZ ; 56
?assign_with_AddRef@?$nsCOMPtr@VnsIXULPrototypeDocument@@@@AAEXPAVnsISupports@@@Z ; 56
??2Element@RDFContainerInstanceTestNode@@SAPAXIAAVnsFixedSizeAllocator@@@Z ; 56
?StartAssignment@?$nsCOMPtr@VnsICSSStyleSheet@@@@QAEPAPAVnsICSSStyleSheet@@XZ ; 56
??0Element@RDFContainerInstanceTestNode@@QAE@PAVnsIRDFResource@@W4Test@1@1@Z ; 56
??_GRDFContainerInstanceTestNode@@UAEPAXI@Z ; 55
?GetNextSibling@nsXULElement@@UAGIPAPAVnsIDOMNode@@@Z ; 55
??1RDFContainerInstanceTestNode@@UAE@XZ ; 55
??C?$nsCOMPtr@VnsITextContent@@@@QBEPAV?$nsDerivedSafe@VnsITextContent@@@@XZ ; 55
?GetIID@nsINameSpaceManager@@SAABUnsID@@XZ ; 54
?ArcLabelsOut@LocalStoreImpl@@UAGIPAVnsIRDFResource@@PAPAVnsISimpleEnumerator@@@Z ; 54
?GetIID@?$nsCOMTypeInfo@VnsINameSpaceManager@@@@SAABUnsID@@XZ ; 54
??0?$nsCOMPtr@VnsIDOMXULCommandDispatcher@@@@QAE@XZ ; 53
?AddOverlayReference@nsXULPrototypeDocument@@UAGIPAVnsIURI@@@Z ; 53
??1?$nsGetterAddRefs@VnsIDOMXULCommandDispatcher@@@@QAE@XZ ; 53
??B?$nsGetterAddRefs@VnsIDOMXULCommandDispatcher@@@@QAEPAPAVnsIDOMXULCommandDispatcher@@XZ ; 53
?StartAssignment@?$nsCOMPtr@VnsIDOMXULCommandDispatcher@@@@QAEPAPAVnsIDOMXULCommandDispatcher@@XZ ; 53
?getter_AddRefs@@YA?AV?$nsGetterAddRefs@VnsIDOMXULCommandDispatcher@@@@AAV?$nsCOMPtr@VnsIDOMXULCommandDispatcher@@@@@Z ; 53
?AppendController@nsXULControllers@@UAGIPAVnsIController@@@Z ; 53
?Assert_NoQueryNeeded@?$nsCOMPtr@VnsIDOMXULCommandDispatcher@@@@QAEXXZ ; 53
??0?$nsGetterAddRefs@VnsIDOMXULCommandDispatcher@@@@QAE@AAV?$nsCOMPtr@VnsIDOMXULCommandDispatcher@@@@@Z ; 53
?assign_from_helper@?$nsCOMPtr@VnsIDOMXULCommandDispatcher@@@@AAEXABVnsCOMPtr_helper@@ABUnsID@@@Z ; 53
??0?$nsCOMPtr@VnsIDOMXULCommandDispatcher@@@@QAE@ABVnsQueryInterface@@@Z ; 53
?get@?$nsCOMPtr@VnsIDOMEventReceiver@@@@QBEPAV?$nsDerivedSafe@VnsIDOMEventReceiver@@@@XZ ; 52
?AddObserver@nsXULDocument@@UAEXPAVnsIDocumentObserver@@@Z ; 52
?AddStyleSheetToStyleSets@nsXULDocument@@QAEXPAVnsIStyleSheet@@@Z ; 52
?Contains@VariableSet@@QBEHH@Z ; 52
?Constrain@RootNode@@UAEIAAVInstantiationSet@@PAX@Z ; 52
??0?$nsCOMPtr@VnsICSSLoader@@@@QAE@XZ ; 52
?AddStyleSheet@nsXULDocument@@UAEXPAVnsIStyleSheet@@@Z ; 52
?StartAssignment@?$nsCOMPtr@VnsICSSLoader@@@@QAEPAPAVnsICSSLoader@@XZ ; 51
?Assert_NoQueryNeeded@?$nsCOMPtr@VnsICSSLoader@@@@QAEXXZ ; 51
??0?$nsGetterAddRefs@VnsICSSLoader@@@@QAE@AAV?$nsCOMPtr@VnsICSSLoader@@@@@Z ; 51
??_EContentTestNode@nsXULTemplateBuilder@@UAEPAXI@Z ; 51
??1ContentTestNode@nsXULTemplateBuilder@@UAE@XZ ; 51
??Y?$basic_nsAWritableString@D@@QAEAAV0@PBD@Z ; 51
?getter_AddRefs@@YA?AV?$nsGetterAddRefs@VnsICSSLoader@@@@AAV?$nsCOMPtr@VnsICSSLoader@@@@@Z ; 51
??0?$nsCOMPtr@VnsICSSLoader@@@@QAE@ABVnsQueryInterface@@@Z ; 51
??_ERDFContainerMemberTestNode@@UAEPAXI@Z ; 51
??1?$nsGetterAddRefs@VnsICSSLoader@@@@QAE@XZ ; 51
??1RDFContainerMemberTestNode@@UAE@XZ ; 51
?assign_from_helper@?$nsCOMPtr@VnsICSSLoader@@@@AAEXABVnsCOMPtr_helper@@ABUnsID@@@Z ; 51
??0?$nsCOMPtr@VnsICSSParser@@@@QAE@ABVnsQueryInterface@@@Z ; 50
??B?$nsGetterAddRefs@VnsICSSParser@@@@QAEPAPAXXZ ; 50
?StartAssignment@?$nsCOMPtr@VnsICSSParser@@@@QAEPAPAVnsICSSParser@@XZ ; 50
??0?$nsGetterAddRefs@VnsICSSParser@@@@QAE@AAV?$nsCOMPtr@VnsICSSParser@@@@@Z ; 50
?Assert_NoQueryNeeded@?$nsCOMPtr@VnsICSSParser@@@@QAEXXZ ; 50
??1?$nsGetterAddRefs@VnsICSSParser@@@@QAE@XZ ; 50
?getter_AddRefs@@YA?AV?$nsGetterAddRefs@VnsICSSParser@@@@AAV?$nsCOMPtr@VnsICSSParser@@@@@Z ; 50
?assign_from_helper@?$nsCOMPtr@VnsICSSParser@@@@AAEXABVnsCOMPtr_helper@@ABUnsID@@@Z ; 50
?PutStyleSheet@nsXULPrototypeCache@@UAGIPAVnsICSSStyleSheet@@@Z ; 49
?GetLoadAttributes@PlaceholderChannel@@UAGIPAI@Z ; 48
??9@YAHABV?$nsCOMPtr@VnsIRDFLiteral@@@@PAVNSCAP_Zero@@@Z ; 48
?ns_if_addref@@YAKPAVnsIDOMXULElement@@@Z ; 46
??B?$nsCOMPtr@VnsIStyleSet@@@@QBEPAV?$nsDerivedSafe@VnsIStyleSet@@@@XZ ; 45
??C?$nsCOMPtr@VnsIStyleSet@@@@QBEPAV?$nsDerivedSafe@VnsIStyleSet@@@@XZ ; 45
??0?$nsCOMPtr@VnsIStyleSet@@@@QAE@ABVnsQueryInterface@@@Z ; 45
??B?$nsGetterAddRefs@VnsIStyleSet@@@@QAEPAPAVnsIStyleSet@@XZ ; 45
?assign_from_helper@?$nsCOMPtr@VnsIStyleSet@@@@AAEXABVnsCOMPtr_helper@@ABUnsID@@@Z ; 45
?Release@nsXULAtoms@@SAKXZ ; 45
?GetIID@nsIStyleSet@@SAABUnsID@@XZ ; 45
??0?$nsCOMPtr@VnsIStyleSet@@@@QAE@XZ ; 45
?StartAssignment@?$nsCOMPtr@VnsIStyleSet@@@@QAEPAPAVnsIStyleSet@@XZ ; 45
?getter_AddRefs@@YA?AV?$nsGetterAddRefs@VnsIStyleSet@@@@AAV?$nsCOMPtr@VnsIStyleSet@@@@@Z ; 45
?Assert_NoQueryNeeded@?$nsCOMPtr@VnsIStyleSet@@@@QAEXXZ ; 45
?GetIID@?$nsCOMTypeInfo@VnsIStyleSet@@@@SAABUnsID@@XZ ; 45
??0?$nsGetterAddRefs@VnsIStyleSet@@@@QAE@AAV?$nsCOMPtr@VnsIStyleSet@@@@@Z ; 45
??1?$nsGetterAddRefs@VnsIStyleSet@@@@QAE@XZ ; 45
?IsVarInSet@nsXULTemplateBuilder@@SAXPAV1@ABV?$basic_nsAReadableString@G@@PAX@Z ; 44
?QueryInterface@IntImpl@@UAGIABUnsID@@PAPAX@Z ; 44
??0nsIRDFInt@@QAE@XZ ; 44
??0IntImpl@@QAE@H@Z ; 44
?GetIntLiteral@RDFServiceImpl@@UAGIHPAPAVnsIRDFInt@@@Z ; 44
?GetDatabase@nsXULElement@@UAGIPAPAVnsIRDFCompositeDataSource@@@Z ; 42
?WillInterrupt@XULContentSinkImpl@@UAGIXZ ; 42
?SetCurrentItem@nsXULTreeElement@@UAGIPAVnsIDOMXULElement@@@Z ; 42
?ns_if_addref@@YAKPAVnsIRDFCompositeDataSource@@@Z ; 42
?GetLastMatch@MatchSet@@QBEPBVMatch@@XZ ; 41
??9@YAHABV?$nsCOMPtr@VnsIDOMXULDocument@@@@PAVNSCAP_Zero@@@Z ; 41
?UpdateStyleRule@nsXULAttributes@@QAEIPAVnsIURI@@ABV?$basic_nsAReadableString@G@@@Z ; 41
?assign_from_helper@?$nsCOMPtr@VnsIHTMLContentContainer@@@@AAEXABVnsCOMPtr_helper@@ABUnsID@@@Z ; 40
??B?$nsCOMPtr@VnsIXULContentSink@@@@QBEPAV?$nsDerivedSafe@VnsIXULContentSink@@@@XZ ; 40
?NS_NewXULPrototypeDocument@@YGIPAVnsISupports@@ABUnsID@@PAPAX@Z ; 40
?EndLoad@nsXULDocument@@UAGIXZ ; 40
??C?$nsCOMPtr@VnsIXULContentSink@@@@QBEPAV?$nsDerivedSafe@VnsIXULContentSink@@@@XZ ; 40
?assign_from_helper@?$nsCOMPtr@VnsIXULContentSink@@@@AAEXABVnsCOMPtr_helper@@ABUnsID@@@Z ; 40
??1ContextStack@XULContentSinkImpl@@QAE@XZ ; 40
??1?$nsCOMPtr@VnsIHTMLContentContainer@@@@QAE@XZ ; 40
??0XULContentSinkImpl@@QAE@AAI@Z ; 40
?DidBuildModel@XULContentSinkImpl@@UAGIH@Z ; 40
??_GXULContentSinkImpl@@UAEPAXI@Z ; 40
?StartAssignment@?$nsCOMPtr@VnsIXULContentSink@@@@QAEPAPAVnsIXULContentSink@@XZ ; 40
??1XULContentSinkImpl@@UAE@XZ ; 40
?SetRootElement@nsXULPrototypeDocument@@UAGIPAVnsXULPrototypeElement@@@Z ; 40
??4?$nsCOMPtr@VnsIXULPrototypeDocument@@@@QAEAAV0@PAVnsIXULPrototypeDocument@@@Z ; 40
??1?$nsGetterAddRefs@VnsIXULContentSink@@@@QAE@XZ ; 40
?PutPrototype@nsXULPrototypeCache@@UAGIPAVnsIXULPrototypeDocument@@@Z ; 40
??B?$nsGetterAddRefs@VnsIXULContentSink@@@@QAEPAPAXXZ ; 40
_NSGetModule ; 40
??0nsIXULPrototypeDocument@@QAE@XZ ; 40
??0ContextStack@XULContentSinkImpl@@QAE@XZ ; 40
??B?$nsCOMPtr@VnsIHTMLContentContainer@@@@QBEPAV?$nsDerivedSafe@VnsIHTMLContentContainer@@@@XZ ; 40
?Init@XULContentSinkImpl@@UAGIPAVnsIDocument@@PAVnsIXULPrototypeDocument@@@Z ; 40
??0?$nsGetterAddRefs@VnsIXULContentSink@@@@QAE@AAV?$nsCOMPtr@VnsIXULContentSink@@@@@Z ; 40
??C?$nsCOMPtr@VnsIHTMLContentContainer@@@@QBEPAV?$nsDerivedSafe@VnsIHTMLContentContainer@@@@XZ ; 40
?ns_if_addref@@YAKPAVnsIParser@@@Z ; 40
?assign_assuming_AddRef@?$nsCOMPtr@VnsIHTMLContentContainer@@@@AAEXPAVnsIHTMLContentContainer@@@Z ; 40
?Assert_NoQueryNeeded@?$nsCOMPtr@VnsIXULContentSink@@@@QAEXXZ ; 40
??D?$nsGetterAddRefs@VnsICSSLoader@@@@QAEAAPAVnsICSSLoader@@XZ ; 40
?dont_QueryInterface@@YAPAVnsIURI@@PAV1@@Z ; 40
?SetParser@XULContentSinkImpl@@UAGIPAVnsIParser@@@Z ; 40
?EndLoad@nsXULDocument@@UAGIXZ ; 40
??9@YAHABV?$nsCOMPtr@VnsIHTMLContentContainer@@@@PAVNSCAP_Zero@@@Z ; 40
?SetURI@nsXULPrototypeDocument@@UAGIPAVnsIURI@@@Z ; 40
?WillBuildModel@XULContentSinkImpl@@UAGIXZ ; 40
?getter_AddRefs@@YA?AV?$nsGetterAddRefs@VnsIXULContentSink@@@@AAV?$nsCOMPtr@VnsIXULContentSink@@@@@Z ; 40
?OpenRoot@XULContentSinkImpl@@IAEIABVnsIParserNode@@PAVnsINodeInfo@@@Z ; 40
??0?$nsCOMPtr@VnsIHTMLContentContainer@@@@QAE@ABVnsQueryInterface@@@Z ; 40
?PrepareToLoadPrototype@nsXULDocument@@IAEIPAVnsIURI@@PBDPAVnsIPrincipal@@PAPAVnsIParser@@@Z ; 40
?NS_NewXULContentSink@@YAIPAPAVnsIXULContentSink@@@Z ; 40
??B?$nsGetterAddRefs@VnsIXULPrototypeDocument@@@@QAEPAPAXXZ ; 40
?GetHeaderData@nsXULPrototypeDocument@@UBGIPAVnsIAtom@@AAV?$basic_nsAWritableString@G@@@Z ; 40
??0?$nsCOMPtr@VnsIXULContentSink@@@@QAE@ABVnsQueryInterface@@@Z ; 40
??0?$nsCOMPtr@VnsIScriptGlobalObject@@@@QAE@PAVnsIScriptGlobalObject@@@Z ; 40
??4?$nsCOMPtr@VnsIURI@@@@QAEAAV0@PAVnsIURI@@@Z ; 40
??0nsIScriptGlobalObjectOwner@@QAE@XZ ; 40
??0nsIXULContentSink@@QAE@XZ ; 40
??0nsXULPrototypeDocument@@IAE@XZ ; 40
?Init@nsXULPrototypeDocument@@IAEIXZ ; 40
??0?$nsCOMPtr@VnsIXULContentSink@@@@QAE@XZ ; 40
??B?$nsGetterAddRefs@VnsIParser@@@@QAEPAPAVnsIParser@@XZ ; 40
?Assert_NoQueryNeeded@?$nsCOMPtr@VnsITextContent@@@@QAEXXZ ; 39
??0?$nsCOMPtr@VnsITextContent@@@@QAE@ABVnsQueryInterface@@@Z ; 39
??0?$nsGetterAddRefs@VnsITextContent@@@@QAE@AAV?$nsCOMPtr@VnsITextContent@@@@@Z ; 39
?assign_from_helper@?$nsCOMPtr@VnsITextContent@@@@AAEXABVnsCOMPtr_helper@@ABUnsID@@@Z ; 39
??0?$nsCOMPtr@VnsITextContent@@@@QAE@XZ ; 39
?Release@nsXULAtoms@@SAKXZ ; 39
??1?$nsGetterAddRefs@VnsITextContent@@@@QAE@XZ ; 39
?Hash@Element@RDFContainerInstanceTestNode@@UBEIXZ ; 39
??B?$nsGetterAddRefs@VnsITextContent@@@@QAEPAPAXXZ ; 39
?StartAssignment@?$nsCOMPtr@VnsITextContent@@@@QAEPAPAVnsITextContent@@XZ ; 39
?getter_AddRefs@@YA?AV?$nsGetterAddRefs@VnsITextContent@@@@AAV?$nsCOMPtr@VnsITextContent@@@@@Z ; 39
??1IntImpl@@UAE@XZ ; 38
??_EIntImpl@@UAEPAXI@Z ; 38
?ContentChanged@nsXULDocument@@UAGIPAVnsIContent@@PAVnsISupports@@@Z ; 38
?OpenRDF@RDFContentSinkImpl@@MAEIABVnsIParserNode@@@Z ; 37
?EndLoad@RDFXMLDataSourceImpl@@UAGIXZ ; 37
?IsJavaScriptLanguage@nsRDFParserUtils@@SAHABVnsString@@PAPBD@Z ; 37
?OnStartRequest@RDFXMLDataSourceImpl@@UAGIPAVnsIChannel@@PAVnsISupports@@@Z ; 37
?Sweep@InMemoryDataSource@@UAGIXZ ; 37
?OnStopRequest@RDFXMLDataSourceImpl@@UAGIPAVnsIChannel@@PAVnsISupports@@IPBG@Z ; 37
?WillBuildModel@RDFContentSinkImpl@@UAGIXZ ; 37
?AddRef@FileSystemDataSource@@UAGKXZ ; 37
?DidBuildModel@RDFContentSinkImpl@@UAGIH@Z ; 37
?BeginLoad@RDFXMLDataSourceImpl@@UAGIXZ ; 37
?ContentRemoved@nsXULDocument@@UAGIPAVnsIContent@@0H@Z ; 37
?get@?$nsCOMPtr@VnsIDocShell@@@@QBEPAV?$nsDerivedSafe@VnsIDocShell@@@@XZ ; 36
?get@?$nsCOMPtr@VnsIViewManager@@@@QBEPAV?$nsDerivedSafe@VnsIViewManager@@@@XZ ; 36
??0?$nsCOMPtr@VnsIBoxObject@@@@QAE@ABVnsCOMPtr_helper@@@Z ; 36
?RemoveObserver@nsXULDocument@@UAEHPAVnsIDocumentObserver@@@Z ; 36
?assign_assuming_AddRef@?$nsCOMPtr@VnsIHTMLStyleSheet@@@@AAEXPAVnsIHTMLStyleSheet@@@Z ; 36
?Clone@nsISupportsKey@@UBEPAVnsHashKey@@XZ ; 36
?get@?$nsCOMPtr@VnsIContentViewer@@@@QBEPAV?$nsDerivedSafe@VnsIContentViewer@@@@XZ ; 36
??C?$nsCOMPtr@VnsIDOMXULTreeElement@@@@QBEPAV?$nsDerivedSafe@VnsIDOMXULTreeElement@@@@XZ ; 36
?ExecuteJSCode@nsXULElement@@KAIPAVnsIDOMElement@@PAUnsEvent@@@Z ; 36
?NS_OpenURI@@YAIPAVnsIStreamListener@@PAVnsISupports@@PAVnsIURI@@PAVnsIIOService@@PAVnsILoadGroup@@PAVnsIInterfaceRequestor@@III@Z ; 35
??C?$nsCOMPtr@VnsIDOMXULCommandDispatcher@@@@QBEPAV?$nsDerivedSafe@VnsIDOMXULCommandDispatcher@@@@XZ ; 34
??0ProxyStream@@QAE@XZ ; 34
??0nsIInputStream@@QAE@XZ ; 34
??1ProxyStream@@UAE@XZ ; 34
?AddCommandUpdater@nsXULCommandDispatcher@@UAGIPAVnsIDOMElement@@ABV?$basic_nsAReadableString@G@@1@Z ; 34
??9@YAHABV?$nsCOMPtr@VnsIDOMXULCommandDispatcher@@@@PAVNSCAP_Zero@@@Z ; 34
??_EProxyStream@@UAEPAXI@Z ; 34
?ApplyPersistentAttributesToElements@nsXULDocument@@IAEIPAVnsIRDFResource@@PAVnsISupportsArray@@@Z ; 34
?Clone@Element@ContentTestNode@nsXULTemplateBuilder@@UBEPAVMemoryElement@@PAX@Z ; 34
?Close@ProxyStream@@UAGIXZ ; 34
?SetCommandUpdater@nsXULContentUtils@@UAGIPAVnsIDocument@@PAVnsIContent@@@Z ; 34
??0Updater@nsXULCommandDispatcher@@QAE@PAVnsIDOMElement@@ABV?$basic_nsAReadableString@G@@1@Z ; 34
?GetNumberOfStyleSheets@nsXULDocument@@UAEHXZ ; 33
?get@?$nsCOMPtr@VnsIFile@@@@QBEPAV?$nsDerivedSafe@VnsIFile@@@@XZ ; 33
??1?$nsCOMPtr@VnsIHTMLStyleSheet@@@@QAE@XZ ; 33
?AddDocTypeDecl@XULContentSinkImpl@@UAGIABVnsIParserNode@@H@Z ; 33
??_GInMemoryDataSource@@MAEPAXI@Z ; 33
??1InMemoryDataSource@@MAE@XZ ; 33
?AllocTable@MatchSet@@KAPAXPAXI@Z ; 33
??_EnsXULControllers@@MAEPAXI@Z ; 33
??1nsXULControllers@@MAE@XZ ; 33
?OnStartRequest@ParserObserver@nsXULDocument@@UAGIPAVnsIChannel@@PAVnsISupports@@@Z ; 32
??0?$nsGetterAddRefs@VnsIDOMXULTreeElement@@@@QAE@AAV?$nsCOMPtr@VnsIDOMXULTreeElement@@@@@Z ; 32
??_GParserObserver@nsXULDocument@@MAEPAXI@Z ; 32
??_GnsISupportsKey@@UAEPAXI@Z ; 32
??4nsCOMPtr_helper@@QAEAAV0@ABV0@@Z ; 32
?RemoveEventListener@nsXULDocument@@UAGIABV?$basic_nsAReadableString@G@@PAVnsIDOMEventListener@@H@Z ; 32
??1ParserObserver@nsXULDocument@@MAE@XZ ; 32
?OnStopRequest@ParserObserver@nsXULDocument@@UAGIPAVnsIChannel@@PAVnsISupports@@IPBG@Z ; 32
??1?$nsGetterAddRefs@VnsIDOMXULTreeElement@@@@QAE@XZ ; 32
?Remove@ConflictSet@@QAEXABVMemoryElement@@AAVMatchSet@@1@Z ; 32
??B?$nsGetterAddRefs@VnsIDOMXULTreeElement@@@@QAEPAPAVnsIDOMXULTreeElement@@XZ ; 32
?UnregisterDataSource@RDFServiceImpl@@UAGIPAVnsIRDFDataSource@@@Z ; 32
?getter_AddRefs@@YA?AV?$nsGetterAddRefs@VnsIDOMXULTreeElement@@@@AAV?$nsCOMPtr@VnsIDOMXULTreeElement@@@@@Z ; 32
?GetParentTree@nsXULElement@@MAGIPAPAVnsIDOMXULTreeElement@@@Z ; 32
?Assert_NoQueryNeeded@?$nsCOMPtr@VnsIDOMXULTreeElement@@@@QAEXXZ ; 32
?Release@FileSystemDataSource@@UAGKXZ ; 32
?GetElementsForResource@nsXULTemplateBuilder@@QAEIPAVnsIRDFResource@@PAVnsISupportsArray@@@Z ; 32
??0ParserObserver@nsXULDocument@@QAE@PAV1@@Z ; 32
?StartAssignment@?$nsCOMPtr@VnsIDOMXULTreeElement@@@@QAEPAPAVnsIDOMXULTreeElement@@XZ ; 32
??1?$nsCOMPtr@VnsIDOMEventReceiver@@@@QAE@XZ ; 31
?assign_from_helper@?$nsCOMPtr@VnsIDOMEventReceiver@@@@AAEXABVnsCOMPtr_helper@@ABUnsID@@@Z ; 31
??B?$nsCOMPtr@VnsIDOMEventReceiver@@@@QBEPAV?$nsDerivedSafe@VnsIDOMEventReceiver@@@@XZ ; 31
?assign_assuming_AddRef@?$nsCOMPtr@VnsIDOMEventReceiver@@@@AAEXPAVnsIDOMEventReceiver@@@Z ; 31
??1RDFXMLDataSourceImpl@@MAE@XZ ; 31
??0?$nsCOMPtr@VnsIDOMEventReceiver@@@@QAE@ABVnsQueryInterface@@@Z ; 31
??_GRDFXMLDataSourceImpl@@MAEPAXI@Z ; 31
??8@YAHPAVNSCAP_Zero@@ABV?$nsCOMPtr@VnsIPresShell@@@@@Z ; 31
?GetControllers@nsXULTreeElement@@UAGIPAPAVnsIControllers@@@Z ; 30
??_GElement@RDFContainerInstanceTestNode@@UAEPAXI@Z ; 30
?GetAllResources@RDFXMLDataSourceImpl@@UAGIPAPAVnsISimpleEnumerator@@@Z ; 30
??1Element@RDFContainerInstanceTestNode@@UAE@XZ ; 30
?SetSuppressOnSelect@nsXULTreeElement@@UAGIH@Z ; 30
?ns_if_addref@@YAKPAVnsIDOMXULTreeElement@@@Z ; 30
??3Element@RDFContainerInstanceTestNode@@SAXPAXI@Z ; 30
?HasAncestor@RootNode@@UBEHPBVReteNode@@@Z ; 29
?FilterInstantiations@RDFContainerInstanceTestNode@@UBEIAAVInstantiationSet@@PAX@Z ; 29
?GetStyleSheetAt@nsXULDocument@@UAEPAVnsIStyleSheet@@H@Z ; 28
??B?$nsGetterAddRefs@VnsICSSStyleSheet@@@@QAEPAPAVnsICSSStyleSheet@@XZ ; 28
??D?$nsGetterAddRefs@VnsICSSStyleSheet@@@@QAEAAPAVnsICSSStyleSheet@@XZ ; 28
??C?$nsCOMPtr@VnsICSSStyleSheet@@@@QBEPAV?$nsDerivedSafe@VnsICSSStyleSheet@@@@XZ ; 28
?ns_if_addref@@YAKPAVnsIStyleSheet@@@Z ; 28
?QueryInterface@FileSystemDataSource@@UAGIABUnsID@@PAPAX@Z ; 28
_NS_NewScriptXULElement ; 27
??0?$nsCOMPtr@VnsIFactory@@@@QAE@ABVnsQueryInterface@@@Z ; 27
?StartAssignment@?$nsCOMPtr@VnsIFactory@@@@QAEPAPAVnsIFactory@@XZ ; 27
??1?$nsGetterAddRefs@VnsIFactory@@@@QAE@XZ ; 27
?GetIID@?$nsCOMTypeInfo@VnsIFactory@@@@SAABUnsID@@XZ ; 27
?GetIID@nsIFactory@@SAABUnsID@@XZ ; 27
?getter_AddRefs@@YA?AV?$nsGetterAddRefs@VnsIFactory@@@@AAV?$nsCOMPtr@VnsIFactory@@@@@Z ; 27
??B?$nsGetterAddRefs@VnsIFactory@@@@QAEPAPAVnsIFactory@@XZ ; 27
?Assert_NoQueryNeeded@?$nsCOMPtr@VnsIFactory@@@@QAEXXZ ; 27
??0?$nsGetterAddRefs@VnsIFactory@@@@QAE@AAV?$nsCOMPtr@VnsIFactory@@@@@Z ; 27
?assign_from_helper@?$nsCOMPtr@VnsIFactory@@@@AAEXABVnsCOMPtr_helper@@ABUnsID@@@Z ; 27
??C?$nsCOMPtr@VnsIRDFNodeList@@@@QBEPAV?$nsDerivedSafe@VnsIRDFNodeList@@@@XZ ; 26
?assign_from_helper@?$nsCOMPtr@VnsIRDFNodeList@@@@AAEXABVnsCOMPtr_helper@@ABUnsID@@@Z ; 26
?assign_assuming_AddRef@?$nsCOMPtr@VnsIRDFNodeList@@@@AAEXPAVnsIRDFNodeList@@@Z ; 26
??4?$nsCOMPtr@VnsIRDFNodeList@@@@QAEAAV0@ABVnsQueryInterface@@@Z ; 26
?FilterInstantiations@ContentTagTestNode@@UBEIAAVInstantiationSet@@PAX@Z ; 26
?get@?$nsCOMPtr@VnsINameSpaceManager@@@@QBEPAV?$nsDerivedSafe@VnsINameSpaceManager@@@@XZ ; 25
?assign_assuming_AddRef@?$nsCOMPtr@VnsIArena@@@@AAEXPAVnsIArena@@@Z ; 24
?assign_assuming_AddRef@?$nsCOMPtr@VnsIHTMLCSSStyleSheet@@@@AAEXPAVnsIHTMLCSSStyleSheet@@@Z ; 24
?GetIID@nsIStyleSheet@@SAABUnsID@@XZ ; 24
??FIterator@MatchSet@@QAE?AV01@H@Z ; 24
?GetIID@nsIHTMLCSSStyleSheet@@SAABUnsID@@XZ ; 24
??B?$nsCOMPtr@VnsIDocumentObserver@@@@QBEPAV?$nsDerivedSafe@VnsIDocumentObserver@@@@XZ ; 24
?ComputeNewMatches@ConflictSet@@IAEIAAVMatchSet@@0@Z ; 24
?assign_assuming_AddRef@?$nsCOMPtr@VnsIContentViewer@@@@AAEXPAVnsIContentViewer@@@Z ; 24
??C?$nsCOMPtr@VnsILoadGroup@@@@QBEPAV?$nsDerivedSafe@VnsILoadGroup@@@@XZ ; 24
?GetIID@?$nsCOMTypeInfo@VnsIHTMLStyleSheet@@@@SAABUnsID@@XZ ; 24
??1?$nsCOMPtr@VnsIContentViewer@@@@QAE@XZ ; 24
?OpenValue@RDFContentSinkImpl@@MAEIABVnsIParserNode@@@Z ; 24
?assign_assuming_AddRef@?$nsCOMPtr@VnsIViewManager@@@@AAEXPAVnsIViewManager@@@Z ; 24
??C?$nsCOMPtr@VnsIPresContext@@@@QBEPAV?$nsDerivedSafe@VnsIPresContext@@@@XZ ; 24
?GetIID@?$nsCOMTypeInfo@VnsIHTMLCSSStyleSheet@@@@SAABUnsID@@XZ ; 24
??1?$nsCOMPtr@VnsIViewManager@@@@QAE@XZ ; 24
?RemoveMember@nsXULTemplateBuilder@@QAEIPAVnsIContent@@PAVnsIRDFResource@@H@Z ; 24
?assign_assuming_AddRef@?$nsCOMPtr@VnsINameSpaceManager@@@@AAEXPAVnsINameSpaceManager@@@Z ; 24
?get@?$nsCOMPtr@VnsIDocumentObserver@@@@QBEPAV?$nsDerivedSafe@VnsIDocumentObserver@@@@XZ ; 24
??0?$nsCOMPtr@VnsIHTMLStyleSheet@@@@QAE@XZ ; 24
??B?$nsCOMPtr@VnsITextContent@@@@QBEPAV?$nsDerivedSafe@VnsITextContent@@@@XZ ; 23
?AddObserver@RDFXMLDataSourceImpl@@UAGIPAVnsIRDFObserver@@@Z ; 23
?CanContainChildren@nsXULElement@@UBGIAAH@Z ; 23
?Equals@Element@RDFContainerInstanceTestNode@@UBEHABVMemoryElement@@@Z ; 22
?SetScriptGlobalObject@nsXULDocument@@UAGIPAVnsIScriptGlobalObject@@@Z ; 22
?dont_AddRef@@YA?BU?$already_AddRefed@VnsIDOMNodeList@@@@PAVnsIDOMNodeList@@@Z ; 21
??1Updater@nsXULCommandDispatcher@@QAE@XZ ; 21
??4?$nsCOMPtr@VnsIDOMNodeList@@@@QAEAAV0@ABU?$already_AddRefed@VnsIDOMNodeList@@@@@Z ; 21
?RemoveChild@nsXULElement@@UAGIPAVnsIDOMNode@@PAPAV2@@Z ; 21
?AddStyleSheetReference@nsXULPrototypeDocument@@UAGIPAVnsIURI@@@Z ; 21
?GetElementsByTagNameNS@nsXULElement@@UAGIABV?$basic_nsAReadableString@G@@0PAPAVnsIDOMNodeList@@@Z ; 21
??1?$nsCOMPtr@VnsIHTMLCSSStyleSheet@@@@QAE@XZ ; 21
?InsertStyleSheetAt@nsXULDocument@@UAGIPAVnsIStyleSheet@@HH@Z ; 21
?DestroyForwardReferences@nsXULDocument@@IAEIXZ ; 21
??0?$already_AddRefed@VnsIDOMNodeList@@@@QAE@PAVnsIDOMNodeList@@@Z ; 21
??1?$nsCOMPtr@VnsINameSpaceManager@@@@QAE@XZ ; 21
??1?$nsCOMPtr@VnsIArena@@@@QAE@XZ ; 21
??_GUpdater@nsXULCommandDispatcher@@QAEPAXI@Z ; 21
??C?$nsCOMPtr@VnsIDOMEventReceiver@@@@QBEPAV?$nsDerivedSafe@VnsIDOMEventReceiver@@@@XZ ; 21
?ProcessStyleLink@XULContentSinkImpl@@IAEIPAVnsIContent@@ABVnsString@@H111@Z ; 21
?GetIID@?$nsCOMTypeInfo@VnsIXULSortService@@@@SAABUnsID@@XZ ; 20
?CompileTripleCondition@nsXULTemplateBuilder@@QAEIPAVRule@@PAVnsIContent@@PAVInnerNode@@PAPAVTestNode@@@Z ; 20
??0RDFPropertyTestNode@@QAE@PAVInnerNode@@AAVConflictSet@@PAVnsIRDFDataSource@@HPAVnsIRDFResource@@H@Z ; 20
??1?$nsCOMPtr@VnsIFocusController@@@@QAE@XZ ; 20
?getter_AddRefs@@YA?AV?$nsGetterAddRefs@VnsIDOMXULElement@@@@AAV?$nsCOMPtr@VnsIDOMXULElement@@@@@Z ; 20
??0?$nsGetterAddRefs@VnsIDOMXULElement@@@@QAE@AAV?$nsCOMPtr@VnsIDOMXULElement@@@@@Z ; 20
?StartAssignment@?$nsCOMPtr@VnsIDOMXULElement@@@@QAEPAPAVnsIDOMXULElement@@XZ ; 20
?ArcLabelsOut@CompositeDataSourceImpl@@UAGIPAVnsIRDFResource@@PAPAVnsISimpleEnumerator@@@Z ; 20
?Assert_NoQueryNeeded@?$nsCOMPtr@VnsIDOMXULElement@@@@QAEXXZ ; 20
?get@?$nsCOMPtr@VnsIFocusController@@@@QBEPAV?$nsDerivedSafe@VnsIFocusController@@@@XZ ; 20
??0?$nsCOMPtr@VnsIDOMXULElement@@@@QAE@XZ ; 20
??1?$nsGetterAddRefs@VnsIDOMXULElement@@@@QAE@XZ ; 20
?Release@nsRDFDOMNodeList@@W7AGKXZ ; 20
?assign_assuming_AddRef@?$nsCOMPtr@VnsIFocusController@@@@AAEXPAVnsIFocusController@@@Z ; 20
?GetIID@nsIXULSortService@@SAABUnsID@@XZ ; 20
?FireOnSelectHandler@nsXULTreeElement@@UAGIXZ ; 19
?ClearItemSelection@nsXULTreeElement@@UAGIXZ ; 19
?Enumerate@nsElementMap@@QAEIP6AHPBGPAVnsIContent@@PAX@Z2@Z ; 19
??B?$nsGetterAddRefs@VnsIDocument@@@@QAEPAPAVnsIDocument@@XZ ; 19
?GetContentID@nsXULElement@@UAGIPAI@Z ; 19
?AddRef@XULSortServiceImpl@@UAGKXZ ; 19
?QueryInterface@XULSortServiceImpl@@UAGIABUnsID@@PAPAX@Z ; 19
?FreeTable@MatchSet@@KAXPAX0@Z ; 19
?ClearLazyState@nsXULElement@@UAGIH@Z ; 18
??B?$nsCOMPtr@VnsIRDFObserver@@@@QBEPAV?$nsDerivedSafe@VnsIRDFObserver@@@@XZ ; 18
?PutXBLDocumentInfo@nsXULPrototypeCache@@UAGIPAVnsIXBLDocumentInfo@@@Z ; 18
?GetHeaderData@nsXULDocument@@UBGIPAVnsIAtom@@AAV?$basic_nsAWritableString@G@@@Z ; 18
??0?$nsCOMPtr@VnsIXBLDocumentInfo@@@@QAE@ABU?$already_AddRefed@VnsIXBLDocumentInfo@@@@@Z ; 18
?get@?$nsCOMPtr@VnsIXBLDocumentInfo@@@@QBEPAV?$nsDerivedSafe@VnsIXBLDocumentInfo@@@@XZ ; 18
?getter_AddRefs@@YA?BU?$already_AddRefed@VnsIURI@@@@PAVnsIURI@@@Z ; 18
??0?$already_AddRefed@VnsIXBLDocumentInfo@@@@QAE@PAVnsIXBLDocumentInfo@@@Z ; 18
?Assert_NoQueryNeeded@?$nsCOMPtr@VnsIXBLDocumentInfo@@@@QAEXXZ ; 18
??1?$nsCOMPtr@VnsIXBLDocumentInfo@@@@QAE@XZ ; 18
?getter_AddRefs@@YA?BU?$already_AddRefed@VnsIXBLDocumentInfo@@@@PAVnsIXBLDocumentInfo@@@Z ; 18
??B?$nsCOMPtr@VnsIXBLDocumentInfo@@@@QBEPAV?$nsDerivedSafe@VnsIXBLDocumentInfo@@@@XZ ; 18
?get@?$nsCOMPtr@VnsIRDFObserver@@@@QBEPAV?$nsDerivedSafe@VnsIRDFObserver@@@@XZ ; 18
?Clone@Element@RDFContainerInstanceTestNode@@UBEPAVMemoryElement@@PAX@Z ; 17
??C?$nsCOMPtr@VnsIFile@@@@QBEPAV?$nsDerivedSafe@VnsIFile@@@@XZ ; 17
?GetDatabase@nsXULTreeElement@@UAGIPAPAVnsIRDFCompositeDataSource@@@Z ; 17
?Release@XULSortServiceImpl@@UAGKXZ ; 17
??1?$nsCOMPtr@VnsILineBreaker@@@@QAE@XZ ; 17
??1?$nsCOMPtr@VnsIFile@@@@QAE@XZ ; 16
?assign_assuming_AddRef@?$nsCOMPtr@VnsILineBreaker@@@@AAEXPAVnsILineBreaker@@@Z ; 16
?GetIID@?$nsCOMTypeInfo@VnsIDOMText@@@@SAABUnsID@@XZ ; 16
?AddRef@CachedChromeStreamListener@nsXULDocument@@UAGKXZ ; 16
??0ContentTagTestNode@@QAE@PAVInnerNode@@AAVConflictSet@@HPAVnsIAtom@@@Z ; 16
?assign_assuming_AddRef@?$nsCOMPtr@VnsIFile@@@@AAEXPAVnsIFile@@@Z ; 16
?CreateTextNode@nsXULDocument@@UAGIABV?$basic_nsAReadableString@G@@PAPAVnsIDOMText@@@Z ; 16
?Release@CachedChromeStreamListener@nsXULDocument@@UAGKXZ ; 16
??4?$nsCOMPtr@VnsIXULPrototypeDocument@@@@QAEAAV0@ABV0@@Z ; 16
??B?$nsCOMPtr@VnsICSSParser@@@@QBEPAV?$nsDerivedSafe@VnsICSSParser@@@@XZ ; 16
??4?$nsCOMPtr@VnsIDOMNode@@@@QAEAAV0@ABV0@@Z ; 16
?GetIID@nsIDOMText@@SAABUnsID@@XZ ; 16
?GetDocumentCharacterSet@nsXULDocument@@UAGIAAV?$basic_nsAWritableString@G@@@Z ; 16
??B?$nsGetterAddRefs@VnsIDOMXULElement@@@@QAEPAPAXXZ ; 15
?GetElementsByAttribute@nsXULElement@@KAIPAVnsIDOMNode@@ABV?$basic_nsAReadableString@G@@1PAVnsRDFDOMNodeList@@@Z ; 15
?RebuildWidgetItem@nsXULDocument@@IAEIPAVnsIContent@@@Z ; 15
?AddItemToSelection@nsXULTreeElement@@UAGIPAVnsIDOMXULElement@@@Z ; 15
?SelectItem@nsXULTreeElement@@UAGIPAVnsIDOMXULElement@@@Z ; 15
_NS_NewScriptXULElement ; 15
??0nsIScriptObjectPrincipal@@QAE@XZ ; 14
?SetGlobalObjectOwner@nsXULPDGlobalObject@@UAGIPAVnsIScriptGlobalObjectOwner@@@Z ; 14
?assign_with_AddRef@?$nsCOMPtr@VnsIScriptGlobalObject@@@@AAEXPAVnsISupports@@@Z ; 14
?SetContext@nsXULPDGlobalObject@@UAGIPAVnsIScriptContext@@@Z ; 14
?assign_assuming_AddRef@?$nsCOMPtr@VnsIControllers@@@@AAEXPAVnsIControllers@@@Z ; 14
??0nsIScriptGlobalObject@@QAE@XZ ; 14
??0nsXULPDGlobalObject@@QAE@XZ ; 14
??4?$nsCOMPtr@VnsIScriptGlobalObject@@@@QAEAAV0@PAVnsIScriptGlobalObject@@@Z ; 14
??_EnsString@@UAEPAXI@Z ; 13
?SynchronizeUsingTemplate@nsXULTemplateBuilder@@QAEIPAVnsIContent@@0AAVMatch@@ABVVariableSet@@@Z ; 13
??0nsXULPrototypeText@@QAE@H@Z ; 13
?dont_QueryInterface@@YAPAVnsIHTMLCSSStyleSheet@@PAV1@@Z ; 12
?ApplyPersistentAttributes@nsXULDocument@@IAEIXZ ; 12
?GetIID@?$nsCOMTypeInfo@VnsIDocShell@@@@SAABUnsID@@XZ ; 12
?GetIID@?$nsCOMTypeInfo@VnsIViewManager@@@@SAABUnsID@@XZ ; 12
?Assert_NoQueryNeeded@?$nsCOMPtr@VnsIViewManager@@@@QAEXXZ ; 12
?assign_assuming_AddRef@?$nsCOMPtr@VnsIDocShell@@@@AAEXPAVnsIDocShell@@@Z ; 12
?get@?$nsCOMPtr@VnsIArena@@@@QBEPAV?$nsDerivedSafe@VnsIArena@@@@XZ ; 12
?assign_from_helper@?$nsCOMPtr@VnsIHTMLStyleSheet@@@@AAEXABVnsCOMPtr_helper@@ABUnsID@@@Z ; 12
?SetRootContent@nsXULDocument@@UAEXPAVnsIContent@@@Z ; 12
?assign_from_helper@?$nsCOMPtr@VnsIArena@@@@AAEXABVnsCOMPtr_helper@@ABUnsID@@@Z ; 12
??9@YAHABV?$nsCOMPtr@VnsIXULPrototypeDocument@@@@PAVNSCAP_Zero@@@Z ; 12
?GetIID@?$nsCOMTypeInfo@VnsIDocumentObserver@@@@SAABUnsID@@XZ ; 12
??1?$nsGetterAddRefs@VnsIArena@@@@QAE@XZ ; 12
??0?$nsCOMPtr@VnsIArena@@@@QAE@ABVnsQueryInterface@@@Z ; 12
?StartAssignment@?$nsCOMPtr@VnsIArena@@@@QAEPAPAVnsIArena@@XZ ; 12
??0?$nsCOMPtr@VnsINameSpaceManager@@@@QAE@XZ ; 12
_NSGetModule ; 12
??0nsIDOMXULDocument@@QAE@XZ ; 12
??0?$nsGetterAddRefs@VnsIViewManager@@@@QAE@AAV?$nsCOMPtr@VnsIViewManager@@@@@Z ; 12
?ns_if_addref@@YAKPAVnsIStreamListener@@@Z ; 12
??0nsIStreamLoaderObserver@@QAE@XZ ; 12
??B?$nsGetterAddRefs@VnsIHTMLStyleSheet@@@@QAEPAPAXXZ ; 12
??B?$nsCOMPtr@VnsINameSpaceManager@@@@QBEPAV?$nsDerivedSafe@VnsINameSpaceManager@@@@XZ ; 12
??1?$nsGetterAddRefs@VnsIContentViewer@@@@QAE@XZ ; 12
??0?$nsCOMPtr@VnsIDOMHTMLFormElement@@@@QAE@XZ ; 12
?NS_NewXULDocument@@YAIPAPAVnsIXULDocument@@@Z ; 12
??0nsIDOMDocumentEvent@@QAE@XZ ; 12
??0?$nsCOMPtr@VnsIHTMLCSSStyleSheet@@@@QAE@ABVnsQueryInterface@@@Z ; 12
??0nsElementMap@@QAE@XZ ; 12
??0?$nsCOMPtr@VnsIContentViewer@@@@QAE@XZ ; 12
??0?$nsCOMPtr@VnsIDocumentObserver@@@@QAE@ABVnsQueryInterface@@@Z ; 12
??0?$nsGetterAddRefs@VnsIContentViewer@@@@QAE@AAV?$nsCOMPtr@VnsIContentViewer@@@@@Z ; 12
??0nsIXMLDocument@@QAE@XZ ; 12
??0nsIDocument@@QAE@XZ ; 12
?Focus@nsXULElement@@UAGIXZ ; 12
??0nsIDOMDocumentView@@QAE@XZ ; 12
??9@YAHABV?$nsCOMPtr@VnsIDocShell@@@@PAVNSCAP_Zero@@@Z ; 12
?getter_AddRefs@@YA?AV?$nsGetterAddRefs@VnsINameSpaceManager@@@@AAV?$nsCOMPtr@VnsINameSpaceManager@@@@@Z ; 12
??C?$nsCOMPtr@VnsIContentViewer@@@@QBEPAV?$nsDerivedSafe@VnsIContentViewer@@@@XZ ; 12
??B?$nsGetterAddRefs@VnsINodeInfoManager@@@@QAEPAPAXXZ ; 12
??0?$nsCOMPtr@VnsIArena@@@@QAE@XZ ; 12
?getter_AddRefs@@YA?AV?$nsGetterAddRefs@VnsIArena@@@@AAV?$nsCOMPtr@VnsIArena@@@@@Z ; 12
??0?$nsCOMPtr@VnsIViewManager@@@@QAE@XZ ; 12
?assign_from_helper@?$nsCOMPtr@VnsIHTMLCSSStyleSheet@@@@AAEXABVnsCOMPtr_helper@@ABUnsID@@@Z ; 12
?assign_with_AddRef@?$nsCOMPtr@VnsIChannel@@@@AAEXPAVnsISupports@@@Z ; 12
??0nsIDOMDocumentXBL@@QAE@XZ ; 12
??1?$nsGetterAddRefs@VnsIHTMLStyleSheet@@@@QAE@XZ ; 12
??0?$nsCOMPtr@VnsIWordBreaker@@@@QAE@XZ ; 12
?assign_from_helper@?$nsCOMPtr@VnsIViewManager@@@@AAEXABVnsCOMPtr_helper@@ABUnsID@@@Z ; 12
?GetIID@nsIArena@@SAABUnsID@@XZ ; 12
??0nsXULDocument@@QAE@XZ ; 12
??B?$nsCOMPtr@VnsIViewManager@@@@QBEPAV?$nsDerivedSafe@VnsIViewManager@@@@XZ ; 12
?GetIID@?$nsCOMTypeInfo@VnsIContentViewer@@@@SAABUnsID@@XZ ; 12
?GetIID@?$nsCOMTypeInfo@VnsIFile@@@@SAABUnsID@@XZ ; 12
??0nsIDOMNSDocument@@QAE@XZ ; 12
?Assert_NoQueryNeeded@?$nsCOMPtr@VnsIArena@@@@QAEXXZ ; 12
??0?$nsCOMPtr@VnsIHTMLCSSStyleSheet@@@@QAE@XZ ; 12
??1?$nsCOMPtr@VnsIDocShell@@@@QAE@XZ ; 12
?AddCharSetObserver@nsXULDocument@@UAGIPAVnsIObserver@@@Z ; 12
??B?$nsGetterAddRefs@VnsINameSpaceManager@@@@QAEPAPAXXZ ; 12
??C?$nsCOMPtr@VnsIViewManager@@@@QBEPAV?$nsDerivedSafe@VnsIViewManager@@@@XZ ; 12
??_GPlaceholderChannel@@MAEPAXI@Z ; 12
??0nsIDOMEventCapturer@@QAE@XZ ; 12
??4?$nsCOMPtr@VnsIHTMLCSSStyleSheet@@@@QAEAAV0@PAVnsIHTMLCSSStyleSheet@@@Z ; 12
??0nsIDOMXULCommandDispatcher@@QAE@XZ ; 12
??4?$nsCOMPtr@VnsIChannel@@@@QAEAAV0@PAVnsIChannel@@@Z ; 12
??B?$nsGetterAddRefs@VnsIContentViewer@@@@QAEPAPAVnsIContentViewer@@XZ ; 12
?GetIID@nsIDocShell@@SAABUnsID@@XZ ; 12
?Release@nsXULTreeElement@@WM@AGKXZ ; 12
??0?$nsCOMPtr@VnsILineBreaker@@@@QAE@XZ ; 12
?assign_with_AddRef@?$nsCOMPtr@VnsILoadGroup@@@@AAEXPAVnsISupports@@@Z ; 12
?StartAssignment@?$nsCOMPtr@VnsIHTMLStyleSheet@@@@QAEPAPAVnsIHTMLStyleSheet@@XZ ; 12
??0?$nsCOMPtr@VnsIContentViewer@@@@QAE@ABVnsQueryInterface@@@Z ; 12
?assign_with_AddRef@?$nsCOMPtr@VnsIHTMLStyleSheet@@@@AAEXPAVnsISupports@@@Z ; 12
??0nsXULCommandDispatcher@@IAE@PAVnsIDocument@@@Z ; 12
??1?$nsGetterAddRefs@VnsIViewManager@@@@QAE@XZ ; 12
??0nsIChannel@@QAE@XZ ; 12
?Recycle@@YAXPAD@Z ; 12
?Assert_NoQueryNeeded@?$nsCOMPtr@VnsIHTMLCSSStyleSheet@@@@QAEXXZ ; 12
??B?$nsCOMPtr@VnsIDocShell@@@@QBEPAV?$nsDerivedSafe@VnsIDocShell@@@@XZ ; 12
?GetIID@nsIViewManager@@SAABUnsID@@XZ ; 12
??0nsIStreamLoadableDocument@@QAE@XZ ; 12
?ResolveForwardReferences@nsXULDocument@@UAGIXZ ; 12
??9@YAHABV?$nsCOMPtr@VnsISupports@@@@PAVNSCAP_Zero@@@Z ; 12
??B?$nsGetterAddRefs@VnsIViewManager@@@@QAEPAPAVnsIViewManager@@XZ ; 12
??0?$nsCOMPtr@VnsILoadGroup@@@@QAE@XZ ; 12
??0nsIRequest@@QAE@XZ ; 12
?assign_from_helper@?$nsCOMPtr@VnsIContentViewer@@@@AAEXABVnsCOMPtr_helper@@ABUnsID@@@Z ; 12
??0?$nsCOMPtr@VnsIViewManager@@@@QAE@ABVnsQueryInterface@@@Z ; 12
??9@YAHABV?$nsCOMPtr@VnsIContentViewer@@@@PAVNSCAP_Zero@@@Z ; 12
??0nsIHTMLContentContainer@@QAE@XZ ; 12
??C?$nsCOMPtr@VnsIDocShell@@@@QBEPAV?$nsDerivedSafe@VnsIDocShell@@@@XZ ; 12
?GetIID@nsIContentViewer@@SAABUnsID@@XZ ; 12
?assign_assuming_AddRef@?$nsCOMPtr@VnsIDocumentObserver@@@@AAEXPAVnsIDocumentObserver@@@Z ; 12
?StartAssignment@?$nsCOMPtr@VnsIContentViewer@@@@QAEPAPAVnsIContentViewer@@XZ ; 12
??0?$nsCOMPtr@VnsIHTMLStyleSheet@@@@QAE@ABVnsQueryInterface@@@Z ; 12
?assign_from_helper@?$nsCOMPtr@VnsIDocShell@@@@AAEXABVnsCOMPtr_helper@@ABUnsID@@@Z ; 12
??0PlaceholderChannel@@IAE@XZ ; 12
??1?$nsCOMPtr@VnsIDocumentObserver@@@@QAE@XZ ; 12
??1PlaceholderChannel@@MAE@XZ ; 12
?GetIID@nsIDocumentObserver@@SAABUnsID@@XZ ; 12
?getter_AddRefs@@YA?AV?$nsGetterAddRefs@VnsIContentViewer@@@@AAV?$nsCOMPtr@VnsIContentViewer@@@@@Z ; 12
??4?$nsCOMPtr@VnsIHTMLStyleSheet@@@@QAEAAV0@ABV0@@Z ; 12
?PrepareStyleSheets@nsXULDocument@@UAGIPAVnsIURI@@@Z ; 12
?StartLayout@nsXULDocument@@IAEIXZ ; 12
??C?$nsCOMPtr@VnsIHTMLStyleSheet@@@@QBEPAV?$nsDerivedSafe@VnsIHTMLStyleSheet@@@@XZ ; 12
?assign_with_AddRef@?$nsCOMPtr@VnsIHTMLCSSStyleSheet@@@@AAEXPAVnsISupports@@@Z ; 12
??0?$nsCOMPtr@VnsISelection@@@@QAE@XZ ; 12
??0?$nsGetterAddRefs@VnsIHTMLStyleSheet@@@@QAE@AAV?$nsCOMPtr@VnsIHTMLStyleSheet@@@@@Z ; 12
?SetLoadGroup@PlaceholderChannel@@UAGIPAVnsILoadGroup@@@Z ; 12
?assign_from_helper@?$nsCOMPtr@VnsIDocumentObserver@@@@AAEXABVnsCOMPtr_helper@@ABUnsID@@@Z ; 12
?AddEventListenerByIID@nsXULDocument@@UAGIPAVnsIDOMEventListener@@ABUnsID@@@Z ; 12
?StartAssignment@?$nsCOMPtr@VnsINameSpaceManager@@@@QAEPAPAVnsINameSpaceManager@@XZ ; 12
??0ContextStack@nsXULDocument@@QAE@XZ ; 12
?CreateShell@nsXULDocument@@UAGIPAVnsIPresContext@@PAVnsIViewManager@@PAVnsIStyleSet@@PAPAVnsIPresShell@@@Z ; 12
_NS_InitXULDocumentClass ; 12
?Assert_NoQueryNeeded@?$nsCOMPtr@VnsIContentViewer@@@@QAEXXZ ; 12
?Assert_NoQueryNeeded@?$nsCOMPtr@VnsIHTMLStyleSheet@@@@QAEXXZ ; 12
?GetIID@?$nsCOMTypeInfo@VnsIArena@@@@SAABUnsID@@XZ ; 12
?StartAssignment@?$nsCOMPtr@VnsIViewManager@@@@QAEPAPAVnsIViewManager@@XZ ; 12
??0nsIDOMDocument@@QAE@XZ ; 12
?SetAttribute@nsXULTreeElement@@UAGIABV?$basic_nsAReadableString@G@@0@Z ; 12
?Assert_NoQueryNeeded@?$nsCOMPtr@VnsINameSpaceManager@@@@QAEXXZ ; 12
?StartDocumentLoad@nsXULDocument@@UAGIPBDPAVnsIChannel@@PAVnsILoadGroup@@PAVnsISupports@@PAPAVnsIStreamListener@@H@Z ; 12
??9@YAHABV?$nsCOMPtr@VnsIPresContext@@@@PAVNSCAP_Zero@@@Z ; 12
?assign_from_helper@?$nsCOMPtr@VnsINameSpaceManager@@@@AAEXABVnsCOMPtr_helper@@ABUnsID@@@Z ; 12
??4?$nsCOMPtr@VnsIBindingManager@@@@QAEAAV0@ABVnsCOMPtr_helper@@@Z ; 12
?Create@nsXULCommandDispatcher@@SGIPAVnsIDocument@@PAPAVnsIDOMXULCommandDispatcher@@@Z ; 12
??0?$nsGetterAddRefs@VnsIArena@@@@QAE@AAV?$nsCOMPtr@VnsIArena@@@@@Z ; 12
?GetIID@nsIFile@@SAABUnsID@@XZ ; 12
?Init@nsXULDocument@@IAEIXZ ; 12
??0?$nsCOMPtr@VnsINameSpaceManager@@@@QAE@ABVnsQueryInterface@@@Z ; 12
?Create@PlaceholderChannel@@SAIPAPAVnsIChannel@@@Z ; 12
??1?$nsGetterAddRefs@VnsINameSpaceManager@@@@QAE@XZ ; 12
??0?$nsGetterAddRefs@VnsINameSpaceManager@@@@QAE@AAV?$nsCOMPtr@VnsINameSpaceManager@@@@@Z ; 12
?getter_AddRefs@@YA?AV?$nsGetterAddRefs@VnsIHTMLStyleSheet@@@@AAV?$nsCOMPtr@VnsIHTMLStyleSheet@@@@@Z ; 12
??4?$nsCOMPtr@VnsILoadGroup@@@@QAEAAV0@PAVnsILoadGroup@@@Z ; 12
?GetNewListenerManager@nsXULDocument@@UAGIPAPAVnsIEventListenerManager@@@Z ; 12
?getter_AddRefs@@YA?AV?$nsGetterAddRefs@VnsIViewManager@@@@AAV?$nsCOMPtr@VnsIViewManager@@@@@Z ; 12
??0?$nsCOMPtr@VnsIDocShell@@@@QAE@ABVnsQueryInterface@@@Z ; 12
_NS_NewScriptXULDocument ; 12
??B?$nsGetterAddRefs@VnsIArena@@@@QAEPAPAVnsIArena@@XZ ; 12
??0nsIXULDocument@@QAE@XZ ; 12
?RemoveNode@nsRDFDOMNodeList@@UAGIPAVnsIDOMNode@@@Z ; 11
??B?$nsCOMPtr@VnsIFile@@@@QBEPAV?$nsDerivedSafe@VnsIFile@@@@XZ ; 11
?assign_from_helper@?$nsCOMPtr@VnsIFile@@@@AAEXABVnsCOMPtr_helper@@ABUnsID@@@Z ; 11
??0?$nsCOMPtr@VnsIFile@@@@QAE@ABVnsQueryInterface@@@Z ; 11
??DIterator@MatchSet@@QBEAAVMatch@@XZ ; 11
??B?$nsGetterAddRefs@VnsICSSLoader@@@@QAEPAPAXXZ ; 11
??0?$nsCOMPtr@VnsIFocusController@@@@QAE@ABVnsQueryInterface@@@Z ; 10
?Assert_NoQueryNeeded@?$nsCOMPtr@VnsIFocusController@@@@QAEXXZ ; 10
?GetIID@nsIFocusController@@SAABUnsID@@XZ ; 10
?RemoveObserver@RDFXMLDataSourceImpl@@UAGIPAVnsIRDFObserver@@@Z ; 10
??B?$nsCOMPtr@VnsIXBLService@@@@QBEPAV?$nsDerivedSafe@VnsIXBLService@@@@XZ ; 10
?assign_from_helper@?$nsCOMPtr@VnsIFocusController@@@@AAEXABVnsCOMPtr_helper@@ABUnsID@@@Z ; 10
??0nsIControllerCommandManager@@QAE@XZ ; 10
?SetScriptObject@nsXULDocument@@UAGIPAX@Z ; 10
??9@YAHABV?$nsCOMPtr@VnsIRDFRemoteDataSource@@@@PAVNSCAP_Zero@@@Z ; 10
_NSGetModule ; 10
??B?$nsGetterAddRefs@VnsIFocusController@@@@QAEPAPAVnsIFocusController@@XZ ; 10
?NS_NewControllerCommandManager@@YAIPAPAVnsIControllerCommandManager@@@Z ; 10
?GetIID@?$nsCOMTypeInfo@VnsIFocusController@@@@SAABUnsID@@XZ ; 10
??0nsControllerCommandManager@@QAE@XZ ; 10
??0?$nsGetterAddRefs@VnsIFocusController@@@@QAE@AAV?$nsCOMPtr@VnsIFocusController@@@@@Z ; 10
??0?$nsCOMPtr@VnsIFocusController@@@@QAE@XZ ; 10
?StartAssignment@?$nsCOMPtr@VnsIFocusController@@@@QAEPAPAVnsIFocusController@@XZ ; 10
??B?$nsCOMPtr@VnsIFocusController@@@@QBEPAV?$nsDerivedSafe@VnsIFocusController@@@@XZ ; 10
??1?$nsGetterAddRefs@VnsIFocusController@@@@QAE@XZ ; 10
?RemoveEventListenerByIID@nsXULDocument@@UAGIPAVnsIDOMEventListener@@ABUnsID@@@Z ; 10
?StopDocumentLoad@nsXULDocument@@UAGIXZ ; 10
?getter_AddRefs@@YA?AV?$nsGetterAddRefs@VnsIFocusController@@@@AAV?$nsCOMPtr@VnsIFocusController@@@@@Z ; 10
??0?$nsCOMPtr@VnsIRDFObserver@@@@QAE@XZ ; 9
??4?$nsCOMPtr@VnsIRDFObserver@@@@QAEAAV0@ABVnsQueryInterface@@@Z ; 9
?Renumber@RDFContainerImpl@@AAEIHH@Z ; 9
?DeleteShell@nsXULDocument@@UAEHPAVnsIPresShell@@@Z ; 9
??1nsXULDocument@@UAE@XZ ; 9
??1ContentTagTestNode@@UAE@XZ ; 9
??1ContextStack@nsXULDocument@@QAE@XZ ; 9
?GetFirstChild@nsXULDocument@@UAGIPAPAVnsIDOMNode@@@Z ; 9
??1?$nsCOMPtr@VnsIWordBreaker@@@@QAE@XZ ; 9
??_EnsXULDocument@@UAEPAXI@Z ; 9
?Clear@ContentSupportMap@@QAEXXZ ; 9
??1nsXULCommandDispatcher@@MAE@XZ ; 9
??_EContentTagTestNode@@UAEPAXI@Z ; 9
?IsAncestor@nsXULElement@@KAHPAVnsIDOMNode@@0@Z ; 9
?RebuildContainerInternal@nsXULTemplateBuilder@@QAEIPAVnsIContent@@H@Z ; 9
??_EnsXULCommandDispatcher@@MAEPAXI@Z ; 9
??1?$nsCOMPtr@VnsIDOMHTMLFormElement@@@@QAE@XZ ; 9
?assign_assuming_AddRef@?$nsCOMPtr@VnsIRDFObserver@@@@AAEXPAVnsIRDFObserver@@@Z ; 9
?Flush@LocalStoreImpl@@UAGIXZ ; 9
??0?$nsCOMPtr@VnsIDOMNode@@@@QAE@PAVnsIDOMNode@@@Z ; 9
??1nsElementMap@@UAE@XZ ; 9
?RemoveElement@RDFContainerImpl@@UAGIPAVnsIRDFNode@@H@Z ; 9
??1?$nsCOMPtr@VnsIRDFObserver@@@@QAE@XZ ; 9
?assign_from_helper@?$nsCOMPtr@VnsIRDFObserver@@@@AAEXABVnsCOMPtr_helper@@ABUnsID@@@Z ; 9
?Clear@ConflictSet@@QAEXXZ ; 9
??1?$nsCOMPtr@VnsISelection@@@@QAE@XZ ; 9
?SetNextValue@RDFContainerImpl@@AAEIH@Z ; 9
?RemoveGeneratedContent@nsXULTemplateBuilder@@QAEIPAVnsIContent@@@Z ; 9
?GetIID@nsILineBreakerFactory@@SAABUnsID@@XZ ; 8
?GetIID@?$nsCOMTypeInfo@VnsIScriptObjectPrincipal@@@@SAABUnsID@@XZ ; 8
?Release@nsXULAttributes@@W3AGKXZ ; 8
?CompileContentCondition@nsXULTemplateBuilder@@QAEIPAVRule@@PAVnsIContent@@PAVInnerNode@@PAPAVTestNode@@@Z ; 8
?ns_if_addref@@YAKPAVnsIXULPrototypeDocument@@@Z ; 8
??9@YAHABV?$nsCOMPtr@VnsIXULDocument@@@@PAVNSCAP_Zero@@@Z ; 8
?get@?$nsCOMPtr@VnsILocalFile@@@@QBEPAV?$nsDerivedSafe@VnsILocalFile@@@@XZ ; 8
??0?$already_AddRefed@VnsILineBreaker@@@@QAE@PAVnsILineBreaker@@@Z ; 8
?CompileBinding@nsXULTemplateBuilder@@QAEIPAVRule@@PAVnsIContent@@@Z ; 8
??4?$nsCOMPtr@VnsIPrincipal@@@@QAEAAV0@PAVnsIPrincipal@@@Z ; 8
?QueryInterface@CachedChromeStreamListener@nsXULDocument@@UAGIABUnsID@@PAPAX@Z ; 8
?GetIID@nsILineBreaker@@SAABUnsID@@XZ ; 8
?GetIID@?$nsCOMTypeInfo@VnsILineBreakerFactory@@@@SAABUnsID@@XZ ; 8
?Add@VariableSet@@QAEIH@Z ; 8
?dont_AddRef@@YA?BU?$already_AddRefed@VnsILineBreaker@@@@PAVnsILineBreaker@@@Z ; 8
?SetDocumentPrincipal@nsXULPrototypeDocument@@UAGIPAVnsIPrincipal@@@Z ; 8
?GetPrincipal@nsXULPDGlobalObject@@UAGIPAPAVnsIPrincipal@@@Z ; 8
?get@?$nsCOMPtr@VnsIFileURL@@@@QBEPAV?$nsDerivedSafe@VnsIFileURL@@@@XZ ; 8
??0?$nsCOMPtr@VnsILineBreaker@@@@QAE@ABVnsQueryInterface@@@Z ; 8
?CompileMemberCondition@nsXULTemplateBuilder@@QAEIPAVRule@@PAVnsIContent@@PAVInnerNode@@PAPAVTestNode@@@Z ; 8
?assign_from_helper@?$nsCOMPtr@VnsILineBreaker@@@@AAEXABVnsCOMPtr_helper@@ABUnsID@@@Z ; 8
??4?$nsCOMPtr@VnsILineBreaker@@@@QAEAAV0@ABU?$already_AddRefed@VnsILineBreaker@@@@@Z ; 8
?GetBoxObject@nsXULTreeElement@@UAGIPAPAVnsIBoxObject@@@Z ; 8
?GetIID@nsIScriptObjectPrincipal@@SAABUnsID@@XZ ; 8
?PrepareToLoad@nsXULDocument@@IAEIPAVnsISupports@@PBDPAVnsIChannel@@PAVnsILoadGroup@@PAPAVnsIParser@@@Z ; 8
?GetMasterPrototype@nsXULDocument@@UAGIPAPAVnsIXULPrototypeDocument@@@Z ; 8
?CompileExtendedRule@nsXULTemplateBuilder@@QAEIPAVnsIContent@@HPAVInnerNode@@@Z ; 8
?GetIID@?$nsCOMTypeInfo@VnsILineBreaker@@@@SAABUnsID@@XZ ; 8
?CompileConditions@nsXULTemplateBuilder@@QAEIPAVRule@@PAVnsIContent@@PAVInnerNode@@PAPAV4@@Z ; 8
?CompileBindings@nsXULTemplateBuilder@@QAEIPAVRule@@PAVnsIContent@@@Z ; 8
??_GnsSupportsHashtable@@UAEPAXI@Z ; 8
?Assert_NoQueryNeeded@?$nsCOMPtr@VnsILineBreaker@@@@QAEXXZ ; 8
?assign_with_AddRef@?$nsCOMPtr@VnsIPrincipal@@@@AAEXPAVnsISupports@@@Z ; 8
??1nsControllerCommandManager@@UAE@XZ ; 7
?SetCommandDispatcher@nsXULControllers@@UAGIPAVnsIDOMXULCommandDispatcher@@@Z ; 7
??_GnsControllerCommandManager@@UAEPAXI@Z ; 7
?assign_from_helper@?$nsCOMPtr@VnsIControllers@@@@AAEXABVnsCOMPtr_helper@@ABUnsID@@@Z ; 7
?StartAssignment@?$nsCOMPtr@VnsIControllers@@@@QAEPAPAVnsIControllers@@XZ ; 7
??0?$nsGetterAddRefs@VnsIControllers@@@@QAE@AAV?$nsCOMPtr@VnsIControllers@@@@@Z ; 7
??1?$nsGetterAddRefs@VnsIControllers@@@@QAE@XZ ; 7
?getter_AddRefs@@YA?AV?$nsGetterAddRefs@VnsIControllers@@@@AAV?$nsCOMPtr@VnsIControllers@@@@@Z ; 7
??B?$nsGetterAddRefs@VnsIControllers@@@@QAEPAPAXXZ ; 7
??C?$nsCOMPtr@VnsIControllers@@@@QBEPAV?$nsDerivedSafe@VnsIControllers@@@@XZ ; 7
??0?$nsCOMPtr@VnsIControllers@@@@QAE@ABVnsQueryInterface@@@Z ; 7
?AddObserver@FileSystemDataSource@@UAGIPAVnsIRDFObserver@@@Z ; 7
?Assert_NoQueryNeeded@?$nsCOMPtr@VnsIControllers@@@@QAEXXZ ; 7
?InsertControllerAt@nsXULControllers@@UAGIIPAVnsIController@@@Z ; 7
?GetIID@nsIDOMMenuListener@@SAABUnsID@@XZ ; 6
??D?$nsReadingIterator@D@@QBEDXZ ; 6
_NS_InitXULCommandDispatcherClass ; 6
?Last@?$basic_nsAReadableString@D@@QBEDXZ ; 6
_NS_NewScriptXULCommandDispatcher ; 6
??0nsXULAggregateElement@@IAE@PAVnsIDOMXULElement@@@Z ; 6
_NS_NewScriptXULElement ; 6
??4?$nsCOMPtr@VnsIRDFDataSource@@@@QAEAAV0@ABVnsCOMPtr_helper@@@Z ; 6
??0?$nsReadableFragment@D@@QAE@XZ ; 6
?Release@nsXULAttributes@@W3AGKXZ ; 6
??0nsIXULTreeContent@@QAE@XZ ; 6
?GetChildNodes@nsXULTreeElement@@UAGIPAPAVnsIDOMNodeList@@@Z ; 6
?GetIID@?$nsCOMTypeInfo@VnsIDOMMenuListener@@@@SAABUnsID@@XZ ; 6
??4?$nsCOMPtr@VnsIRDFResource@@@@QAEAAV0@ABVnsQueryInterface@@@Z ; 6
??0?$nsReadingIterator@D@@QAE@XZ ; 6
??0nsXULTreeElement@@QAE@PAVnsIDOMXULElement@@@Z ; 6
?do_CreateInstance@@YA?BVnsCreateInstanceByCID@@ABUnsID@@PAI@Z ; 6
?size_backward@?$nsReadingIterator@D@@QBEHXZ ; 6
?IsEmpty@?$basic_nsAReadableString@D@@QBEHXZ ; 6
?GetLoaded@RDFXMLDataSourceImpl@@UAGIPAH@Z ; 6
?normalize_backward@?$nsReadingIterator@D@@QAEXXZ ; 6
??0nsIDOMXULTreeElement@@QAE@XZ ; 6
?EndReading@?$basic_nsAReadableString@D@@QBEAAV?$nsReadingIterator@D@@AAV2@@Z ; 6
?advance@?$nsReadingIterator@D@@QAEAAV1@H@Z ; 6
?get@?$nsReadingIterator@D@@QBEPBDXZ ; 6
??0?$nsCOMPtr@VnsIFile@@@@QAE@XZ ; 5
??B?$nsGetterAddRefs@VnsIDOMXULElement@@@@QAEPAPAVnsIDOMXULElement@@XZ ; 5
?StartAssignment@?$nsCOMPtr@VnsIFile@@@@QAEPAPAVnsIFile@@XZ ; 5
??4?$nsCOMPtr@VnsIDOMXULTreeElement@@@@QAEAAV0@ABVnsQueryInterface@@@Z ; 5
?Release@nsXULTreeElement@@WM@AGKXZ ; 5
?GetIID@nsIDOMFormListener@@SAABUnsID@@XZ ; 5
??1?$nsGetterAddRefs@VnsIFile@@@@QAE@XZ ; 5
??B?$nsGetterAddRefs@VnsIFile@@@@QAEPAPAVnsIFile@@XZ ; 5
?getter_AddRefs@@YA?AV?$nsGetterAddRefs@VnsIFile@@@@AAV?$nsCOMPtr@VnsIFile@@@@@Z ; 5
?GetIID@nsIDOMDragListener@@SAABUnsID@@XZ ; 5
?Assert_NoQueryNeeded@?$nsCOMPtr@VnsIFile@@@@QAEXXZ ; 5
?GetElementsByAttribute@nsXULElement@@UAGIABV?$basic_nsAReadableString@G@@0PAPAVnsIDOMNodeList@@@Z ; 5
??4nsCOMPtr_helper@@QAEAAV0@ABV0@@Z ; 5
?GetIID@?$nsCOMTypeInfo@VnsIDOMFormListener@@@@SAABUnsID@@XZ ; 5
_NS_InitXULTreeElementClass ; 5
_NS_NewScriptXULTreeElement ; 5
?GetIID@?$nsCOMTypeInfo@VnsIDOMDragListener@@@@SAABUnsID@@XZ ; 5
?GetCurrentItem@nsXULTreeElement@@UAGIPAPAVnsIDOMXULElement@@@Z ; 5
??0?$nsGetterAddRefs@VnsIFile@@@@QAE@AAV?$nsCOMPtr@VnsIFile@@@@@Z ; 5
??B?$nsCOMPtr@VnsIFileURL@@@@QBEPAV?$nsDerivedSafe@VnsIFileURL@@@@XZ ; 4
?GetIID@nsIDOMLoadListener@@SAABUnsID@@XZ ; 4
?assign_from_helper@?$nsCOMPtr@VnsIFileURL@@@@AAEXABVnsCOMPtr_helper@@ABUnsID@@@Z ; 4
?GetNodeValue@nsXULAttribute@@UAGIAAV?$basic_nsAWritableString@G@@@Z ; 4
?SetNodeValue@nsXULAttribute@@UAGIABV?$basic_nsAReadableString@G@@@Z ; 4
?assign_assuming_AddRef@?$nsCOMPtr@VnsIFileURL@@@@AAEXPAVnsIFileURL@@@Z ; 4
?OnStartRequest@CachedChromeStreamListener@nsXULDocument@@UAGIPAVnsIChannel@@PAVnsISupports@@@Z ; 4
?GetAttribute@nsXULTreeElement@@UAGIABV?$basic_nsAReadableString@G@@AAV?$basic_nsAWritableString@G@@@Z ; 4
?assign_assuming_AddRef@?$nsCOMPtr@VnsILocalFile@@@@AAEXPAVnsILocalFile@@@Z ; 4
?GetIID@?$nsCOMTypeInfo@VnsILocalFile@@@@SAABUnsID@@XZ ; 4
?GetSortColumnIndex@XULSortServiceImpl@@AAEIPAVnsIContent@@ABVnsString@@1AAV3@AAH33@Z ; 4
_NS_NewScriptXULElement ; 4
?GetIID@nsIFileURL@@SAABUnsID@@XZ ; 4
?GetIID@nsILocalFile@@SAABUnsID@@XZ ; 4
?assign_from_helper@?$nsCOMPtr@VnsILocalFile@@@@AAEXABVnsCOMPtr_helper@@ABUnsID@@@Z ; 4
??0?$nsCOMPtr@VnsIFileURL@@@@QAE@ABVnsQueryInterface@@@Z ; 4
??0?$nsCOMPtr@VnsILocalFile@@@@QAE@ABVnsQueryInterface@@@Z ; 4
??1CachedChromeStreamListener@nsXULDocument@@MAE@XZ ; 4
?GetIID@?$nsCOMTypeInfo@VnsIDOMLoadListener@@@@SAABUnsID@@XZ ; 4
??1nsXULTreeElement@@UAE@XZ ; 4
??0CachedChromeStreamListener@nsXULDocument@@QAE@PAV1@@Z ; 4
?OnStopRequest@CachedChromeStreamListener@nsXULDocument@@UAGIPAVnsIChannel@@PAVnsISupports@@IPBG@Z ; 4
??1?$nsCOMPtr@VnsILocalFile@@@@QAE@XZ ; 4
?SetScriptObject@nsXULCommandDispatcher@@UAGIPAX@Z ; 4
?GetIID@?$nsCOMTypeInfo@VnsIFileURL@@@@SAABUnsID@@XZ ; 4
??B?$nsCOMPtr@VnsILocalFile@@@@QBEPAV?$nsDerivedSafe@VnsILocalFile@@@@XZ ; 4
?SetValue@nsXULAttribute@@UAGIABV?$basic_nsAReadableString@G@@@Z ; 4
?sAutoHideCallback@XULPopupListenerImpl@@CAXPAVnsITimer@@PAX@Z ; 4
??1?$nsCOMPtr@VnsIFileURL@@@@QAE@XZ ; 4
??C?$nsCOMPtr@VnsIFileURL@@@@QBEPAV?$nsDerivedSafe@VnsIFileURL@@@@XZ ; 4
??1nsXULAggregateElement@@UAE@XZ ; 4
??C?$nsCOMPtr@VnsILocalFile@@@@QBEPAV?$nsDerivedSafe@VnsILocalFile@@@@XZ ; 4
??_EnsXULTreeElement@@UAEPAXI@Z ; 4
??_GCachedChromeStreamListener@nsXULDocument@@MAEPAXI@Z ; 4
?get@?$nsCOMPtr@VnsILocale@@@@QBEPAV?$nsDerivedSafe@VnsILocale@@@@XZ ; 3
?GetIID@nsIDOMScrollListener@@SAABUnsID@@XZ ; 3
?AddRef@nsXULAtoms@@SAKXZ ; 3
?OpenWidgetItem@nsXULDocument@@IAEIPAVnsIContent@@@Z ; 3
?CloseWidgetItem@nsXULDocument@@IAEIPAVnsIContent@@@Z ; 3
?GetIID@?$nsCOMTypeInfo@VnsIDOMScrollListener@@@@SAABUnsID@@XZ ; 3
??4nsCOMPtr_helper@@QAEAAV0@ABV0@@Z ; 3
?RemoveObserver@FileSystemDataSource@@UAGIPAVnsIRDFObserver@@@Z ; 3
?assign_from_helper@?$nsCOMPtr@VnsILocaleService@@@@AAEXABVnsCOMPtr_helper@@ABUnsID@@@Z ; 2
?GetIID@nsIProperties@@SAABUnsID@@XZ ; 2
?FindTreeChildrenElement@XULSortServiceImpl@@AAEIPAVnsIContent@@PAPAV2@@Z ; 2
?GetIID@nsIDOMFocusListener@@SAABUnsID@@XZ ; 2
?get@?$nsCOMPtr@VnsIProperties@@@@QBEPAV?$nsDerivedSafe@VnsIProperties@@@@XZ ; 2
?Sort@XULSortServiceImpl@@UAGIPAVnsIDOMNode@@PBD1@Z ; 2
?assign_assuming_AddRef@?$nsCOMPtr@VnsILocale@@@@AAEXPAVnsILocale@@@Z ; 2
?HasAttribute@nsXULElement@@UAGIABV?$basic_nsAReadableString@G@@PAH@Z ; 2
?get@?$nsCOMPtr@VnsILocaleService@@@@QBEPAV?$nsDerivedSafe@VnsILocaleService@@@@XZ ; 2
??B?$nsCOMPtr@VnsILocale@@@@QBEPAV?$nsDerivedSafe@VnsILocale@@@@XZ ; 2
?GetIID@nsILocaleService@@SAABUnsID@@XZ ; 2
?assign_assuming_AddRef@?$nsCOMPtr@VnsIProperties@@@@AAEXPAVnsIProperties@@@Z ; 2
??1?$nsCOMPtr@VnsICollationFactory@@@@QAE@XZ ; 2
?isValidFolder@FileSystemDataSource@@SAHPAVnsIRDFResource@@@Z ; 2
?GetIID@?$nsCOMTypeInfo@VnsIProperties@@@@SAABUnsID@@XZ ; 2
?assign_assuming_AddRef@?$nsCOMPtr@VnsILocaleService@@@@AAEXPAVnsILocaleService@@@Z ; 2
?get@?$nsCOMPtr@VnsICollationFactory@@@@QBEPAV?$nsDerivedSafe@VnsICollationFactory@@@@XZ ; 2
??1?$nsCOMPtr@VnsILocale@@@@QAE@XZ ; 2
??B?$nsGetterAddRefs@VnsIRDFCompositeDataSource@@@@QAEPAPAVnsIRDFCompositeDataSource@@XZ ; 2
??4?$nsCOMPtr@VnsIRDFCompositeDataSource@@@@QAEAAV0@ABV0@@Z ; 2
?isDirURI@FileSystemDataSource@@SAHPAVnsIRDFResource@@@Z ; 2
?assign_from_helper@?$nsCOMPtr@VnsIProperties@@@@AAEXABVnsCOMPtr_helper@@ABUnsID@@@Z ; 2
?GetIID@?$nsCOMTypeInfo@VnsILocaleService@@@@SAABUnsID@@XZ ; 2
??1?$nsCOMPtr@VnsIProperties@@@@QAE@XZ ; 2
?FindTreeElement@XULSortServiceImpl@@AAEIPAVnsIContent@@0PAPAV2@@Z ; 2
??1?$nsCOMPtr@VnsILocaleService@@@@QAE@XZ ; 2
?Focus@nsXULTreeElement@@UAGIXZ ; 2
?assign_assuming_AddRef@?$nsCOMPtr@VnsICollationFactory@@@@AAEXPAVnsICollationFactory@@@Z ; 2
?GetIID@?$nsCOMTypeInfo@VnsIDOMFocusListener@@@@SAABUnsID@@XZ ; 2
?DoSort@XULSortServiceImpl@@AAEIPAVnsIDOMNode@@ABVnsString@@1@Z ; 2
_NSGetModule ; 1
?Insert@?$basic_nsAWritableString@G@@QAEXGI@Z ; 1
??0nsIXULPrototypeCache@@QAE@XZ ; 1
?write@?$nsWritingIterator@D@@QAEIPBDI@Z ; 1
?GetIID@?$nsCOMTypeInfo@VnsIJSRuntimeService@@@@SAABUnsID@@XZ ; 1
??0LocalStoreImpl@@IAE@XZ ; 1
?ReplaceChild@nsXULElement@@UAGIPAVnsIDOMNode@@0PAPAV2@@Z ; 1
?FlushPrototypes@nsXULPrototypeCache@@UAGIXZ ; 1
??0?$nsCOMPtr@VnsICollationFactory@@@@QAE@ABVnsQueryInterface@@@Z ; 1
??C?$nsCOMPtr@VnsINameSpaceManager@@@@QBEPAV?$nsDerivedSafe@VnsINameSpaceManager@@@@XZ ; 1
??0nsIXULSortService@@QAE@XZ ; 1
?Release@nsXULElement@@WBE@AGKXZ ; 1
?GetName@FileSystemDataSource@@SAIPAVnsIRDFResource@@PAPAVnsIRDFLiteral@@@Z ; 1
_NSGetModule ; 1
??0?$nsGetterAddRefs@VnsIController@@@@QAE@AAV?$nsCOMPtr@VnsIController@@@@@Z ; 1
?Rebuild@nsXULTemplateBuilder@@UAGIXZ ; 1
??0?$nsCOMPtr@VnsICollationFactory@@@@QAE@XZ ; 1
?StartAssignment@?$nsCOMPtr@VnsILocale@@@@QAEPAPAVnsILocale@@XZ ; 1
?Release@nsXULAttributes@@W3AGKXZ ; 1
??0?$nsGetterAddRefs@VnsIController@@@@QAE@AAV?$nsCOMPtr@VnsIController@@@@@Z ; 1
?getter_AddRefs@@YA?AV?$nsGetterAddRefs@VnsICollationFactory@@@@AAV?$nsCOMPtr@VnsICollationFactory@@@@@Z ; 1
?Release@nsRDFDOMNodeList@@W7AGKXZ ; 1
?Get@ContentSupportMap@@QAEHPAVnsIContent@@PAPAVMatch@@@Z ; 1
?Assert_NoQueryNeeded@?$nsCOMPtr@VnsICollationFactory@@@@QAEXXZ ; 1
??0?$nsCOMPtr@VnsILocale@@@@QAE@XZ ; 1
?ns_if_addref@@YAKPAVnsIXULTemplateBuilder@@@Z ; 1
??0?$nsGetterAddRefs@VnsIController@@@@QAE@AAV?$nsCOMPtr@VnsIController@@@@@Z ; 1
?CreateElementNS@nsXULDocument@@UAGIABV?$basic_nsAReadableString@G@@0PAPAVnsIDOMElement@@@Z ; 1
??0nsXULPrototypeCache@@IAE@XZ ; 1
_NSGetModule ; 1
?NS_NewRDFContainerUtils@@YAIPAPAVnsIRDFContainerUtils@@@Z ; 1
??0?$nsCOMPtr@VnsIProperties@@@@QAE@ABVnsQueryInterface@@@Z ; 1
?Get@ContentSupportMap@@QAEHPAVnsIContent@@PAPAVMatch@@@Z ; 1
??0?$nsGetterAddRefs@VnsIController@@@@QAE@AAV?$nsCOMPtr@VnsIController@@@@@Z ; 1
_NS_NewScriptXULElement ; 1
??1?$nsGetterAddRefs@VnsICollationFactory@@@@QAE@XZ ; 1
?Init@nsXULContentUtils@@IAEIXZ ; 1
?GetFolderList@FileSystemDataSource@@SAIPAVnsIRDFResource@@HHPAPAVnsISimpleEnumerator@@@Z ; 1
?Get@ContentSupportMap@@QAEHPAVnsIContent@@PAPAVMatch@@@Z ; 1
?Recycle@@YAXPAG@Z ; 1
??0nsIElementFactory@@QAE@XZ ; 1
??0RDFContainerUtilsImpl@@AAE@XZ ; 1
?GetIID@?$nsCOMTypeInfo@VnsIScriptSecurityManager@@@@SAABUnsID@@XZ ; 1
?Release@nsXULTreeElement@@WM@AGKXZ ; 1
?GetIID@?$nsCOMTypeInfo@VnsILocale@@@@SAABUnsID@@XZ ; 1
?getter_AddRefs@@YA?AV?$nsGetterAddRefs@VnsILocale@@@@AAV?$nsCOMPtr@VnsILocale@@@@@Z ; 1
??B?$nsGetterAddRefs@VnsICollationFactory@@@@QAEPAPAXXZ ; 1
??0?$nsCOMPtr@VnsILocale@@@@QAE@ABVnsQueryInterface@@@Z ; 1
?NS_NewXULSortService@@YAIPAPAVnsIXULSortService@@@Z ; 1
?Assert_NoQueryNeeded@?$nsCOMPtr@VnsILocale@@@@QAEXXZ ; 1
?GetIID@?$nsCOMTypeInfo@VnsICollationFactory@@@@SAABUnsID@@XZ ; 1
??0nsIRDFService@@QAE@XZ ; 1
??0?$nsGetterAddRefs@VnsIController@@@@QAE@AAV?$nsCOMPtr@VnsIController@@@@@Z ; 1
?assign_from_helper@?$nsCOMPtr@VnsICollationFactory@@@@AAEXABVnsCOMPtr_helper@@ABUnsID@@@Z ; 1
?SetAllowNegativeAssertions@CompositeDataSourceImpl@@UAGIH@Z ; 1
??1?$nsGetterAddRefs@VnsILocale@@@@QAE@XZ ; 1
?GetIID@nsIDateTimeFormat@@SAABUnsID@@XZ ; 1
?Init@RDFServiceImpl@@IAEIXZ ; 1
??0?$nsCOMPtr@VnsIProperties@@@@QAE@ABVnsCOMPtr_helper@@@Z ; 1
??0?$nsCOMPtr@VnsILocaleService@@@@QAE@ABVnsCOMPtr_helper@@@Z ; 1
?NS_NewXULContentUtils@@YGIPAVnsISupports@@ABUnsID@@PAPAX@Z ; 1
?Get@ContentSupportMap@@QAEHPAVnsIContent@@PAPAVMatch@@@Z ; 1
??0?$nsGetterAddRefs@VnsIController@@@@QAE@AAV?$nsCOMPtr@VnsIController@@@@@Z ; 1
??0nsXULContentUtils@@IAE@XZ ; 1
?Assert_NoQueryNeeded@?$nsCOMPtr@VnsIProperties@@@@QAEXXZ ; 1
?GetIID@?$nsCOMTypeInfo@VnsIDOMPaintListener@@@@SAABUnsID@@XZ ; 1
?LoadBindingDocument@nsXULDocument@@UAGIABV?$basic_nsAReadableString@G@@PAPAVnsIDOMDocument@@@Z ; 1
?Get@ContentSupportMap@@QAEHPAVnsIContent@@PAPAVMatch@@@Z ; 1
?ns_if_addref@@YAKPAVnsIDOMDocument@@@Z ; 1
??0RDFServiceImpl@@IAE@XZ ; 1
??0?$nsGetterAddRefs@VnsIController@@@@QAE@AAV?$nsCOMPtr@VnsIController@@@@@Z ; 1
?SetCoalesceDuplicateArcs@CompositeDataSourceImpl@@UAGIH@Z ; 1
??0?$already_AddRefed@VnsIXBLDocumentInfo@@@@QAE@PAVnsIXBLDocumentInfo@@@Z ; 1
?ReplaceChild@nsXULTreeElement@@UAGIPAVnsIDOMNode@@0PAPAV2@@Z ; 1
?Release@nsXULElement@@WBE@AGKXZ ; 1
??0?$nsGetterAddRefs@VnsIController@@@@QAE@AAV?$nsCOMPtr@VnsIController@@@@@Z ; 1
?NS_NewXULPrototypeCache@@YGIPAVnsISupports@@ABUnsID@@PAPAX@Z ; 1
?GetIID@nsIJSRuntimeService@@SAABUnsID@@XZ ; 1
??0nsIRDFContainerUtils@@QAE@XZ ; 1
_NSGetModule ; 1
?Get@ContentSupportMap@@QAEHPAVnsIContent@@PAPAVMatch@@@Z ; 1
??0nsIRDFFileSystemDataSource@@QAE@XZ ; 1
??0?$nsGetterAddRefs@VnsIController@@@@QAE@AAV?$nsCOMPtr@VnsIController@@@@@Z ; 1
?GetURI@LocalStoreImpl@@UAGIPAPAD@Z ; 1
?GetBuilder@nsXULTreeElement@@UAGIPAPAVnsIXULTemplateBuilder@@@Z ; 1
?GetRDFService@RDFServiceImpl@@SAIPAPAVnsIRDFService@@@Z ; 1
?Get@ContentSupportMap@@QAEHPAVnsIContent@@PAPAVMatch@@@Z ; 1
_NSGetModule ; 1
??C?$nsCOMPtr@VnsILocaleService@@@@QBEPAV?$nsDerivedSafe@VnsILocaleService@@@@XZ ; 1
??C?$nsCOMPtr@VnsIProperties@@@@QBEPAV?$nsDerivedSafe@VnsIProperties@@@@XZ ; 1
?Assert_NoQueryNeeded@?$nsCOMPtr@VnsILocaleService@@@@QAEXXZ ; 1
??0?$nsGetterAddRefs@VnsIController@@@@QAE@AAV?$nsCOMPtr@VnsIController@@@@@Z ; 1
?Release@nsXULAttributes@@W3AGKXZ ; 1
?NS_NewLocalStore@@YAIPAPAVnsILocalStore@@@Z ; 1
??0?$nsCOMPtr@VnsILocaleService@@@@QAE@ABVnsQueryInterface@@@Z ; 1
??0?$nsGetterAddRefs@VnsIController@@@@QAE@AAV?$nsCOMPtr@VnsIController@@@@@Z ; 1
?AddXMLSinkObserver@RDFXMLDataSourceImpl@@UAGIPAVnsIRDFXMLSinkObserver@@@Z ; 1
?FlushStyleSheets@nsXULPrototypeCache@@UAGIXZ ; 1
??0?$nsGetterAddRefs@VnsILocale@@@@QAE@AAV?$nsCOMPtr@VnsILocale@@@@@Z ; 1
?Release@nsRDFDOMNodeList@@W7AGKXZ ; 1
?assign_from_helper@?$nsCOMPtr@VnsILocale@@@@AAEXABVnsCOMPtr_helper@@ABUnsID@@@Z ; 1
?Init@LocalStoreImpl@@IAEIXZ ; 1
?ContentReplaced@nsXULDocument@@UAGIPAVnsIContent@@00H@Z ; 1
??0nsIXULContentUtils@@QAE@XZ ; 1
?AddDocTypeDecl@RDFContentSinkImpl@@UAGIABVnsIParserNode@@H@Z ; 1
??B?$nsCOMPtr@VnsIRDFService@@@@QBEPAV?$nsDerivedSafe@VnsIRDFService@@@@XZ ; 1
?ParseTagString@nsXULDocument@@IAEIABV?$basic_nsAReadableString@G@@AAPAVnsIAtom@@1@Z ; 1
_NSGetModule ; 1
??0?$nsCOMPtr@VnsIUnicodeDecoder@@@@QAE@XZ ; 1
??0XULElementFactoryImpl@@IAE@XZ ; 1
?FlushXBLInformation@nsXULPrototypeCache@@UAGIXZ ; 1
??0XULSortServiceImpl@@IAE@XZ ; 1
?write@?$nsWritingIterator@D@@QAEIPBDI@Z ; 1
??B?$nsGetterAddRefs@VnsILocale@@@@QAEPAPAVnsILocale@@XZ ; 1
??0?$nsCOMPtr@VnsIFileSpec@@@@QAE@XZ ; 1
??C?$nsCOMPtr@VnsICollationFactory@@@@QBEPAV?$nsDerivedSafe@VnsICollationFactory@@@@XZ ; 1
?Get@ContentSupportMap@@QAEHPAVnsIContent@@PAPAVMatch@@@Z ; 1
?Release@nsXULTreeElement@@WM@AGKXZ ; 1
??0?$nsGetterAddRefs@VnsIController@@@@QAE@AAV?$nsCOMPtr@VnsIController@@@@@Z ; 1
?Flush@nsXULPrototypeCache@@UAGIXZ ; 1
_NS_NewScriptXULElement ; 1
??0?$nsGetterAddRefs@VnsICollationFactory@@@@QAE@AAV?$nsCOMPtr@VnsICollationFactory@@@@@Z ; 1
?write@?$nsWritingIterator@D@@QAEIPBDI@Z ; 1
??0?$nsGetterAddRefs@VnsIController@@@@QAE@AAV?$nsCOMPtr@VnsIController@@@@@Z ; 1
??0nsILocalStore@@QAE@XZ ; 1
??0?$already_AddRefed@VnsIXBLDocumentInfo@@@@QAE@PAVnsIXBLDocumentInfo@@@Z ; 1
?NS_NewRDFService@@YAIPAPAVnsIRDFService@@@Z ; 1
??1?$nsCOMPtr@VnsIFileSpec@@@@QAE@XZ ; 1
?GetIID@nsIScriptSecurityManager@@SAABUnsID@@XZ ; 1
?GetIID@nsILocale@@SAABUnsID@@XZ ; 1
_NSGetModule ; 1
?NS_NewRDFFileSystemDataSource@@YAIPAPAVnsIRDFDataSource@@@Z ; 1
?write@?$nsWritingIterator@D@@QAEIPBDI@Z ; 1
??0FileSystemDataSource@@QAE@XZ ; 1
?GetBuilder@nsXULElement@@UAGIPAPAVnsIXULTemplateBuilder@@@Z ; 1
?GetPopupNode@nsXULDocument@@UAGIPAPAVnsIDOMNode@@@Z ; 1
?Refresh@LocalStoreImpl@@UAGIH@Z ; 1
?GetIID@?$nsCOMTypeInfo@VnsIDateTimeFormat@@@@SAABUnsID@@XZ ; 1
?GetIID@nsICollationFactory@@SAABUnsID@@XZ ; 1
??0?$nsGetterAddRefs@VnsIController@@@@QAE@AAV?$nsCOMPtr@VnsIController@@@@@Z ; 1
?Builder@nsXULElement@@IBEPAVnsIXULTemplateBuilder@@XZ ; 1
??0?$nsGetterAddRefs@VnsIController@@@@QAE@AAV?$nsCOMPtr@VnsIController@@@@@Z ; 1
?ReplaceChildAt@nsXULElement@@UAGIPAVnsIContent@@HH@Z ; 1
?StartAssignment@?$nsCOMPtr@VnsICollationFactory@@@@QAEPAPAVnsICollationFactory@@XZ ; 1
?NS_NewXULElementFactory@@YAIPAPAVnsIElementFactory@@@Z ; 1
?GetIID@nsIDOMPaintListener@@SAABUnsID@@XZ ; 1
??B?$nsGetterAddRefs@VnsISupports@@@@QAEPAPAXXZ ; 1
??0?$nsGetterAddRefs@VnsIController@@@@QAE@AAV?$nsCOMPtr@VnsIController@@@@@Z ; 1
?LaunchPopup@XULPopupListenerImpl@@MAEIPAVnsIDOMEvent@@@Z ; 1
?NS_GetSpecialDirectory@@YAIPBDPAPAVnsIFile@@@Z ; 1
