; The contents of this file are subject to the Netscape Public License
; Version 1.0 (the "NPL"); you may not use this file except in
; compliance with the NPL.  You may obtain a copy of the NPL at
; http://www.mozilla.org/NPL/
;
; Software distributed under the NPL is distributed on an "AS IS" basis,
; WITHOUT WARRANTY OF ANY KIND, either express or implied. See the NPL
; for the specific language governing rights and limitations under the
; NPL.
;
; The Initial Developer of this code under the NPL is Netscape
; Communications Corporation.  Portions created by Netscape are
; Copyright (C) 1998 Netscape Communications Corporation.  All Rights
; Reserved.


LIBRARY nsdlg32
DESCRIPTION "Navigator dialog classes"

EXPORTS
	??0CString@@QAE@ABV0@@Z @256 NONAME				; CString(const CString &)
	??0CString@@QAE@PBD@Z @257 NONAME				; CString(LPCSTR)
	??1CString@@QAE@XZ @258 NONAME					; ~CString()
	?Empty@CString@@QAEXXZ @259 NONAME
	??4CString@@QAEABV0@ABV0@@Z @260 NONAME			; operator=(const CString &)
	??4CString@@QAEABV0@D@Z @261 NONAME				; operator=(char)
	??4CString@@QAEABV0@PBD@Z @262 NONAME			; operator=(LPCSTR)
	??H@YA?AVCString@@ABV0@0@Z @263 NONAME			; operator+(const CString &, const CString &)
	??H@YA?AVCString@@ABV0@D@Z @264 NONAME			; operator+(const CString &, char)
	??H@YA?AVCString@@ABV0@PBD@Z @265 NONAME		; operator+(const CString &, LPCSTR)
	??H@YA?AVCString@@DABV0@@Z @266 NONAME			; operator+(char, const CString&)
	??H@YA?AVCString@@PBDABV0@@Z @267 NONAME		; operator+(LPCSTR, const CString &)
	??YCString@@QAEABV0@ABV0@@Z @268 NONAME			; operaror+=(const CString&)
	??YCString@@QAEABV0@D@Z @269 NONAME				; operator+=(char)
	??YCString@@QAEABV0@PBD@Z @270 NONAME			; operator+=(LPCSTR)
	?Find@CString@@QBEHD@Z @271 NONAME
	?ReverseFind@CString@@QBEHD@Z @272 NONAME
	?Mid@CString@@QBE?AV1@H@Z @273 NONAME
	?Mid@CString@@QBE?AV1@HH@Z @274 NONAME
	?Left@CString@@QBE?AV1@H@Z @275 NONAME
	?Right@CString@@QBE?AV1@H@Z @276 NONAME
	?LoadStringA@CString@@QAEHPAXI@Z @277 NONAME
	?GetWindowTextA@CString@@QAEHPAX@Z @278 NONAME
	??0CDialog@@QAE@PAXI@Z @279 NONAME				; CDialog(HINSTANCE, UINT)
	?Create@CDialog@@QAEHPAX@Z @280 NONAME
	?DestroyWindow@CDialog@@QAEHXZ @281 NONAME
	?InitDialog@CDialog@@MAEHXZ @282 NONAME
	?OnCommand@CDialog@@MAEHHPAXI@Z @283 NONAME
	?WindowProc@CDialog@@MAEJIIJ@Z @284 NONAME
	?RadioButtonTransfer@CDialog@@IAEXHAAHH@Z @285 NONAME
	?CheckBoxTransfer@CDialog@@IAEXHAAHH@Z @286 NONAME
	?EditFieldTransfer@CDialog@@IAEXHAAVCString@@H@Z @287 NONAME
	?EditFieldTransfer@CDialog@@IAEXHAAHH@Z @288 NONAME
	?ListBoxTransfer@CDialog@@IAEXHAAHH@Z @289 NONAME
	?ComboBoxTransfer@CDialog@@IAEXHAAHH@Z @290 NONAME
	??0CPropertyPageEx@@QAE@PAXIPBD@Z @291 NONAME		; CPropertyPageEx(HINSTANCE, UINT)
	??1CPropertyPageEx@@UAE@XZ @292 NONAME			; ~CPropertyPage()
	??2CPropertyPageEx@@SAPAXI@Z @293 NONAME		; operator new(size_t)
	??3CPropertyPageEx@@SAXPAX@Z @294 NONAME		; operator delete()
	?QueryInterface@CPropertyPageEx@@UAGJABU_GUID@@PAPAX@Z @295 NONAME
	?AddRef@CPropertyPageEx@@UAGKXZ @296 NONAME
	?Release@CPropertyPageEx@@UAGKXZ @297 NONAME
	?SetPageSite@CPropertyPageEx@@UAGJPAUIPropertyPageSite@@@Z @298 NONAME
	?Activate@CPropertyPageEx@@UAGJPAXPBUtagRECT@@H@Z @299 NONAME
	?Deactivate@CPropertyPageEx@@UAGJXZ @300 NONAME
	?GetPageInfo@CPropertyPageEx@@UAGJPAUtagPROPPAGEINFO@@@Z @301 NONAME
	?SetObjects@CPropertyPageEx@@UAGJKPAPAUIUnknown@@@Z @302 NONAME
	?Show@CPropertyPageEx@@UAGJI@Z @303 NONAME
	?Move@CPropertyPageEx@@UAGJPBUtagRECT@@@Z @304 NONAME
	?IsPageDirty@CPropertyPageEx@@UAGJXZ @305 NONAME
	?Apply@CPropertyPageEx@@UAGJXZ @306 NONAME
	?Help@CPropertyPageEx@@UAGJPBG@Z @307 NONAME
	?TranslateAcceleratorA@CPropertyPageEx@@UAGJPAUtagMSG@@@Z @308 NONAME
	?PageChanging@CPropertyPageEx@@UAGJPAUIPropertyPage@@@Z @309 NONAME
	?GetPageSize@CPropertyPageEx@@MAEJAAUtagSIZE@@@Z @310 NONAME
	?InitDialog@CPropertyPageEx@@MAEHXZ @311 NONAME
	?DoModal@CDialog@@QAEHPAX@Z @312 NONAME
	?OnOK@CDialog@@MAEXXZ @313 NONAME
	?OnCancel@CDialog@@MAEXXZ @314 NONAME
	?Init@CString@@AAEXXZ @315 NONAME
	?DrawColorButtonControl@@YGXPAUtagDRAWITEMSTRUCT@@PAX@Z @316 NONAME
	?EditFieldTransfer@CDialog@@IAEXHAAIH@Z @317 NONAME
	?ComboBoxTransfer@CDialog@@IAEXHAAVCString@@H@Z @318 NONAME
	?SizeToFitBitmapButton@@YGXPAX0@Z @319 NONAME
	?DrawBitmapButton@@YGXPAUtagDRAWITEMSTRUCT@@PAX1@Z @320 NONAME
	?ListBoxTransfer@CDialog@@IAEXHAAVCString@@H@Z @321 NONAME
	?BufferSetLength@CString@@QAEPADH@Z @322 NONAME
	??0CString@@QAE@PAG@Z @323 NONAME				; CString(LPOLESTR)
	??4CString@@QAEABV0@PAG@Z @324 NONAME			; operator=(LPOLESTR) 
	?EnableDlgItem@CDialog@@IAEXIH@Z @325 NONAME
	
