?GetStyleData@StyleContextImpl@@UAEPBUnsStyleStruct@@W4nsStyleStructID@@@Z ; 7811031
?Equals@nsNodeInfo@@UAGHPAVnsIAtom@@H@Z ; 5390724
?AddRef@nsComputedDOMStyle@@UAGKXZ ; 4084170
?GetWeight@CSSStyleRuleImpl@@UBEHXZ ; 2920208
?FirstSelector@CSSStyleRuleImpl@@UAEPAUnsCSSSelector@@XZ ; 2865106
?GetData@CSSDeclarationImpl@@UAGIABUnsID@@PAPAUnsCSSStruct@@@Z ; 1846548
?AddRef@nsXMLElement@@UAGKXZ ; 1829755
?Release@nsGenericElement@@UAGKXZ ; 1828839
?Release@nsHTMLMetaElement@@UAGKXZ ; 1828040
?Release@StyleContextImpl@@UAGKXZ ; 1739943
?normalize_forward@?$nsReadingIterator@D@@QAEXXZ ; 1706699
?BeginReading@?$basic_nsAReadableString@D@@QBEAAV?$nsReadingIterator@D@@AAV2@@Z ; 1484411
?QueryInterface@nsGenericElement@@UAGIABUnsID@@PAPAX@Z ; 1210599
?QueryInterface@nsGenericHTMLElement@@UAGIABUnsID@@PAPAX@Z ; 1198311
?GetParent@StyleContextImpl@@UBEPAVnsIStyleContext@@XZ ; 1143909
?GetPrototypeBinding@nsXBLBinding@@UAGIPAPAVnsIXBLPrototypeBinding@@@Z ; 964215
??1AtomKey@@UAE@XZ ; 885491
?HashCode@AtomKey@@UBEIXZ ; 885213
??0AtomKey@@QAE@PAVnsIAtom@@@Z ; 869416
?assign_assuming_AddRef@nsCOMPtr_base@@IAEXPAVnsISupports@@@Z ; 865117
?GetMutableStyleData@StyleContextImpl@@UAEPAUnsStyleStruct@@W4nsStyleStructID@@@Z ; 838839
?Compare@@YAHABV?$basic_nsAReadableString@G@@0@Z ; 714708
?AddRef@nsDOMAttribute@@UAGKXZ ; 685601
?AddRef@nsXBLBinding@@UAGKXZ ; 609605
?Length@?$basic_nsPromiseFlatString@D@@UBEIXZ ; 604431
?AddRef@HTMLAttributesImpl@@UAGKXZ ; 584847
?DOMQueryInterface@nsGenericHTMLElement@@SAIPAVnsIDOMHTMLElement@@ABUnsID@@PAPAX@Z ; 567548
?AddRef@CSSImportRuleImpl@@UAGKXZ ; 566487
?Release@CSSImportRuleImpl@@UAGKXZ ; 565922
?Release@nsCSSRule@@UAGKXZ ; 565922
?AddRef@nsContentList@@UAGKXZ ; 490093
?Release@nsEventStateManager@@UAGKXZ ; 485906
?SetPresContext@nsEventStateManager@@UAGIPAVnsIPresContext@@@Z ; 485636
?Equals@nsID@@QBEHABU1@@Z ; 477919
?GetContentState@nsEventStateManager@@UAGIPAVnsIContent@@AAH@Z ; 446593
??1SelectorMatchesData@@QAE@XZ ; 445691
??0SelectorMatchesData@@QAE@PAVnsIPresContext@@PAVnsIContent@@PAVnsIStyleContext@@PAVnsISupportsArray@@PAW4nsCompatibility@@@Z ; 445691
?Equals@AtomKey@@UBEHPBVnsHashKey@@@Z ; 443961
??8nsStyleSides@@QBEHABV0@@Z ; 442461
?IsBorderSideVisible@StyleBorderImpl@@QBEHE@Z ; 435656
?GetUseCount@nsHTMLMappedAttributes@@UBGIAAH@Z ; 431385
?Release@nsEventListenerManager@@UAGKXZ ; 411868
?GetEnclosingScope@nsBindingManager@@IAEXPAVnsIContent@@PAPAV2@@Z ; 405573
?Release@nsXMLCDATASection@@UAGKXZ ; 404453
??1nsISupportsKey@@UAE@XZ ; 399821
??0nsISupportsKey@@QAE@PAVnsISupports@@@Z ; 399821
?Read@nsCSSScanner@@IAEHAAH@Z ; 371037
?GetTag@nsGenericElement@@UBGIAAPAVnsIAtom@@@Z ; 361147
?GetBindingParent@nsGenericElement@@UAGIPAPAVnsIContent@@@Z ; 356869
?IsSimpleXlink@nsStyleUtil@@SAHPAVnsIContent@@PAVnsIPresContext@@PAW4nsLinkState@@@Z ; 351603
?GetBinding@nsBindingManager@@UAGIPAVnsIContent@@PAPAVnsIXBLBinding@@@Z ; 347267
?Release@StyleSetImpl@@UAGKXZ ; 343562
?GetNameSpacePrefix@NameSpaceImpl@@UBGIAAPAVnsIAtom@@@Z ; 335628
?ElementAt@nsCheapVoidArray@@QBEPAXH@Z ; 323285
?Equals@nsISupportsKey@@UBEHPBVnsHashKey@@@Z ; 320227
?HandleEvent@nsEventListenerManager@@UAEIPAVnsIPresContext@@PAUnsEvent@@PAPAVnsIDOMEvent@@PAVnsIDOMEventTarget@@IPAW4nsEventStatus@@@Z ; 293987
?ChildAt@nsGenericContainerElement@@UBGIHAAPAVnsIContent@@@Z ; 291334
?advance@?$nsReadingIterator@G@@QAEAAV1@H@Z ; 261629
?QueryInterface@nsTextNode@@UAGIABUnsID@@PAPAX@Z ; 252709
?QueryInterface@nsHTMLTableCellElement@@UAGIABUnsID@@PAPAX@Z ; 246967
??1nsStyleText@@QAE@XZ ; 246561
?Equals@nsNodeInfo@@UAGHPAVnsIAtom@@0H@Z ; 241959
?Equals@nsNodeInfo@@UAGHPAVnsINodeInfo@@@Z ; 241959
?GetNameSpaceID@nsGenericHTMLElement@@UBGIAAH@Z ; 239589
?GetReadableFragment@?$basic_nsLiteralString@G@@MBEPBGAAU?$nsReadableFragment@G@@W4nsFragmentRequest@@I@Z ; 231014
?GetID@nsGenericHTMLElement@@UBGIAAPAVnsIAtom@@@Z ; 230197
?Length@?$basic_nsLiteralString@G@@UBEIXZ ; 229582
?GetOutermostStyleScope@nsBindingManager@@IAEXPAVnsIContent@@PAPAV2@@Z ; 224852
?QueryInterface@nsHTMLOptionElement@@UAGIABUnsID@@PAPAX@Z ; 220606
?AddRef@nsHTMLDocument@@UAGKXZ ; 217121
?AddRef@nsDocument@@UAGKXZ ; 217121
?Release@nsDocument@@UAGKXZ ; 217118
?Release@nsHTMLDocument@@UAGKXZ ; 217118
?AttributeAffectsStyle@CSSStyleSheetImpl@@UAGIPAVnsIAtom@@PAVnsIContent@@AAH@Z ; 215040
?GetAttributeCount@nsGenericHTMLElement@@UBGIAAH@Z ; 207682
?Reset@nsHTMLValue@@QAEXXZ ; 204259
?GetCutable@DocumentViewerImpl@@UAGIPAH@Z ; 203992
?Equals@nsNodeInfo@@UAGHPAVnsIAtom@@@Z ; 200196
?GetList@StyleContextCache@@AAEPAVnsVoidArray@@I@Z ; 196863
?AddRef@nsNodeInfo@@UAGKXZ ; 194233
?GetRuleCascade@CSSRuleProcessor@@IAEPAURuleCascadeData@@PAVnsIAtom@@@Z ; 183595
?FindPrimaryFrameFor@StyleSetImpl@@UAGIPAVnsIPresContext@@PAVnsIFrameManager@@PAVnsIContent@@PAPAVnsIFrame@@PAUnsFindFrameHint@@@Z ; 180427
?QueryInterface@CSSStyleRuleImpl@@UAGIABUnsID@@PAPAX@Z ; 179136
?HaveStyleData@StyleContextImpl@@IBEIXZ ; 178159
?GetImportantRule@CSSStyleRuleImpl@@UAEPAVnsIStyleRule@@XZ ; 175729
?GetImportantValues@CSSDeclarationImpl@@UAGIAAPAVnsICSSDeclaration@@@Z ; 172362
??0?$basic_nsPromiseFlatString@G@@QAE@ABV?$basic_nsAReadableString@G@@@Z ; 166039
?GetID@HTMLAttributesImpl@@UBGIAAPAVnsIAtom@@@Z ; 165952
?QualifiedNameEquals@nsNodeInfo@@UAGHABV?$basic_nsAReadableString@G@@@Z ; 165900
?Release@nsBindingManager@@UAGKXZ ; 164044
?GetParentNameSpace@NameSpaceImpl@@UBGIAAPAVnsINameSpace@@@Z ; 157715
?Release@nsNodeInfo@@UAGKXZ ; 154482
?MapFontStyleInto@CSSStyleRuleImpl@@UAGIPAVnsIMutableStyleContext@@PAVnsIPresContext@@@Z ; 150559
?MapStyleInto@CSSStyleRuleImpl@@UAGIPAVnsIMutableStyleContext@@PAVnsIPresContext@@@Z ; 150559
?IsHTMLLink@nsStyleUtil@@SAHPAVnsIContent@@PAVnsIAtom@@PAVnsIPresContext@@PAW4nsLinkState@@@Z ; 149286
?CalcDifference@StyleMarginImpl@@QBEHABU1@@Z ; 148722
?CalcFontDifference@StyleFontImpl@@SAHABUnsFont@@0@Z ; 148542
?GetInsertionIndex@nsXBLInsertionPoint@@UAGIPAH@Z ; 148102
?GetStyleContextKey@StyleContextImpl@@UBGIAAI@Z ; 147536
?HandleDOMEvent@nsGenericElement@@UAGIPAVnsIPresContext@@PAUnsEvent@@PAPAVnsIDOMEvent@@IPAW4nsEventStatus@@@Z ; 139090
?WalkRules@nsBindingManager@@IAEXP6AHPAVnsISupports@@PAX@Z1PAVnsIContent@@3@Z ; 135925
?GetAttribute@nsGenericHTMLElement@@UBGIHPAVnsIAtom@@AAV?$basic_nsAWritableString@G@@@Z ; 126999
?Release@nsXBLBinding@@UAGKXZ ; 123638
?Count@nsCheapVoidArray@@QBEHXZ ; 119807
?GetAttribute@HTMLAttributesImpl@@UBGIPAVnsIAtom@@PAPBVnsHTMLValue@@@Z ; 116051
?GatherRuleProcessors@StyleSetImpl@@IAEIXZ ; 112586
?WalkRuleProcessors@StyleSetImpl@@QAEXP6AHPAVnsISupports@@PAX@Z1PAVnsIContent@@@Z ; 112539
?UseDocumentRules@nsBindingManager@@UAGIPAVnsIContent@@PAH@Z ; 112534
?WalkRules@nsBindingManager@@UAGIPAVnsIStyleSet@@P6AHPAVnsISupports@@PAX@Z2PAVnsIContent@@@Z ; 112534
?NamespaceEquals@nsNodeInfo@@UAGHH@Z ; 111951
?EnsureArray@StyleSetImpl@@IAEHPAPAVnsISupportsArray@@@Z ; 109571
?ChildCount@nsGenericHTMLContainerElement@@UBGIAAH@Z ; 105563
?EnsureStyleData@StyleContextImpl@@IAEIPAVnsIPresContext@@@Z ; 103797
?ResetFrom@StyleMarginImpl@@QAEXPBUnsStyleMargin@@PAVnsIPresContext@@@Z ; 99296
?ResetFrom@StyleTableImpl@@QAEXPBUnsStyleTable@@PAVnsIPresContext@@@Z ; 98975
??1nsStylePrint@@QAE@XZ ; 98618
?GetContexts@StyleContextCache@@QAEIIPAPAVnsVoidArray@@@Z ; 98209
?GetStyleRuleCount@StyleContextImpl@@UBEHXZ ; 97903
?Release@nsXBLDocumentInfo@@UAGKXZ ; 95119
?RulesMatching@CSSRuleProcessor@@UAGIPAVnsIPresContext@@PAVnsIAtom@@PAVnsIContent@@PAVnsIStyleContext@@PAVnsISupportsArray@@@Z ; 94771
?EnumerateAllRules@RuleHash@@QAEXPAVnsIAtom@@0ABVnsVoidArray@@P6AXPAVnsICSSStyleRule@@PAX@Z3@Z ; 94771
?GetScriptGlobalObject@nsDocument@@UAGIPAPAVnsIScriptGlobalObject@@@Z ; 90374
?QueryInterface@nsHTMLAnchorElement@@UAGIABUnsID@@PAPAX@Z ; 88810
?Release@nsStyleContextData@@AAEIXZ ; 88265
?EnumerateTagRules@RuleHash@@QAEXPAVnsIAtom@@P6AXPAVnsICSSStyleRule@@PAX@Z2@Z ; 82765
?RulesMatching@CSSRuleProcessor@@UAGIPAVnsIPresContext@@PAVnsIAtom@@PAVnsIContent@@1PAVnsIStyleContext@@PAVnsICSSPseudoComparator@@PAVnsISupportsArray@@@Z ; 82765
?QueryInterface@nsHTMLTableRowElement@@UAGIABUnsID@@PAPAX@Z ; 82744
?AddRef@nsTypedSelection@@UAGKXZ ; 81263
?GetLength@nsHTMLOptionCollection@@UAGIPAI@Z ; 78494
?GetURL@HTMLStyleSheetImpl@@UBGIAAPAVnsIURI@@@Z ; 76862
?GetToken@CSSParserImpl@@IAEHAAHH@Z ; 76047
?Item@nsHTMLOptionCollection@@UAGIIPAPAVnsIDOMNode@@@Z ; 75567
?QueryInterface@nsDOMEvent@@UAGIABUnsID@@PAPAX@Z ; 75434
?CalcDifference@StyleColorImpl@@QBEHABU1@@Z ; 74362
?CalcStyleDifference@StyleContextImpl@@UBGIPAVnsIStyleContext@@AAHH@Z ; 74362
?CalcDifference@StyleFontImpl@@QBEHABU1@@Z ; 74362
?QueryInterface@nsGenericHTMLContainerFormElement@@UAGIABUnsID@@PAPAX@Z ; 73827
?CalcDifference@StyleOutlineImpl@@QBEHABU1@@Z ; 73805
?CalcDifference@StyleBorderImpl@@QBEHABU1@@Z ; 73805
??9nsStyleCoord@@QBEHABV0@@Z ; 73805
?CalcDifference@StylePositionImpl@@QBEHABU1@@Z ; 73805
?CalcDifference@StyleListImpl@@QBEHABU1@@Z ; 73805
?Release@nsDOMEvent@@UAGKXZ ; 73784
?QueryInterface@nsHTMLSelectElement@@UAGIABUnsID@@PAPAX@Z ; 73674
?QueryInterface@StyleContextImpl@@UAGIABUnsID@@PAPAX@Z ; 72376
?CalcDifference@StyleDisplayImpl@@QBEHABU1@@Z ; 72047
?CalcDifference@StyleContentImpl@@QBEHABU1@@Z ; 72047
?CalcDifference@StyleUserInterfaceImpl@@QBEHABU1@@Z ; 72047
?CalcDifference@StyleTableImpl@@QBEHABU1@@Z ; 72047
?CalcDifference@StyleTextImpl@@QBEHABU1@@Z ; 72047
?CalcDifference@StylePrintImpl@@QBEHABU1@@Z ; 72034
?HasChildNodes@nsHTMLEmbedElement@@UAGIPAH@Z ; 70817
?GetStyle@StyleContextImpl@@UBGIW4nsStyleStructID@@AAUnsStyleStruct@@@Z ; 70367
?GetContext@StyleSetImpl@@IAEPAVnsIStyleContext@@PAVnsIPresContext@@PAV2@PAVnsIAtom@@PAVnsISupportsArray@@HAAH@Z ; 69814
?Reset@nsCSSValue@@QAEXXZ ; 69251
?GetText@nsGenericDOMDataNode@@QAEIPAPBVnsTextFragment@@@Z ; 68838
?GetText@nsCommentNode@@UAGIPAPBVnsTextFragment@@@Z ; 68838
?RecycleArray@StyleSetImpl@@IAEXPAPAVnsISupportsArray@@@Z ; 67418
?Pushback@nsCSSScanner@@IAEXG@Z ; 67108
?Unread@nsCSSScanner@@IAEXXZ ; 66961
?HasMutationListeners@nsGenericElement@@SAHPAVnsIContent@@I@Z ; 66454
?CopyTo@StyleColorImpl@@QBEXAAUnsStyleColor@@@Z ; 66128
?KeyCompare@nsNodeInfoInner@@SAHPBX0@Z ; 64836
?GetDOMSlots@nsGenericElement@@IAEPAUnsDOMSlots@@XZ ; 64315
?QueryInterface@nsHTMLTableElement@@UAGIABUnsID@@PAPAX@Z ; 64101
?GetHashValue@nsNodeInfoInner@@SAIPBX@Z ; 63640
?Next@nsCSSScanner@@QAEHAAHAAUnsCSSToken@@@Z ; 62802
?GetBindingManager@nsDocument@@UAGIPAPAVnsIBindingManager@@@Z ; 62361
?GetTag@nsXMLCDATASection@@UBGIAAPAVnsIAtom@@@Z ; 61207
?GetPseudoType@StyleContextImpl@@UBGIAAPAVnsIAtom@@@Z ; 61165
?QueryInterface@nsEventListenerManager@@UAGIABUnsID@@PAPAX@Z ; 59135
?IsOnlyWhitespace@nsCommentNode@@UAGIPAH@Z ; 58096
?IsOnlyWhitespace@nsGenericDOMDataNode@@QAEIPAH@Z ; 58096
?QueryInterface@nsHTMLBodyElement@@UAGIABUnsID@@PAPAX@Z ; 57072
?GetNodeInfo@nsNodeInfoManager@@UAGIPAVnsIAtom@@0HAAPAVnsINodeInfo@@@Z ; 56597
?RulesMatching@HTMLCSSStyleSheetImpl@@UAGIPAVnsIPresContext@@PAVnsIAtom@@PAVnsIContent@@1PAVnsIStyleContext@@PAVnsICSSPseudoComparator@@PAVnsISupportsArray@@@Z ; 55642
?RulesMatching@HTMLStyleSheetImpl@@UAGIPAVnsIPresContext@@PAVnsIAtom@@PAVnsIContent@@1PAVnsIStyleContext@@PAVnsICSSPseudoComparator@@PAVnsISupportsArray@@@Z ; 55051
?RecalcData@StyleBorderImpl@@QAEXI@Z ; 54457
?RecalcAutomaticData@StyleContextImpl@@UAEXPAVnsIPresContext@@@Z ; 54457
?RecalcData@StylePaddingImpl@@QAEXXZ ; 54457
?RecalcData@StyleOutlineImpl@@QAEXXZ ; 54457
?RecalcData@StyleMarginImpl@@QAEXXZ ; 54457
?Release@nsHTMLMappedAttributes@@UAGKXZ ; 53385
?RulesMatching@HTMLCSSStyleSheetImpl@@UAGIPAVnsIPresContext@@PAVnsIAtom@@PAVnsIContent@@PAVnsIStyleContext@@PAVnsISupportsArray@@@Z ; 53343
?ResolveStyleFor@StyleSetImpl@@UAEPAVnsIStyleContext@@PAVnsIPresContext@@PAVnsIContent@@PAV2@H@Z ; 53343
?QueryInterface@nsHTMLDocument@@UAGIABUnsID@@PAPAX@Z ; 52490
?QueryInterface@nsHTMLDivElement@@UAGIABUnsID@@PAPAX@Z ; 52069
?ReleaseListeners@nsEventListenerManager@@IAEXPAPAVnsVoidArray@@H@Z ; 51660
?RulesMatching@HTMLStyleSheetImpl@@UAGIPAVnsIPresContext@@PAVnsIAtom@@PAVnsIContent@@PAVnsIStyleContext@@PAVnsISupportsArray@@@Z ; 50192
?GetDocument@nsTextNode@@UBGIAAPAVnsIDocument@@@Z ; 50154
?GetDocument@nsGenericDOMDataNode@@QBEIAAPAVnsIDocument@@@Z ; 50154
?ResetFrom@StyleBorderImpl@@QAEXPBUnsStyleBorder@@PAVnsIPresContext@@@Z ; 49648
?ResetFrom@StyleTextImpl@@QAEXPBUnsStyleText@@PAVnsIPresContext@@@Z ; 49648
?ResetFrom@StylePrintImpl@@QAEXPBUnsStylePrint@@PAVnsIPresContext@@@Z ; 49648
?ResetFrom@StyleFontImpl@@QAEXPBUnsStyleFont@@PAVnsIPresContext@@@Z ; 49648
?ResetFrom@StyleContentImpl@@QAEXPBU1@PAVnsIPresContext@@@Z ; 49648
?ResetFrom@StyleListImpl@@QAEXPBUnsStyleList@@PAVnsIPresContext@@@Z ; 49648
?ResetFrom@StyleUserInterfaceImpl@@QAEXPBUnsStyleUserInterface@@PAVnsIPresContext@@@Z ; 49648
?ResetFrom@StyleOutlineImpl@@QAEXPBUnsStyleOutline@@PAVnsIPresContext@@@Z ; 49648
?ResetFrom@StyleDisplayImpl@@QAEXPBUnsStyleDisplay@@PAVnsIPresContext@@@Z ; 49648
?ResetFrom@StyleColorImpl@@QAEXPBUnsStyleColor@@PAVnsIPresContext@@@Z ; 49648
?ResetFrom@StylePositionImpl@@QAEXPBUnsStylePosition@@PAVnsIPresContext@@@Z ; 49648
??0nsStyleUserInterface@@QAE@XZ ; 49639
??1nsStyleUserInterface@@QAE@XZ ; 49621
??2StyleContextImpl@@SAPAXI@Z ; 49430
?ShareStyleData@StyleContextImpl@@QAEIXZ ; 49340
?RemapStyle@StyleContextImpl@@UAGIPAVnsIPresContext@@H@Z ; 49340
?AddContext@StyleContextCache@@QAEIIPAVnsIStyleContext@@@Z ; 49327
??0nsStyleList@@QAE@XZ ; 49327
??0nsStyleContextData@@AAE@PAVnsIPresContext@@@Z ; 49327
??0nsStyleText@@QAE@XZ ; 49327
??0nsStylePosition@@QAE@XZ ; 49327
?UpdateStyleSetCache@StyleContextImpl@@QBEIXZ ; 49327
??0?$nsCOMPtr@VnsILanguageAtom@@@@QAE@XZ ; 49327
??0StyleContextImpl@@QAE@PAVnsIStyleContext@@PAVnsIAtom@@PAVnsISupportsArray@@PAVnsIPresContext@@@Z ; 49327
??0nsStyleBorder@@QAE@XZ ; 49327
?NS_NewStyleContext@@YAIPAPAVnsIStyleContext@@PAV1@PAVnsIAtom@@PAVnsISupportsArray@@PAVnsIPresContext@@@Z ; 49327
??0nsStyleFont@@IAE@ABUnsFont@@0@Z ; 49327
??0nsStyleTable@@QAE@XZ ; 49327
??0StyleTableImpl@@QAE@XZ ; 49327
?VerifyList@StyleContextCache@@AAEII@Z ; 49327
??0nsStyleOutline@@QAE@XZ ; 49327
?AddStyleContext@StyleSetImpl@@UAGIPAVnsIStyleContext@@@Z ; 49327
??0nsStylePrint@@QAE@XZ ; 49327
??0nsStyleContent@@QAE@XZ ; 49327
?Create@nsStyleContextData@@CAPAV1@PAVnsIPresContext@@@Z ; 49327
??1nsStyleContextData@@AAE@XZ ; 49309
??1nsStyleContent@@QAE@XZ ; 49309
?RemoveStyleContext@StyleSetImpl@@UAGIPAVnsIStyleContext@@@Z ; 49307
?RemoveContext@StyleContextCache@@QAEIIPAVnsIStyleContext@@@Z ; 49307
??_GStyleContextImpl@@UAEPAXI@Z ; 49307
?Count@StyleContextCache@@QAEIXZ ; 49307
??1StyleContextImpl@@UAE@XZ ; 49307
?AllocateQuotes@nsStyleContent@@QAEII@Z ; 48974
?AppendChild@StyleContextImpl@@IAEXPAV1@@Z ; 48961
?RemoveChild@StyleContextImpl@@IAEXPAV1@@Z ; 48942
?ComputeCRC32@StyleBorderImpl@@QBEII@Z ; 48902
?ComputeCRC32@StyleMarginImpl@@QBEII@Z ; 48902
?ComputeCRC32@StyleFontImpl@@QBEII@Z ; 48902
?FindMatchingContext@StyleSetImpl@@UAGIPAVnsIStyleContext@@PAPAV2@@Z ; 48902
?ComputeCRC32@StyleContentImpl@@QBEII@Z ; 48902
?ComputeCRC32@StyleColorImpl@@QBEII@Z ; 48902
?ComputeCRC32@StylePositionImpl@@QBEII@Z ; 48902
?ComputeCRC32@StyleUserInterfaceImpl@@QBEII@Z ; 48902
?ComputeCRC32@StyleOutlineImpl@@QBEII@Z ; 48902
?ComputeCRC32@StylePrintImpl@@QBEII@Z ; 48902
?ComputeCRC32@StyleTableImpl@@QBEII@Z ; 48902
?ComputeCRC32@StyleTextImpl@@QBEII@Z ; 48902
?ComputeCRC32@StyleListImpl@@QBEII@Z ; 48902
?ComputeCRC32@StyleDisplayImpl@@QBEII@Z ; 48902
?ComputeCRC32@nsStyleContextData@@ABEII@Z ; 48902
?ComputeCRC32@StylePaddingImpl@@QBEII@Z ; 48902
?GetAttribute@nsHTMLMappedAttributes@@UBGIPAVnsIAtom@@PAPBVnsHTMLValue@@@Z ; 48246
?GetStrength@CSSImportantRule@@UBGIAAH@Z ; 47760
?AddRef@nsXBLAttributeEntry@@UAGKXZ ; 47545
?GetListenerManager@nsGenericElement@@QAEIPAPAVnsIEventListenerManager@@@Z ; 47529
?InheritsStyle@nsXBLPrototypeBinding@@UAGIPAH@Z ; 47068
?InheritsStyle@nsXBLBinding@@UAGIPAH@Z ; 47068
?QueryInterface@nsHTMLTableSectionElement@@UAGIABUnsID@@PAPAX@Z ; 46577
?SetBorderStyle@nsStyleBorder@@QAEXEE@Z ; 46169
?GetAttribute@nsHTMLMappedAttributes@@UBGIPAVnsIAtom@@AAVnsHTMLValue@@@Z ; 45693
?QueryInterface@nsXBLDocumentInfo@@UAGIABUnsID@@PAPAX@Z ; 45606
?GetXBLDocumentInfo@nsXBLPrototypeBinding@@UAGIPAVnsIContent@@PAPAVnsIXBLDocumentInfo@@@Z ; 45532
?QueryInterface@nsHTMLFontElement@@UAGIABUnsID@@PAPAX@Z ; 45508
?GetLineBreaker@nsDocument@@UAGIPAPAVnsILineBreaker@@@Z ; 45362
?SetDocument@nsXMLProcessingInstruction@@UAGIPAVnsIDocument@@HH@Z ; 45355
?SetDocument@nsGenericDOMDataNode@@QAEIPAVnsIDocument@@HH@Z ; 45355
?Release@nsXBLAttributeEntry@@UAGKXZ ; 44262
?SetDocument@nsGenericElement@@UAGIPAVnsIDocument@@HH@Z ; 43830
?QueryInterface@nsHTMLHtmlElement@@UAGIABUnsID@@PAPAX@Z ; 42761
?AttributeChanged@nsDOMStyleSheetList@@UAGIPAVnsIDocument@@PAVnsIContent@@HPAVnsIAtom@@H@Z ; 42393
?Match@nsContentList@@IAEIPAVnsIContent@@PAH@Z ; 41339
?StyleDataMatches@StyleContextImpl@@UAGIPAVnsIStyleContext@@PAH@Z ; 41304
?AttributeChanged@StyleSetImpl@@UAGIPAVnsIPresContext@@PAVnsIContent@@HPAVnsIAtom@@H@Z ; 40624
?Release@nsXBLPrototypeHandler@@UAGKXZ ; 40231
?GetNumberOfStyleSheets@nsDocument@@UAEHXZ ; 40186
?GetRuleProcessors@nsXBLDocumentInfo@@UAGIPAPAVnsISupportsArray@@@Z ; 40138
?SetDocument@nsGenericHTMLElement@@UAGIPAVnsIDocument@@HH@Z ; 39962
?PopulateWith@nsContentList@@IAEXPAVnsIContent@@H@Z ; 39448
?ProbePseudoStyleFor@StyleSetImpl@@UAEPAVnsIStyleContext@@PAVnsIPresContext@@PAVnsIContent@@PAVnsIAtom@@PAV2@H@Z ; 39293
?ShareStyleDataFrom@StyleContextImpl@@QAEIPAVnsIStyleContext@@@Z ; 38958
?QueryInterface@nsHTMLSpanElement@@UAGIABUnsID@@PAPAX@Z ; 38387
?WalkRules@nsXBLBinding@@UAGIP6AHPAVnsISupports@@PAX@Z1@Z ; 38371
?FindChildWithRules@StyleContextImpl@@UAGIPBVnsIAtom@@PAVnsISupportsArray@@AAPAVnsIStyleContext@@@Z ; 38059
??1RuleValue@@QAE@XZ ; 37901
?AppendRule@RuleHash@@QAEXPAVnsICSSStyleRule@@@Z ; 37818
?AppendRuleToTable@RuleHash@@IAEXAAVnsHashtable@@PAVnsIAtom@@PAVnsICSSStyleRule@@@Z ; 37818
?Release@nsNodeInfoManager@@UAGKXZ ; 35684
?GetAttribute@HTMLAttributesImpl@@UBGIPAVnsIAtom@@AAVnsHTMLValue@@@Z ; 34480
?Release@HTMLColorRule@@UAGKXZ ; 34254
?UngetToken@CSSParserImpl@@IAEXXZ ; 33405
?QueryInterface@nsHTMLImageElement@@UAGIABUnsID@@PAPAX@Z ; 32720
?GetDisplaySelection@nsSelection@@UAGIPAF@Z ; 32092
?QueryInterface@nsHTMLBRElement@@UAGIABUnsID@@PAPAX@Z ; 31520
?ForceUnique@StyleContextImpl@@UAEXXZ ; 31514
?HashValue@nsHTMLValue@@QBEIXZ ; 31053
?QueryInterface@nsDocument@@UAGIABUnsID@@PAPAX@Z ; 30611
?GetNodeInfoManager@nsNodeInfo@@UAGIAAPAVnsINodeInfoManager@@@Z ; 30462
?AddRef@HTMLCSSStyleSheetImpl@@UAGKXZ ; 30255
?AppendChildTo@nsGenericContainerElement@@UAGIPAVnsIContent@@H@Z ; 30157
?AppendElement@nsCheapVoidArray@@QAEHPAX@Z ; 30157
?ReleaseText@nsTextFragment@@IAEXXZ ; 29952
?Init@nsDocViwerSelectionListener@@QAEIPAVDocumentViewerImpl@@@Z ; 29710
?SetParent@nsTextNode@@UAGIPAVnsIContent@@@Z ; 29600
?GetHTMLAttribute@nsGenericHTMLElement@@UBGIPAVnsIAtom@@AAVnsHTMLValue@@@Z ; 29196
?SetQuirkMode@CSSLoaderImpl@@UAGIH@Z ; 28093
?EatNewline@nsCSSScanner@@IAEHAAH@Z ; 27973
?SetContentListFor@nsBindingManager@@UAGIPAVnsIContent@@PAVnsISupportsArray@@@Z ; 27733
?SetAnonymousNodesFor@nsBindingManager@@UAGIPAVnsIContent@@PAVnsISupportsArray@@@Z ; 27651
?Item@nsChildContentList@@UAGIIPAPAVnsIDOMNode@@@Z ; 27412
?IndexOf@nsGenericContainerElement@@UBGIPAVnsIContent@@AAH@Z ; 26923
?IndexOf@nsCheapVoidArray@@QBEHPAX@Z ; 26923
?SetInsertionParent@nsBindingManager@@UAGIPAVnsIContent@@0@Z ; 26745
?ChangeDocumentFor@nsBindingManager@@UAGIPAVnsIContent@@PAVnsIDocument@@1@Z ; 26028
?SetBorderColor@nsStyleBorder@@QAEXEI@Z ; 25953
?Reset@HTMLAttribute@@QAEXXZ ; 25409
?GetStringValue@nsCSSValue@@QBEAAV?$basic_nsAWritableString@G@@AAV2@@Z ; 25327
?HandleDOMEvent@nsDocument@@UAGIPAVnsIPresContext@@PAUnsEvent@@PAPAVnsIDOMEvent@@IPAW4nsEventStatus@@@Z ; 25062
?DidAddContent@SinkContext@@QAEXPAVnsIContent@@H@Z ; 24585
?IsTimeToNotify@HTMLContentSink@@QAEHXZ ; 24573
?HasClass@nsGenericHTMLElement@@UBGIPAVnsIAtom@@@Z ; 24508
?Release@nsContentDLF@@UAGKXZ ; 23654
?FlushText@SinkContext@@QAEIPAHH@Z ; 23384
??0AttributeKey@@QAE@PAVnsIHTMLMappedAttributes@@@Z ; 23271
?HashCode@AttributeKey@@UBEIXZ ; 23271
??1AttributeKey@@UAE@XZ ; 23270
?GetClasses@nsGenericHTMLElement@@UBGIAAVnsVoidArray@@@Z ; 22565
?FlushPendingEvents@nsEventStateManager@@IAEXPAVnsIPresContext@@@Z ; 21981
?Release@HTMLStyleSheetImpl@@UAGKXZ ; 21849
?readable_distance@?$nsCharSourceTraits@V?$nsReadingIterator@G@@@@SAIABV?$nsReadingIterator@G@@0@Z ; 21525
?write@?$CopyNormalizeNewlines@U?$NormalizeNewlinesCharTraits@PAG@@@@QAEIPBGI@Z ; 21462
?CopyNewlineNormalizedUnicodeTo@nsContentUtils@@SAIABV?$basic_nsAReadableString@G@@IPAGI@Z ; 21444
?copy_string@@YAAAV?$CopyNormalizeNewlines@U?$NormalizeNewlinesCharTraits@PAG@@@@AAV?$nsReadingIterator@G@@ABV2@AAV1@@Z ; 21444
?GetAttributeStyleSheet@nsHTMLDocument@@UAGIPAPAVnsIHTMLStyleSheet@@@Z ; 21273
?RegisterNamedItems@nsHTMLDocument@@IAEXPAVnsIContent@@H@Z ; 20874
?GetNodeType@nsHTMLOptionElement@@UAGIPAG@Z ; 20834
?GetType@CSSStyleRuleImpl@@UAGIPAG@Z ; 20834
?GetShellAt@nsDocument@@UAEPAVnsIPresShell@@H@Z ; 20583
?SetAttributeName@HTMLAttributesImpl@@MAEIPAVnsIAtom@@AAH@Z ; 20196
?Release@nsDocumentEncoder@@UAGKXZ ; 20103
?SetAttribute@nsGenericHTMLElement@@UAGIHPAVnsIAtom@@ABV?$basic_nsAReadableString@G@@H@Z ; 19992
?EatWhiteSpace@nsCSSScanner@@IAEHAAH@Z ; 19922
?IsMonolithicContainer@HTMLContentSink@@QAEHW4nsHTMLTag@@@Z ; 19886
?AddLeaf@HTMLContentSink@@UAGIABVnsIParserNode@@@Z ; 19858
?KeyEventMatched@nsXBLPrototypeHandler@@UAGIPAVnsIAtom@@PAVnsIDOMKeyEvent@@PAH@Z ; 19836
?First@?$basic_nsAReadableString@G@@QBEGXZ ; 19574
?AddLeaf@SinkContext@@QAEIABVnsIParserNode@@@Z ; 19519
?AttributeChanged@nsXBLBinding@@UAGIPAVnsIAtom@@HH@Z ; 19293
?Last@?$basic_nsAReadableString@G@@QBEGXZ ; 19224
?normalize_backward@?$nsReadingIterator@D@@QAEXXZ ; 19224
?GetBoundElement@nsXBLBinding@@UAGIPAPAVnsIContent@@@Z ; 19049
?GetNodeInfo@nsGenericElement@@UBGIAAPAVnsINodeInfo@@@Z ; 18949
?QueryInterface@nsHTMLInputElement@@UAGIABUnsID@@PAPAX@Z ; 18933
?QueryInterface@nsGenericHTMLLeafFormElement@@UAGIABUnsID@@PAPAX@Z ; 18933
?GetAttributeValueAt@HTMLContentSink@@QAEXABVnsIParserNode@@HAAVnsString@@@Z ; 18908
?GetDTDMode@nsHTMLDocument@@UAGIAAW4nsDTDMode@@@Z ; 18791
?ReduceEntities@HTMLContentSink@@QAEXAAVnsString@@@Z ; 18780
?LocateInstance@nsXBLPrototypeBinding@@QAEXPAVnsIContent@@00PAPAV2@@Z ; 18549
?GetLinkState@nsHTMLAnchorElement@@UAGIAAW4nsLinkState@@@Z ; 18482
?QueryInterface@HTMLAttributesImpl@@UAGIABUnsID@@PAPAX@Z ; 18360
??_GnsVoidArray@@UAEPAXI@Z ; 18263
?AttributeChanged@nsXBLPrototypeBinding@@UAGIPAVnsIAtom@@HHPAVnsIContent@@1@Z ; 18177
?Reset@nsClassList@@QAEXXZ ; 18047
?GatherIdent@nsCSSScanner@@IAEHAAHHAAVnsString@@@Z ; 17846
?Release@HTMLAttributesImpl@@UAGKXZ ; 17520
?GetNumberOfShells@nsDocument@@UAEHXZ ; 17505
?GetContentStyleRules@nsGenericHTMLElement@@UAGIPAVnsISupportsArray@@@Z ; 17498
?GetNodeInfo@nsNodeInfoManager@@UAGIABV?$basic_nsAReadableString@G@@PAVnsIAtom@@HAAPAVnsINodeInfo@@@Z ; 17442
?SetBoxObjectFor@nsDocument@@UAGIPAVnsIDOMElement@@PAVnsIBoxObject@@@Z ; 17372
?Peek@nsCSSScanner@@IAEHAAH@Z ; 17177
?AddText@SinkContext@@QAEIABV?$basic_nsAReadableString@G@@@Z ; 17146
?ResolveTag@nsBindingManager@@UAGIPAVnsIContent@@PAHPAPAVnsIAtom@@@Z ; 17115
?IsDispatchStopped@nsDOMEvent@@UAGIPAH@Z ; 17017
?EventMatched@nsXBLWindowKeyHandler@@MAEHPAVnsIXBLPrototypeHandler@@PAVnsIAtom@@PAVnsIDOMEvent@@@Z ; 16992
?GetNext@nsXBLAttributeEntry@@UAGIPAPAVnsIXBLAttributeEntry@@@Z ; 16884
?Release@nsContentPolicy@@UAGKXZ ; 16725
?HashValue@nsHTMLMappedAttributes@@UBGIAAI@Z ; 16464
?SetDocumentInChildrenOf@nsGenericElement@@SAXPAVnsIContent@@PAVnsIDocument@@H@Z ; 16417
?ResolvePseudoStyleFor@StyleSetImpl@@UAEPAVnsIStyleContext@@PAVnsIPresContext@@PAVnsIContent@@PAVnsIAtom@@PAV2@HPAVnsICSSPseudoComparator@@@Z ; 16349
??4nsHTMLValue@@QAEAAV0@ABV0@@Z ; 16173
??0AtomKey@@QAE@ABV0@@Z ; 16111
?Clone@AtomKey@@UBEPAVnsHashKey@@XZ ; 16111
??_GAtomKey@@UAEPAXI@Z ; 16075
?GetClasses@HTMLAttributesImpl@@UBGIAAVnsVoidArray@@@Z ; 16052
?BeginUpdate@nsDOMStyleSheetList@@UAGIPAVnsIDocument@@@Z ; 15876
??4nsCSSValue@@QAEAAV0@ABV0@@Z ; 15607
?CreateInstance@nsContentFactory@@UAGIPAVnsISupports@@ABUnsID@@PAPAX@Z ; 15476
?Init@nsGenericElement@@QAEIPAVnsINodeInfo@@@Z ; 15424
??0nsGenericElement@@QAE@XZ ; 15424
?GetIntValue@nsHTMLValue@@QBEHXZ ; 15389
??0nsGenericDOMDataNode@@QAE@XZ ; 15317
?GetElement@nsXBLAttributeEntry@@UAGIPAPAVnsIContent@@@Z ; 15209
?SetTo@nsTextFragment@@QAEXPBGH@Z ; 15171
?SetText@nsGenericDOMDataNode@@QAEIPAVnsIContent@@PBGHH@Z ; 15171
?QueryInterface@nsHTMLParagraphElement@@UAGIABUnsID@@PAPAX@Z ; 15164
?GetInlineStyleRules@nsGenericHTMLElement@@UAGIPAVnsISupportsArray@@@Z ; 15066
?GetImmediateChild@nsXBLPrototypeBinding@@QAEXPAVnsIAtom@@PAPAVnsIContent@@@Z ; 15056
?AttributeAffectsStyle@HTMLCSSStyleSheetImpl@@UAGIPAVnsIAtom@@PAVnsIContent@@AAH@Z ; 15041
?HasClass@HTMLAttributesImpl@@UBGIPAVnsIAtom@@@Z ; 15013
?GetDstAttribute@nsXBLAttributeEntry@@UAGIPAPAVnsIAtom@@@Z ; 14980
?GetAttribute@nsGenericContainerElement@@UBGIHPAVnsIAtom@@AAV?$basic_nsAWritableString@G@@@Z ; 14933
?GetAttribute@nsGenericContainerElement@@UBGIHPAVnsIAtom@@AAPAV2@AAV?$basic_nsAWritableString@G@@@Z ; 14933
?ParsePageRule@CSSParserImpl@@IAEHAAH@Z ; 14908
?GetCommonMappedAttributesImpact@nsGenericHTMLElement@@SAHPBVnsIAtom@@AAH@Z ; 14845
?NS_NewTextNode@@YAIPAPAVnsIContent@@@Z ; 14655
??0nsTextNode@@QAE@XZ ; 14655
?GetAnonymousNodesFor@nsBindingManager@@UAGIPAVnsIContent@@PAPAVnsIDOMNodeList@@@Z ; 14643
?SetText@nsXMLCDATASection@@UAGIPBGHH@Z ; 14625
??1nsGenericDOMDataNode@@UAE@XZ ; 14528
?ParseIdent@nsCSSScanner@@IAEHAAHHAAUnsCSSToken@@@Z ; 14515
?GetXBLChildNodesFor@nsBindingManager@@UAGIPAVnsIContent@@PAPAVnsIDOMNodeList@@@Z ; 14495
??1nsGenericElement@@UAE@XZ ; 14430
?PreHandleEvent@nsEventStateManager@@UAGIPAVnsIPresContext@@PAUnsEvent@@PAVnsIFrame@@PAW4nsEventStatus@@PAVnsIView@@@Z ; 14290
?PostHandleEvent@nsEventStateManager@@UAGIPAVnsIPresContext@@PAUnsEvent@@PAVnsIFrame@@PAW4nsEventStatus@@PAVnsIView@@@Z ; 14289
?AttributeToString@nsHTMLInputElement@@UBGIPAVnsIAtom@@ABVnsHTMLValue@@AAV?$basic_nsAWritableString@G@@@Z ; 13901
??1nsTextNode@@UAE@XZ ; 13874
??_EnsTextNode@@UAEPAXI@Z ; 13874
?QueryInterface@nsXBLAttributeEntry@@UAGIABUnsID@@PAPAX@Z ; 13838
?GetAndIncrementContentID@nsDocument@@UAGIPAH@Z ; 13782
?SetFocus@nsCommentNode@@UAGIPAVnsIPresContext@@@Z ; 13654
?SetContentID@nsGenericElement@@UAGII@Z ; 13500
??0nsGenericHTMLElement@@QAE@XZ ; 13488
?GetMappedAttributeStyleRules@HTMLAttributesImpl@@UBGIPAVnsISupportsArray@@@Z ; 13488
?GetContentListFor@nsBindingManager@@UAGIPAVnsIContent@@PAPAVnsIDOMNodeList@@@Z ; 13487
?Reset@nsCSSSelector@@QAEXXZ ; 13396
??1nsCSSSelector@@QAE@XZ ; 13344
?EnumValueToString@nsGenericHTMLElement@@SAHABVnsHTMLValue@@PAUEnumTable@1@AAV?$basic_nsAWritableString@G@@H@Z ; 13313
?GetLength@nsChildContentList@@UAGIPAI@Z ; 13239
?GetListenersByIID@nsEventListenerManager@@QAEPAPAVnsVoidArray@@ABUnsID@@@Z ; 13125
?GetLocalName@nsNodeInfo@@UAGIAAV?$basic_nsAWritableString@G@@@Z ; 12944
?QueryInterface@nsGenericDOMNodeList@@UAGIABUnsID@@PAPAX@Z ; 12902
??2HTMLAttributesImpl@@SAPAXI@Z ; 12733
?SetUniqued@nsHTMLMappedAttributes@@UAGIH@Z ; 12708
?AddAttributes@HTMLContentSink@@QAEIABVnsIParserNode@@PAVnsIHTMLContent@@H@Z ; 12699
?Release@nsXBLStreamListener@@UAGKXZ ; 12662
??0nsCheapVoidArray@@QAE@XZ ; 12650
??1nsGenericHTMLElement@@UAE@XZ ; 12646
?AddRef@nsHTMLOptionCollection@@UAGKXZ ; 12592
?Release@nsHTMLOptionCollection@@UAGKXZ ; 12571
?QueryInterface@nsHTMLFormElement@@UAGIABUnsID@@PAPAX@Z ; 12535
?AppendToString@nsCSSToken@@QAEXAAVnsString@@@Z ; 12454
?CreateContentObject@HTMLContentSink@@QAEIABVnsIParserNode@@W4nsHTMLTag@@PAVnsIDOMHTMLFormElement@@PAVnsIWebShell@@PAPAVnsIHTMLContent@@@Z ; 12445
?ExpectSymbol@CSSParserImpl@@IAEHAAHGH@Z ; 12420
?QueryInterface@nsXMLElement@@UAGIABUnsID@@PAPAX@Z ; 12288
?Release@nsRange@@UAGKXZ ; 12008
?SetAttributeFor@HTMLAttributesImpl@@UAGIPAVnsIAtom@@ABVnsHTMLValue@@HPAVnsIHTMLContent@@PAVnsIHTMLStyleSheet@@AAH@Z ; 11976
?SetSingleChild@nsCheapVoidArray@@AAEXPAX@Z ; 11952
?CharAt@?$basic_nsAReadableString@G@@QBEGI@Z ; 11890
??1nsDOMEvent@@UAE@XZ ; 11870
??0nsDOMEvent@@QAE@PAVnsIPresContext@@PAUnsEvent@@ABV?$basic_nsAReadableString@G@@@Z ; 11869
??2nsDOMEvent@@SAPAXI@Z ; 11869
??_EnsDOMEvent@@UAEPAXI@Z ; 11869
??3nsDOMEvent@@SAXPAX@Z ; 11869
?NS_NewDOMUIEvent@@YAIPAPAVnsIDOMEvent@@PAVnsIPresContext@@ABV?$basic_nsAReadableString@G@@PAUnsEvent@@@Z ; 11869
??1nsCheapVoidArray@@QAE@XZ ; 11697
??0nsGenericDOMNodeList@@QAE@XZ ; 11522
?GetChildNodes@nsGenericHTMLContainerElement@@QAGIPAPAVnsIDOMNodeList@@@Z ; 11462
?SetHTMLAttribute@nsGenericHTMLElement@@UAGIPAVnsIAtom@@ABVnsHTMLValue@@H@Z ; 11453
??0nsChildContentList@@QAE@PAVnsIContent@@@Z ; 11430
??3nsCSSRule@@SAXPAX@Z ; 11354
?GenerateMouseEnterExit@nsEventStateManager@@IAEXPAVnsIPresContext@@PAUnsGUIEvent@@@Z ; 11186
?DeleteHTMLAttributes@HTMLAttribute@@SAXPAU1@@Z ; 11167
?SetTarget@nsDOMEvent@@UAGIPAVnsIDOMEventTarget@@@Z ; 11156
?SetAttributeFor@HTMLStyleSheetImpl@@UAGIPAVnsIAtom@@ABVnsHTMLValue@@HPAVnsIHTMLContent@@AAPAVnsIHTMLAttributes@@@Z ; 11027
?GetReadableFragment@?$nsPromiseSubstring@G@@MBEPBGAAU?$nsReadableFragment@G@@W4nsFragmentRequest@@I@Z ; 11013
?SetCursor@nsEventStateManager@@UAGIHPAVnsIWidget@@H@Z ; 11011
?GenerateDragGesture@nsEventStateManager@@IAEXPAVnsIPresContext@@PAUnsGUIEvent@@@Z ; 10995
?UpdateCursor@nsEventStateManager@@IAEXPAVnsIPresContext@@PAUnsEvent@@PAVnsIFrame@@PAW4nsEventStatus@@@Z ; 10995
?CheckDisabled@nsEventStateManager@@IAEHPAVnsIContent@@@Z ; 10961
?UniqueMapped@HTMLAttributesImpl@@MAEIPAVnsIHTMLStyleSheet@@@Z ; 10818
?EnsureSingleMappedFor@HTMLAttributesImpl@@MAEIPAVnsIHTMLContent@@PAVnsIHTMLStyleSheet@@H@Z ; 10787
??1nsGenericDOMNodeList@@UAE@XZ ; 10721
??0nsGenericHTMLContainerElement@@QAE@XZ ; 10714
?DropReference@DOMCSSDeclarationImpl@@UAEXXZ ; 10630
??_GnsChildContentList@@UAEPAXI@Z ; 10629
??1nsChildContentList@@UAE@XZ ; 10629
?UniqueMappedAttributes@HTMLStyleSheetImpl@@UAGIPAVnsIHTMLMappedAttributes@@AAPAV2@@Z ; 10563
?GetLengthTwips@nsCSSValue@@QBEHXZ ; 10393
?AddRef@nsXBLMutationHandler@@UAGKXZ ; 9988
?OpenContainer@SinkContext@@QAEIABVnsIParserNode@@@Z ; 9945
?Compact@nsCheapVoidArray@@QAEXXZ ; 9941
?Compact@nsGenericHTMLContainerElement@@UAGIXZ ; 9941
?CloseContainer@SinkContext@@QAEIABVnsIParserNode@@@Z ; 9941
?SetAttribute@nsHTMLMappedAttributes@@UAGIPAVnsIAtom@@ABVnsHTMLValue@@@Z ; 9923
??1nsGenericHTMLContainerElement@@UAE@XZ ; 9913
?Equals@AttributeKey@@UBEHPBVnsHashKey@@@Z ; 9829
?Equals@nsHTMLMappedAttributes@@UBGIPBVnsIHTMLMappedAttributes@@AAH@Z ; 9829
?CloseContainer@HTMLContentSink@@UAGIABVnsIParserNode@@@Z ; 9800
?OpenContainer@HTMLContentSink@@UAGIABVnsIParserNode@@@Z ; 9800
?Release@nsSelection@@UAGKXZ ; 9687
??1nsAtomList@@QAE@XZ ; 9615
??0HTMLAttributesImpl@@QAE@XZ ; 9490
?NS_NewHTMLAttributes@@YAIPAPAVnsIHTMLAttributes@@@Z ; 9490
?GetBindingImplementation@nsBindingManager@@UAGIPAVnsIContent@@PAXABUnsID@@PAPAX@Z ; 9489
??8nsCSSValue@@QBEHABV0@@Z ; 9481
?GetValue@CSSDeclarationImpl@@UAGIW4nsCSSProperty@@AAVnsCSSValue@@@Z ; 9481
?AppendValue@CSSParserImpl@@IAEIPAVnsICSSDeclaration@@W4nsCSSProperty@@ABVnsCSSValue@@AAH@Z ; 9481
?Release@nsXBLEventHandler@@UAGKXZ ; 9448
?Release@nsXBLMutationHandler@@UAGKXZ ; 9448
?ParseCommonAttribute@nsGenericHTMLElement@@SAHPAVnsIAtom@@ABV?$basic_nsAReadableString@G@@AAVnsHTMLValue@@@Z ; 9323
?AddUse@nsHTMLMappedAttributes@@UAGIXZ ; 9229
?ReleaseUse@nsHTMLMappedAttributes@@UAGIXZ ; 9179
?AppendValue@CSSDeclarationImpl@@UAGIW4nsCSSProperty@@ABVnsCSSValue@@@Z ; 9004
?Release@nsCommentNode@@UAGKXZ ; 8956
?GetEventTargetContent@nsEventStateManager@@UAGIPAUnsEvent@@PAPAVnsIContent@@@Z ; 8827
?AttributeAffectsStyle@StyleSetImpl@@UAGIPAVnsIAtom@@PAVnsIContent@@AAH@Z ; 8789
??_GHTMLAttributesImpl@@UAEPAXI@Z ; 8655
?Reset@HTMLAttributesImpl@@UAGIXZ ; 8655
??1HTMLAttributesImpl@@UAE@XZ ; 8655
?GetParent@nsTextNode@@UBGIAAPAVnsIContent@@@Z ; 8585
?GetParent@nsGenericDOMDataNode@@QBEIAAPAVnsIContent@@@Z ; 8585
?GetMouseDownState@nsSelection@@UAGIPAH@Z ; 8584
??0nsHTMLValue@@QAE@ABV0@@Z ; 8458
?Release@HTMLCSSStyleSheetImpl@@UAGKXZ ; 8390
?GetTarget@nsDOMEvent@@UAGIPAPAVnsIDOMEventTarget@@@Z ; 8377
?SetScriptObject@nsGenericDOMNodeList@@UAGIPAX@Z ; 8328
?SetAttributeFor@HTMLAttributesImpl@@UAGIPAVnsIAtom@@ABV?$basic_nsAReadableString@G@@HPAVnsIHTMLContent@@PAVnsIHTMLStyleSheet@@@Z ; 8220
?SetAttributeFor@HTMLStyleSheetImpl@@UAGIPAVnsIAtom@@ABV?$basic_nsAReadableString@G@@HPAVnsIHTMLContent@@AAPAVnsIHTMLAttributes@@@Z ; 8220
?ImplementsInterface@nsXBLPrototypeBinding@@UAGIABUnsID@@PAH@Z ; 8214
?ImplementsInterface@nsXBLBinding@@UAGIABUnsID@@PAH@Z ; 8214
?GetParentNode@nsDocumentFragment@@UAGIPAPAVnsIDOMNode@@@Z ; 8186
?GetParentNode@nsGenericElement@@UAGIPAPAVnsIDOMNode@@@Z ; 8186
?GetChildNodes@nsHTMLAnchorElement@@UAGIPAPAVnsIDOMNodeList@@@Z ; 8155
?QueryInterface@nsHTMLLIElement@@UAGIABUnsID@@PAPAX@Z ; 7652
?QueryInterface@nsRange@@UAGIABUnsID@@PAPAX@Z ; 7629
?AddBaseTagInfo@HTMLContentSink@@QAEXPAVnsIHTMLContent@@@Z ; 7618
??0HTMLAttribute@@QAE@PAVnsIAtom@@ABV?$basic_nsAReadableString@G@@@Z ; 7607
??8nsHTMLValue@@QBEHABV0@@Z ; 7500
?ParseSingleValueProperty@CSSParserImpl@@IAEHAAHAAVnsCSSValue@@W4nsCSSProperty@@@Z ; 7349
?Release@nsTypedSelection@@UAGKXZ ; 7199
?ParseVariant@CSSParserImpl@@IAEHAAHAAVnsCSSValue@@HQBH@Z ; 7103
??0nsCSSSelector@@QAE@ABU0@@Z ; 7061
??0nsCSSSelector@@QAE@XZ ; 7037
?SetListenerTarget@nsEventListenerManager@@UAEIPAVnsISupports@@@Z ; 6969
?ParseDeclaration@CSSParserImpl@@IAEHAAHPAVnsICSSDeclaration@@H0@Z ; 6811
?Clone@AttributeKey@@UBEPAVnsHashKey@@XZ ; 6807
??_GAttributeKey@@UAEPAXI@Z ; 6806
?ParseSelector@CSSParserImpl@@IAEHAAHAAUnsCSSSelector@@AAVnsString@@@Z ; 6774
?Set@HTMLAttribute@@QAEXPAVnsIAtom@@ABVnsHTMLValue@@@Z ; 6738
?Clone@nsVoidKey@@UBEPAVnsHashKey@@XZ ; 6653
?AllocateList@StyleContextCache@@CAPAVnsVoidArray@@XZ ; 6622
?GetIdentifiersForType@nsEventListenerManager@@SAIPAVnsIAtom@@AAUnsID@@PAH@Z ; 6615
??_EnsVoidKey@@UAEPAXI@Z ; 6493
?DoSetRange@nsRange@@QAEIPAVnsIDOMNode@@H0H@Z ; 6486
?GetStringValue@nsHTMLValue@@QBEAAV?$basic_nsAWritableString@G@@AAV2@@Z ; 6477
?DestroyList@StyleContextCache@@CAIPAVnsVoidArray@@@Z ; 6462
?HashTableEnumDestroy@@YAHPAVnsHashKey@@PAX1@Z ; 6462
?AttributeToString@nsGenericHTMLElement@@UBGIPAVnsIAtom@@ABVnsHTMLValue@@AAV?$basic_nsAWritableString@G@@@Z ; 6428
?FindNamedItem@nsHTMLDocument@@IAEPAVnsIContent@@PAV2@ABVnsString@@H@Z ; 6403
?GetOptions@nsHTMLSelectElement@@UAGIPAPAVnsIDOMNSHTMLOptionCollection@@@Z ; 6395
?GetClientY@nsDOMEvent@@UAGIPAH@Z ; 6286
?GetClientX@nsDOMEvent@@UAGIPAH@Z ; 6282
?GetRootContent@nsDocument@@UAEPAVnsIContent@@XZ ; 6278
??0nsAtomList@@QAE@ABU0@@Z ; 6265
?AddEventListener@nsEventListenerManager@@IAEIPAVnsIDOMEventListener@@ABUnsID@@HH@Z ; 6214
?DeleteProperty@nsHTMLOptionCollection@@UAEHPAUJSContext@@PAUJSObject@@JPAJ@Z ; 6199
?GetKeyCode@nsDOMEvent@@UAGIPAI@Z ; 6177
?QueryInterface@nsHTMLOptionCollection@@UAGIABUnsID@@PAPAX@Z ; 6164
?CurrentNode@nsContentIterator@@UAGIPAPAVnsIContent@@@Z ; 6144
?QueryInterface@nsGenericDOMHTMLCollection@@UAGIABUnsID@@PAPAX@Z ; 6101
?HasStateDependentStyle@CSSRuleProcessor@@UAGIPAVnsIPresContext@@PAVnsIAtom@@PAVnsIContent@@@Z ; 6059
?FindJSEventListener@nsEventListenerManager@@IAEPAUnsListenerStruct@@ABUnsID@@@Z ; 5945
?GetEventListeners@nsEventListenerManager@@UAEIPAPAVnsVoidArray@@ABUnsID@@@Z ; 5945
?GetNodeInfo@nsNodeInfoManager@@UAGIABV?$basic_nsAReadableString@G@@0HAAPAVnsINodeInfo@@@Z ; 5918
?GetUniqued@nsHTMLMappedAttributes@@UAGIAAH@Z ; 5901
?DropMappedAttributes@HTMLStyleSheetImpl@@UAGIPAVnsIHTMLMappedAttributes@@@Z ; 5901
?GetCharCode@nsDOMEvent@@UAGIPAI@Z ; 5836
?GetReadableFragment@?$nsPromiseSubstring@D@@MBEPBDAAU?$nsReadableFragment@D@@W4nsFragmentRequest@@I@Z ; 5724
?GetBaseTag@nsXBLBinding@@UAGIPAHPAPAVnsIAtom@@@Z ; 5580
?GetBaseTag@nsXBLPrototypeBinding@@UAGIPAHPAPAVnsIAtom@@@Z ; 5580
?Promises@?$nsPromiseSubstring@D@@UBEHABV?$basic_nsAReadableString@D@@@Z ; 5579
?Length@?$nsPromiseSubstring@D@@UBEIXZ ; 5579
?SetStyleSheet@CSSStyleRuleImpl@@UAGIPAVnsICSSStyleSheet@@@Z ; 5551
??_GnsHTMLMappedAttributes@@UAEPAXI@Z ; 5444
?Reset@nsHTMLMappedAttributes@@UAGIXZ ; 5444
??1nsHTMLMappedAttributes@@UAE@XZ ; 5444
?Release@nsContentIterator@@UAGKXZ ; 5409
?QueryInterface@nsContentIterator@@UAGIABUnsID@@PAPAX@Z ; 5409
?SetPixelValue@nsHTMLValue@@QAEXH@Z ; 5300
?GetScriptAccess@nsXBLDocumentInfo@@UAGIPAH@Z ; 5283
?LookupKeyword@nsCSSKeywords@@SA?AW4nsCSSKeyword@@ABVnsString@@@Z ; 5234
?GetImmediateChild@nsXBLBinding@@IAEXPAVnsIAtom@@PAPAVnsIContent@@@Z ; 5201
?GetStartContainer@nsRange@@UAGIPAPAVnsIDOMNode@@@Z ; 5200
?RegUnRegAccessKey@nsHTMLAnchorElement@@IAEIH@Z ; 5189
?SetDocument@nsHTMLAnchorElement@@UAGIPAVnsIDocument@@HH@Z ; 5189
?Release@CSSDeclarationImpl@@UAGKXZ ; 5156
?GetImageMappedAttributesImpact@nsGenericHTMLElement@@SAHPBVnsIAtom@@AAH@Z ; 5086
??0HTMLAttribute@@QAE@PAVnsIAtom@@ABVnsHTMLValue@@@Z ; 5071
?GetContentFromDOMNode@nsRange@@SAIPAVnsIDOMNode@@PAV?$nsCOMPtr@VnsIContent@@@@@Z ; 5024
?BeginUpdate@nsDocument@@UAGIXZ ; 4983
?EndUpdate@nsDocument@@UAGIXZ ; 4983
?FindNameSpaceID@NameSpaceImpl@@UBGIPAVnsIAtom@@AAH@Z ; 4969
?AddToListOf@nsRange@@QAEIPAVnsIDOMNode@@@Z ; 4950
?LookupProperty@nsCSSProps@@SA?AW4nsCSSProperty@@ABV?$basic_nsAReadableString@G@@@Z ; 4906
?LookupProperty@nsCSSProps@@SA?AW4nsCSSProperty@@ABVnsCString@@@Z ; 4906
?Init@nsHTMLMappedAttributes@@UAGIPAVnsIHTMLStyleSheet@@P6AXPBVnsIHTMLMappedAttributes@@PAVnsIMutableStyleContext@@PAVnsIPresContext@@@Z4@Z ; 4854
??0nsHTMLMappedAttributes@@QAE@XZ ; 4854
??0HTMLAttribute@@QAE@XZ ; 4854
?GetEndContainer@nsRange@@UAGIPAPAVnsIDOMNode@@@Z ; 4789
?GetMappedAttributeImpact@nsHTMLImageElement@@UBGIPBVnsIAtom@@AAH@Z ; 4737
?StringToAttribute@nsHTMLImageElement@@UAGIPAVnsIAtom@@ABV?$basic_nsAReadableString@G@@AAVnsHTMLValue@@@Z ; 4691
?ParseImageAttribute@nsGenericHTMLElement@@SAHPAVnsIAtom@@ABV?$basic_nsAReadableString@G@@AAVnsHTMLValue@@@Z ; 4667
?QueryInterface@nsXBLKeyHandler@@UAGIABUnsID@@PAPAX@Z ; 4665
?IsDone@nsContentIterator@@UAGIXZ ; 4614
?ParseProperty@CSSParserImpl@@IAEHAAHPAVnsICSSDeclaration@@W4nsCSSProperty@@0@Z ; 4590
?ExpectEndProperty@CSSParserImpl@@IAEHAAHH@Z ; 4588
?RemoveFromListOf@nsRange@@QAEIPAVnsIDOMNode@@@Z ; 4586
?SwitchToVector@nsCheapVoidArray@@AAEPAVnsVoidArray@@XZ ; 4490
?GetBaseURL@nsHTMLDocument@@UBGIAAPAVnsIURI@@@Z ; 4472
?Release@nsXBLPrototypeBinding@@UAGKXZ ; 4420
?CutNameSpacePrefix@nsXMLContentSink@@IAEPAVnsIAtom@@AAVnsString@@@Z ; 4419
?GetDocumentURL@nsDocument@@UBEPAVnsIURI@@XZ ; 4417
?AddLeaf@nsXMLContentSink@@UAGIABVnsIParserNode@@@Z ; 4385
?GetEndOffset@nsRange@@UAGIPAH@Z ; 4292
?AddText@nsXMLContentSink@@IAEIABV?$basic_nsAReadableString@G@@@Z ; 4277
?StringToAttribute@nsHTMLTableCellElement@@UAGIPAVnsIAtom@@ABV?$basic_nsAReadableString@G@@AAVnsHTMLValue@@@Z ; 4265
?GetMappedAttributeImpact@nsHTMLTableCellElement@@UBGIPBVnsIAtom@@AAH@Z ; 4265
?ShouldBuildChildFrames@nsBindingManager@@UAGIPAVnsIContent@@PAH@Z ; 4025
?QueryInterface@HTMLCSSStyleSheetImpl@@UAGIABUnsID@@PAPAX@Z ; 3976
??YnsMargin@@QAEAAU0@ABU0@@Z ; 3927
?SetBorderPadding@nsStyleBorderPadding@@QAEXUnsMargin@@@Z ; 3927
?GetBaseURL@nsGenericHTMLElement@@SAIABVnsHTMLValue@@PAVnsIDocument@@PAPAVnsIURI@@@Z ; 3899
?AddSelector@SelectorList@@QAEXABUnsCSSSelector@@@Z ; 3894
?GetStartOffset@nsRange@@UAGIPAH@Z ; 3891
?GetAttribute@nsTextNode@@UBGIHPAVnsIAtom@@AAV?$basic_nsAWritableString@G@@@Z ; 3889
?GetBaseURL@nsGenericHTMLElement@@UBGIAAPAVnsIURI@@@Z ; 3845
?CalcWeight@nsCSSSelector@@QBEHXZ ; 3841
?QueryInterface@nsCommentNode@@UAGIABUnsID@@PAPAX@Z ; 3828
?RangeAdd@nsGenericElement@@UAGIAAVnsIDOMRange@@@Z ; 3765
?GetTag@nsCommentNode@@UBGIAAPAVnsIAtom@@@Z ; 3736
?Next@nsContentIterator@@UAGIXZ ; 3710
?ChildAt@nsXMLCDATASection@@UBGIHAAPAVnsIContent@@@Z ; 3682
?AssignFromPromise@?$basic_nsAWritableString@G@@IAEXABV?$basic_nsAReadableString@G@@@Z ; 3671
?Mid@?$basic_nsAReadableString@G@@QBEIAAV?$basic_nsAWritableString@G@@II@Z ; 3671
??0?$nsPromiseSubstring@G@@QAE@ABV?$basic_nsAReadableString@G@@II@Z ; 3671
?GetMappedAttributeImpact@nsGenericHTMLElement@@UBGIPBVnsIAtom@@AAH@Z ; 3665
?MapFontStyleInto@CSSCharsetRuleImpl@@UAGIPAVnsIMutableStyleContext@@PAVnsIPresContext@@@Z ; 3663
??0nsContentIterator@@QAE@XZ ; 3643
??1nsContentIterator@@UAE@XZ ; 3643
?UnsetAttribute@nsXMLProcessingInstruction@@UAGIHPAVnsIAtom@@H@Z ; 3614
??0nsEventListenerManager@@QAE@XZ ; 3609
?NS_NewEventListenerManager@@YAIPAPAVnsIEventListenerManager@@@Z ; 3609
?Init@nsNodeInfo@@QAEIPAVnsIAtom@@0HPAVnsNodeInfoManager@@@Z ; 3582
??0nsNodeInfo@@QAE@XZ ; 3582
?QueryInterface@nsHTMLMapElement@@UAGIABUnsID@@PAPAX@Z ; 3576
??_GnsEventListenerManager@@UAEPAXI@Z ; 3558
??1nsEventListenerManager@@UAE@XZ ; 3558
?HasStateDependentStyle@StyleSetImpl@@UAGIPAVnsIPresContext@@PAVnsIContent@@@Z ; 3554
?MapFontStyleInto@nsHTMLMappedAttributes@@UAGIPAVnsIMutableStyleContext@@PAVnsIPresContext@@@Z ; 3553
?MapStyleInto@nsHTMLMappedAttributes@@UAGIPAVnsIMutableStyleContext@@PAVnsIPresContext@@@Z ; 3553
?QueryInterface@nsTypedSelection@@UAGIABUnsID@@PAPAX@Z ; 3545
?Resolve@nsDocument@@UAEHPAUJSContext@@PAUJSObject@@JPAH@Z ; 3491
?RangeRemove@nsGenericElement@@UAGIAAVnsIDOMRange@@@Z ; 3484
?SetJSEventListener@nsEventListenerManager@@IAEIPAVnsIScriptContext@@PAVnsIScriptObjectOwner@@PAVnsIAtom@@ABUnsID@@H@Z ; 3483
?RemoveNodeInfo@nsNodeInfoManager@@QAEXPAVnsNodeInfo@@@Z ; 3461
??1nsNodeInfo@@UAE@XZ ; 3461
??_EnsNodeInfo@@UAEPAXI@Z ; 3461
?SetIntValue@nsHTMLValue@@QAEXHW4nsHTMLUnit@@@Z ; 3420
?QueryInterface@nsXBLMouseHandler@@UAGIABUnsID@@PAPAX@Z ; 3416
??0HTMLAttribute@@QAE@ABU0@@Z ; 3387
?GetParentNode@nsCommentNode@@UAGIPAPAVnsIDOMNode@@@Z ; 3386
?GetParentNode@nsGenericDOMDataNode@@QAEIPAPAVnsIDOMNode@@@Z ; 3386
?HasStateDependentStyle@HTMLStyleSheetImpl@@UAGIPAVnsIPresContext@@PAVnsIAtom@@PAVnsIContent@@@Z ; 3382
?MouseEventMatched@nsXBLPrototypeHandler@@UAGIPAVnsIAtom@@PAVnsIDOMMouseEvent@@PAH@Z ; 3372
?GetSrcAttribute@nsXBLAttributeEntry@@UAGIPAPAVnsIAtom@@@Z ; 3353
?SetAttrs@@YAHPAVnsHashKey@@PAX1@Z ; 3353
?AllowScripts@nsXBLBinding@@QAEHXZ ; 3350
?AddScriptEventListener@nsEventListenerManager@@UAEIPAVnsIScriptContext@@PAVnsIScriptObjectOwner@@PAVnsIAtom@@ABV?$basic_nsAReadableString@G@@ABUnsID@@H@Z ; 3350
?GetAllowScripts@nsXBLPrototypeBinding@@UAGIPAH@Z ; 3350
?MapFontStyleInto@CSSImportantRule@@UAGIPAVnsIMutableStyleContext@@PAVnsIPresContext@@@Z ; 3320
?MapStyleInto@CSSImportantRule@@UAGIPAVnsIMutableStyleContext@@PAVnsIPresContext@@@Z ; 3320
?Release@DocumentViewerImpl@@UAGKXZ ; 3283
?AddEventListenerByIID@nsEventListenerManager@@UAEIPAVnsIDOMEventListener@@ABUnsID@@H@Z ; 3274
?AssignFromReadable@?$basic_nsAWritableString@G@@IAEXABV?$basic_nsAReadableString@G@@@Z ; 3262
??0nsCSSRule@@QAE@XZ ; 3238
?SetBinding@nsBindingManager@@UAGIPAVnsIContent@@PAVnsIXBLBinding@@@Z ; 3236
?GetCurrentContent@nsXMLContentSink@@IAEPAVnsIContent@@XZ ; 3231
?NS_NewCSSStyleRule@@YAIPAPAVnsICSSStyleRule@@ABUnsCSSSelector@@@Z ; 3167
??0CSSStyleRuleImpl@@QAE@ABUnsCSSSelector@@@Z ; 3167
?SetDeclaration@CSSStyleRuleImpl@@UAEXPAVnsICSSDeclaration@@@Z ; 3167
?GetPrincipal@nsDocument@@UAGIPAPAVnsIPrincipal@@@Z ; 3123
?GetMappedAttributeImpact@nsHTMLOptionElement@@UBGIPBVnsIAtom@@AAH@Z ; 3103
?QueryInterface@nsXMLDocument@@UAGIABUnsID@@PAPAX@Z ; 3072
??_EnsContentIterator@@UAEPAXI@Z ; 3053
?NS_NewContentIterator@@YAIPAPAVnsIContentIterator@@@Z ; 3053
?GetDeepFirstChild@nsContentIterator@@KA?AV?$nsCOMPtr@VnsIContent@@@@V2@@Z ; 3035
?WillDirty@CSSStyleSheetImpl@@IAEIXZ ; 3026
?EnsureUniqueInner@CSSStyleSheetImpl@@QAEIXZ ; 3026
?DidDirty@CSSStyleSheetImpl@@IAEXXZ ; 3026
?ClearRuleCascades@CSSStyleSheetImpl@@IAEXXZ ; 3026
?ParseValueOrPercent@nsGenericHTMLElement@@SAHABV?$basic_nsAReadableString@G@@AAVnsHTMLValue@@W4nsHTMLUnit@@@Z ; 2997
?GetNodeType@nsTextNode@@UAGIPAG@Z ; 2981
?AppendRule@CSSParserImpl@@IAEXPAVnsICSSRule@@@Z ; 2976
?AppendStyleRule@CSSStyleSheetImpl@@UAGIPAVnsICSSRule@@@Z ; 2976
?AttributeChanged@nsDocument@@UAGIPAVnsIContent@@HPAVnsIAtom@@H@Z ; 2976
?CheckRuleForAttributes@CSSStyleSheetImpl@@UAGIPAVnsICSSRule@@@Z ; 2956
?QueryInterface@nsHTMLUListElement@@UAGIABUnsID@@PAPAX@Z ; 2951
?ParseSelectorGroup@CSSParserImpl@@IAEHAAHAAPAUSelectorList@@@Z ; 2949
?AddEventListenerByType@nsEventListenerManager@@UAEIPAVnsIDOMEventListener@@ABV?$basic_nsAReadableString@G@@H@Z ; 2940
??1SelectorList@@QAE@XZ ; 2939
??0SelectorList@@QAE@XZ ; 2939
?GetData@nsGenericDOMDataNode@@QAEIAAV?$basic_nsAWritableString@G@@@Z ; 2911
?SetWeight@CSSStyleRuleImpl@@UAEXH@Z ; 2906
?SetLineNumber@CSSStyleRuleImpl@@UAEXI@Z ; 2905
?SetSourceSelectorText@CSSStyleRuleImpl@@UAEXABVnsString@@@Z ; 2905
?GetImageBorderAttributeImpact@nsGenericHTMLElement@@SAHPBVnsIAtom@@AAH@Z ; 2886
?SetDocument@nsHTMLImageElement@@UAGIPAVnsIDocument@@HH@Z ; 2867
??1nsCSSStruct@@UAE@XZ ; 2823
?GetType@nsHTMLInputElement@@UAGIPAH@Z ; 2819
??0nsGenericHTMLLeafElement@@QAE@XZ ; 2774
?MatchId@nsHTMLDocument@@IAEPAVnsIContent@@PAV2@ABV?$basic_nsAReadableString@G@@@Z ; 2773
?Release@nsXBLService@@UAGKXZ ; 2752
?QueryInterface@nsXBLService@@UAGIABUnsID@@PAPAX@Z ; 2750
??1nsGenericHTMLLeafElement@@UAE@XZ ; 2733
?GetRangeList@nsGenericElement@@UBGIAAPAVnsVoidArray@@@Z ; 2725
?MapCommonAttributesInto@nsGenericHTMLElement@@SAXPBVnsIHTMLMappedAttributes@@PAVnsIMutableStyleContext@@PAVnsIPresContext@@@Z ; 2716
?SetNameSpace@nsCSSSelector@@QAEXH@Z ; 2705
??1nsCSSRule@@UAE@XZ ; 2699
?ResolveTag@nsXBLService@@UAGIPAVnsIContent@@PAHPAPAVnsIAtom@@@Z ; 2657
??1CSSStyleRuleImpl@@MAE@XZ ; 2638
??_GCSSStyleRuleImpl@@MAEPAXI@Z ; 2638
?GetChildNodes@nsHTMLTableCellElement@@UAGIPAPAVnsIDOMNodeList@@@Z ; 2627
?MatchNameAttribute@nsHTMLDocument@@KAHPAVnsIContent@@PAVnsString@@@Z ; 2624
?GetContentStyleRules@nsHTMLTableCellElement@@UAGIPAVnsISupportsArray@@@Z ; 2563
?NS_NewHTMLTableCellElement@@YAIPAPAVnsIHTMLContent@@PAVnsINodeInfo@@@Z ; 2556
??1nsHTMLTableCellElement@@UAE@XZ ; 2556
??0nsHTMLTableCellElement@@QAE@XZ ; 2556
??_GnsHTMLTableCellElement@@UAEPAXI@Z ; 2556
?IsIncreasing@nsRange@@QAEHPAVnsIDOMNode@@H0H@Z ; 2538
?QueryInterface@nsHTMLScriptElement@@UAGIABUnsID@@PAPAX@Z ; 2537
?QueryInterface@nsHTMLAreaElement@@UAGIABUnsID@@PAPAX@Z ; 2533
?QueryInterface@nsContentList@@UAGIABUnsID@@PAPAX@Z ; 2517
?InSameDoc@nsRange@@SAHPAVnsIDOMNode@@0@Z ; 2512
??_GnsISupportsKey@@UAEPAXI@Z ; 2501
?Clone@nsISupportsKey@@UBEPAVnsHashKey@@XZ ; 2501
?GetRangeCount@nsTypedSelection@@UAGIPAH@Z ; 2497
?SearchKeywordTable@CSSParserImpl@@IAEHW4nsCSSKeyword@@QBH@Z ; 2484
?FlushText@nsXMLContentSink@@IAEIHPAH@Z ; 2470
?HasOriginalTarget@nsDOMEvent@@UAGIPAH@Z ; 2465
?StringToAttribute@nsHTMLAnchorElement@@UAGIPAVnsIAtom@@ABV?$basic_nsAReadableString@G@@AAVnsHTMLValue@@@Z ; 2463
?GetSelection@nsSelection@@UAGIFPAPAVnsISelection@@@Z ; 2441
?GetData@nsTextNode@@UAGIAAV?$basic_nsAWritableString@G@@@Z ; 2437
?QueryInterface@nsHTMLHeadingElement@@UAGIABUnsID@@PAPAX@Z ; 2420
?ParseNumber@nsCSSScanner@@IAEHAAHHAAUnsCSSToken@@@Z ; 2399
?advance@?$nsReadingIterator@D@@QAEAAV1@H@Z ; 2395
??0?$basic_nsPromiseFlatString@D@@QAE@ABV?$basic_nsAReadableString@D@@@Z ; 2395
?CreateEvent@nsEventListenerManager@@UAEIPAVnsIPresContext@@PAUnsEvent@@ABV?$basic_nsAReadableString@G@@PAPAVnsIDOMEvent@@@Z ; 2392
?SetEnd@nsRange@@UAGIPAVnsIDOMNode@@H@Z ; 2375
?AddLeaf@SinkContext@@QAEIPAVnsIHTMLContent@@@Z ; 2373
?SetStart@nsRange@@UAGIPAVnsIDOMNode@@H@Z ; 2368
??2CSSDeclarationImpl@@SAPAXI@Z ; 2363
??0CSSDeclarationImpl@@QAE@XZ ; 2362
?NS_MakeAbsoluteURIWithCharset@@YAIPAPADABVnsString@@PAVnsIDocument@@PAVnsIURI@@PAVnsIIOService@@PAVnsICharsetConverterManager@@@Z ; 2357
?HandleDOMEventForAnchors@nsGenericHTMLElement@@QAEIPAVnsIContent@@PAVnsIPresContext@@PAUnsEvent@@PAPAVnsIDOMEvent@@IPAW4nsEventStatus@@@Z ; 2356
?HandleDOMEvent@nsHTMLAreaElement@@UAGIPAVnsIPresContext@@PAUnsEvent@@PAPAVnsIDOMEvent@@IPAW4nsEventStatus@@@Z ; 2356
?GetNameSpaceId@nsXMLContentSink@@IAEHPAVnsIAtom@@@Z ; 2338
?GetPrototypeBinding@nsXBLDocumentInfo@@UAGIABV?$basic_nsAReadableString@D@@PAPAVnsIXBLPrototypeBinding@@@Z ; 2329
?SetContentState@nsEventStateManager@@UAGIPAVnsIContent@@H@Z ; 2329
?GetInlineStyleSheet@nsHTMLDocument@@UAGIPAPAVnsIHTMLCSSStyleSheet@@@Z ; 2325
?IsHTMLNameSpace@nsXMLContentSink@@IAEHH@Z ; 2314
?ContentStatesChanged@StyleSetImpl@@UAGIPAVnsIPresContext@@PAVnsIContent@@1@Z ; 2283
?AddRef@CSSStyleSheetImpl@@UAGKXZ ; 2269
?GetBackgroundAttributesImpact@nsGenericHTMLElement@@SAHPBVnsIAtom@@AAH@Z ; 2265
??0nsAtomList@@QAE@ABVnsString@@@Z ; 2263
?Release@CSSStyleSheetImpl@@UAGKXZ ; 2261
?GetDefaultSelected@nsHTMLOptionElement@@UAGIPAH@Z ; 2255
?TranslateDimension@CSSParserImpl@@IAEHAAHAAVnsCSSValue@@HMABVnsString@@@Z ; 2239
?CreateContinuingFrame@StyleSetImpl@@UAGIPAVnsIPresContext@@PAVnsIFrame@@1PAPAV3@@Z ; 2238
?GetHrefCString@nsHTMLAnchorElement@@UAGIAAPAD@Z ; 2233
?GetPrimaryFrame@nsGenericHTMLElement@@SAIPAVnsIHTMLContent@@AAPAVnsIFormControlFrame@@H@Z ; 2225
?SkipDeclaration@CSSParserImpl@@IAEHAAHH@Z ; 2225
?QueryInterface@CSSDeclarationImpl@@UAGIABUnsID@@PAPAX@Z ; 2221
?GetPrefix@nsNodeInfo@@UAGIAAV?$basic_nsAWritableString@G@@@Z ; 2220
?GetNodeName@nsHTMLImageElement@@UAGIAAV?$basic_nsAWritableString@G@@@Z ; 2220
?GetNodeName@nsGenericHTMLElement@@UAGIAAV?$basic_nsAWritableString@G@@@Z ; 2220
?NS_NewCSSDeclaration@@YAIPAPAVnsICSSDeclaration@@@Z ; 2220
??0nsRange@@QAE@XZ ; 2219
??_EnsRange@@UAEPAXI@Z ; 2219
?ParseDeclarationBlock@CSSParserImpl@@IAEPAVnsICSSDeclaration@@AAHH@Z ; 2219
?NS_NewRange@@YAIPAPAVnsIDOMRange@@@Z ; 2219
??1nsRange@@UAE@XZ ; 2219
?ContentRemoved@nsBindingManager@@UAGIPAVnsIDocument@@PAVnsIContent@@1H@Z ; 2218
??1nsAttrSelector@@QAE@XZ ; 2209
?ContentRemoved@nsDocument@@UAGIPAVnsIContent@@0H@Z ; 2204
?HandleDOMEvent@nsGenericDOMDataNode@@QAEIPAVnsIPresContext@@PAUnsEvent@@PAPAVnsIDOMEvent@@IPAW4nsEventStatus@@@Z ; 2161
?HandleDOMEvent@nsDOMDocumentType@@UAGIPAVnsIPresContext@@PAUnsEvent@@PAPAVnsIDOMEvent@@IPAW4nsEventStatus@@@Z ; 2161
?InNavQuirksMode@nsGenericHTMLElement@@SAHPAVnsIDocument@@@Z ; 2133
?SetIntValue@nsCSSValue@@QAEXHW4nsCSSUnit@@@Z ; 2123
?AddContentAsLeaf@nsXMLContentSink@@IAEIPAVnsIContent@@@Z ; 2115
?CopyText@nsCommentNode@@UAGIAAV?$basic_nsAWritableString@G@@@Z ; 2092
?CopyText@nsGenericDOMDataNode@@QAEIAAV?$basic_nsAWritableString@G@@@Z ; 2092
?GetCollapsed@nsRange@@UAGIPAH@Z ; 2075
??_GCSSDeclarationImpl@@UAEPAXI@Z ; 2056
??1CSSDeclarationImpl@@UAE@XZ ; 2056
??3CSSDeclarationImpl@@SAXPAX@Z ; 2056
?GetRangeList@nsGenericDOMDataNode@@QBEIAAPAVnsVoidArray@@@Z ; 2009
?GetRangeList@nsCommentNode@@UBGIAAPAVnsVoidArray@@@Z ; 2009
?LookUpSelection@nsTypedSelection@@UAGIPAVnsIContent@@HHPAPAUSelectionDetails@@FH@Z ; 1998
?HandleDOMEvent@nsHTMLImageElement@@UAGIPAVnsIPresContext@@PAUnsEvent@@PAPAVnsIDOMEvent@@IPAW4nsEventStatus@@@Z ; 1995
?Init@nsContentIterator@@UAGIPAVnsIContent@@@Z ; 1994
?SetAttribute@nsXMLElement@@UAGIPAVnsINodeInfo@@ABV?$basic_nsAReadableString@G@@H@Z ; 1976
?SetAttribute@nsGenericContainerElement@@UAGIPAVnsINodeInfo@@ABV?$basic_nsAReadableString@G@@H@Z ; 1976
?ParseSelectorList@CSSParserImpl@@IAEHAAHAAPAUSelectorList@@@Z ; 1970
?ParseRuleSet@CSSParserImpl@@IAEHAAH@Z ; 1970
?GetLineNumber@nsCSSScanner@@QAEIXZ ; 1970
?GetDOMNodeFromContent@nsRange@@SAIPAVnsIContent@@PAV?$nsCOMPtr@VnsIDOMNode@@@@@Z ; 1969
?GetIsCollapsed@nsTypedSelection@@UAGIPAH@Z ; 1967
?GetScriptObject@nsGenericElement@@UAGIPAVnsIScriptContext@@PAPAX@Z ; 1965
?GetEventHandlerIID@nsXBLBinding@@SAXPAVnsIAtom@@PAUnsID@@PAH@Z ; 1961
??0nsGenericContainerElement@@QAE@XZ ; 1936
??0nsXMLElement@@QAE@XZ ; 1935
?LoadBindingDocumentInfo@nsXBLService@@UAGIPAVnsIContent@@PAVnsIDocument@@ABVnsCString@@2HPAPAVnsIXBLDocumentInfo@@@Z ; 1912
??0?$nsPromiseSubstring@D@@QAE@ABV?$basic_nsAReadableString@D@@II@Z ; 1908
?AssignFromPromise@?$basic_nsAWritableString@D@@IAEXABV?$basic_nsAReadableString@D@@@Z ; 1908
?Right@?$basic_nsAReadableString@D@@QBEIAAV?$basic_nsAWritableString@D@@I@Z ; 1908
?GetBindingInternal@nsXBLService@@UAGIPAVnsIContent@@ABVnsCString@@HPAHPAPAVnsIXBLBinding@@@Z ; 1908
?Mid@?$basic_nsAReadableString@D@@QBEIAAV?$basic_nsAWritableString@D@@II@Z ; 1908
?SetScriptObject@nsGenericElement@@UAGIPAX@Z ; 1897
?MatchSelf@nsContentList@@IAEHPAVnsIContent@@@Z ; 1891
??0nsXBLEventHandler@@QAE@PAVnsIDOMEventReceiver@@PAVnsIXBLPrototypeHandler@@@Z ; 1879
?QueryInterface@nsXBLEventHandler@@UAGIABUnsID@@PAPAX@Z ; 1879
?MarkForDeath@nsXBLEventHandler@@QAEXXZ ; 1879
?PopRanges@nsRange@@SAIPAVnsIDOMNode@@HPAVnsIContent@@@Z ; 1877
?OwnerChildRemoved@nsRange@@SGIPAVnsIContent@@H0@Z ; 1875
?RemoveElementAt@nsCheapVoidArray@@QAEHH@Z ; 1875
?AddRef@nsHTMLUtils@@SAXXZ ; 1864
?Release@nsHTMLUtils@@SAXXZ ; 1864
?SetHint@nsSelection@@UAGIW4HINT@nsIFrameSelection@@@Z ; 1853
??0nsCSSRect@@QAE@XZ ; 1850
?MaybeClearDOMSlots@nsGenericElement@@IAEXXZ ; 1845
?LoadBindings@nsXBLService@@UAGIPAVnsIContent@@ABV?$basic_nsAReadableString@G@@HPAPAVnsIXBLBinding@@PAH@Z ; 1834
?ClearFrameRefs@nsEventStateManager@@UAGIPAVnsIFrame@@@Z ; 1829
??0nsXBLKeyHandler@@QAE@PAVnsIDOMEventReceiver@@PAVnsIXBLPrototypeHandler@@@Z ; 1821
?NS_NewXBLKeyHandler@@YAIPAVnsIDOMEventReceiver@@PAVnsIXBLPrototypeHandler@@PAPAVnsXBLKeyHandler@@@Z ; 1821
?GetStyleRuleSupplier@StyleSetImpl@@UAGIPAPAVnsIStyleRuleSupplier@@@Z ; 1819
?HasBasePrototype@nsXBLPrototypeBinding@@UAGIPAH@Z ; 1819
?ParseEnumValue@nsGenericHTMLElement@@SAHABV?$basic_nsAReadableString@G@@PAUEnumTable@1@AAVnsHTMLValue@@@Z ; 1816
?GetPrototypeHandlers@nsXBLPrototypeBinding@@UAGIPAPAVnsIXBLPrototypeHandler@@0@Z ; 1793
??1nsGenericContainerElement@@UAE@XZ ; 1784
??_GnsXMLElement@@UAEPAXI@Z ; 1783
??1nsXMLElement@@UAE@XZ ; 1783
?QueryInterface@DocumentViewerImpl@@UAGIABUnsID@@PAPAX@Z ; 1777
??0nsXBLBinding@@QAE@PAVnsIXBLPrototypeBinding@@@Z ; 1767
?ChangeDocument@nsXBLBinding@@UAGIPAVnsIDocument@@0@Z ; 1767
?HasStyleSheets@nsXBLBinding@@UAGIPAH@Z ; 1767
?InstallEventHandlers@nsXBLBinding@@UAGIPAVnsIContent@@PAPAVnsIXBLBinding@@@Z ; 1767
?InstallProperties@nsXBLBinding@@UAGIPAVnsIContent@@@Z ; 1767
?AddEventListener@nsEventListenerManager@@UAGIABV?$basic_nsAReadableString@G@@PAVnsIDOMEventListener@@H@Z ; 1767
?NS_NewXBLBinding@@YAIPAVnsIXBLPrototypeBinding@@PAPAVnsIXBLBinding@@@Z ; 1767
?SetBoundElement@nsXBLBinding@@UAGIPAVnsIContent@@@Z ; 1767
??_EnsXBLBinding@@UAEPAXI@Z ; 1767
??1nsXBLBinding@@UAE@XZ ; 1767
?GetAttributeMappingFunctions@nsHTMLTableCellElement@@UBGIAAP6AXPBVnsIHTMLMappedAttributes@@PAVnsIMutableStyleContext@@PAVnsIPresContext@@@Z3@Z ; 1758
?AddClass@nsCSSSelector@@QAEXABVnsString@@@Z ; 1750
?AttributeToString@nsHTMLImageElement@@UBGIPAVnsIAtom@@ABVnsHTMLValue@@AAV?$basic_nsAWritableString@G@@@Z ; 1748
?GetMappedAttributeImpact@nsHTMLTableElement@@UBGIPBVnsIAtom@@AAH@Z ; 1742
?StringToAttribute@nsHTMLTableElement@@UAGIPAVnsIAtom@@ABV?$basic_nsAReadableString@G@@AAVnsHTMLValue@@@Z ; 1742
?QueryInterface@nsHTMLHRElement@@UAGIABUnsID@@PAPAX@Z ; 1738
?StringToAttribute@nsHTMLOptionElement@@UAGIPAVnsIAtom@@ABV?$basic_nsAReadableString@G@@AAVnsHTMLValue@@@Z ; 1729
??0nsHTMLAnchorElement@@QAE@XZ ; 1724
?NS_NewHTMLAnchorElement@@YAIPAPAVnsIHTMLContent@@PAVnsINodeInfo@@@Z ; 1724
??1nsHTMLAnchorElement@@UAE@XZ ; 1724
??_EnsHTMLAnchorElement@@UAEPAXI@Z ; 1724
?ProcessATag@HTMLContentSink@@QAEIABVnsIParserNode@@PAVnsIHTMLContent@@@Z ; 1721
?GetAncestorsAndOffsets@nsRange@@SAHPAVnsIDOMNode@@HPAVnsVoidArray@@1@Z ; 1698
?GetBinding@nsXBLService@@UAGIPAVnsIContent@@ABVnsCString@@PAPAVnsIXBLBinding@@@Z ; 1696
??1nsCSSRect@@QAE@XZ ; 1690
?ComparePoints@@YAHPAVnsIDOMNode@@H0H@Z ; 1680
?AddOption@nsHTMLSelectElement@@UAGIPAVnsIContent@@@Z ; 1672
?GetScriptObject@nsHTMLDocument@@UAGIPAVnsIScriptContext@@PAPAX@Z ; 1668
??0nsHTMLOptionElement@@QAE@XZ ; 1667
?GenerateAnonymousContent@nsXBLBinding@@UAGIPAVnsIContent@@@Z ; 1667
?NS_NewHTMLOptionElement@@YAIPAPAVnsIHTMLContent@@PAVnsINodeInfo@@@Z ; 1667
?GetContentID@nsGenericElement@@UAGIPAI@Z ; 1631
?StringToAttribute@nsHTMLFontElement@@UAGIPAVnsIAtom@@ABV?$basic_nsAReadableString@G@@AAVnsHTMLValue@@@Z ; 1620
?GetMappedAttributeImpact@nsHTMLFontElement@@UBGIPBVnsIAtom@@AAH@Z ; 1620
?SetWrappedJS@nsBindingManager@@UAGIPAVnsIContent@@PAVnsIXPConnectWrappedJS@@@Z ; 1618
?ImageAttributeToString@nsGenericHTMLElement@@SAHPAVnsIAtom@@ABVnsHTMLValue@@AAV?$basic_nsAWritableString@G@@@Z ; 1608
?GetTagName@nsGenericHTMLElement@@UAGIAAV?$basic_nsAWritableString@G@@@Z ; 1585
?GetTagName@nsHTMLOptionElement@@UAGIAAV?$basic_nsAWritableString@G@@@Z ; 1585
?Release@nsGeneratedContentIterator@@UAGKXZ ; 1560
?RemoveChildAt@nsGenericContainerElement@@UAGIHH@Z ; 1555
?GetScriptObject@nsGenericHTMLContainerFormElement@@UAGIPAVnsIScriptContext@@PAPAX@Z ; 1531
?LookAhead@nsCSSScanner@@IAEHAAHG@Z ; 1526
?MapStyleInto@HTMLDocumentColorRule@@UAGIPAVnsIMutableStyleContext@@PAVnsIPresContext@@@Z ; 1526
?MapStyleInto@TableBackgroundRule@@UAGIPAVnsIMutableStyleContext@@PAVnsIPresContext@@@Z ; 1523
?GetAnonymousNodes@nsXBLBinding@@UAGIPAPAVnsIDOMNodeList@@@Z ; 1521
?SetTag@nsCSSSelector@@QAEXABVnsString@@@Z ; 1483
??0nsAttrSelector@@QAE@ABU0@@Z ; 1478
?BindingDetached@nsXBLPrototypeBinding@@UAGIPAVnsIDOMEventReceiver@@@Z ; 1442
?ExecuteDetachedHandler@nsXBLBinding@@UAGIXZ ; 1442
??1nsGenericAttribute@@QAE@XZ ; 1439
?SetOriginalTarget@nsDOMEvent@@UAGIPAVnsIDOMEventTarget@@@Z ; 1437
?Release@nsXBLInsertionPoint@@UAGKXZ ; 1435
?Release@nsContentList@@UAGKXZ ; 1435
?MouseOver@nsXBLMouseHandler@@UAEIPAVnsIDOMEvent@@@Z ; 1416
?MouseOut@nsXBLMouseHandler@@UAEIPAVnsIDOMEvent@@@Z ; 1416
?ParseValue@nsGenericHTMLElement@@SAHABV?$basic_nsAReadableString@G@@HAAVnsHTMLValue@@W4nsHTMLUnit@@@Z ; 1411
?MapBackgroundAttributesInto@nsGenericHTMLElement@@SAXPBVnsIHTMLMappedAttributes@@PAVnsIMutableStyleContext@@PAVnsIPresContext@@@Z ; 1407
?do_GetService@@YA?BVnsGetServiceByContractID@@PBDPAI@Z ; 1397
?UnsetAttributeFor@HTMLStyleSheetImpl@@UAGIPAVnsIAtom@@PAVnsIHTMLContent@@AAPAVnsIHTMLAttributes@@@Z ; 1395
?UnsetAttribute@nsGenericHTMLElement@@UAGIHPAVnsIAtom@@H@Z ; 1395
?UnsetAttributeName@HTMLAttributesImpl@@MAEIPAVnsIAtom@@AAH@Z ; 1388
?UnsetAttributeFor@HTMLAttributesImpl@@UAGIPAVnsIAtom@@PAVnsIHTMLContent@@PAVnsIHTMLStyleSheet@@AAH@Z ; 1388
?ShouldBuildChildFrames@nsXBLBinding@@UAGIPAH@Z ; 1374
?HasInsertionPoints@nsXBLPrototypeBinding@@UAGIPAH@Z ; 1350
?NextNode@nsContentIterator@@IAEIPAV?$nsCOMPtr@VnsIContent@@@@@Z ; 1349
?ParseColor@nsGenericHTMLElement@@SAHABV?$basic_nsAReadableString@G@@PAVnsIDocument@@AAVnsHTMLValue@@@Z ; 1347
??1nsXBLEventHandler@@UAE@XZ ; 1339
?AppendChildTo@nsHTMLSelectElement@@UAGIPAVnsIContent@@H@Z ; 1322
?SetCurrentTarget@nsDOMEvent@@UAGIPAVnsIDOMEventTarget@@@Z ; 1320
?MatchLinks@nsHTMLDocument@@KAHPAVnsIContent@@PAVnsString@@@Z ; 1315
?ParseValueOrPercentOrProportional@nsGenericHTMLElement@@SAHABV?$basic_nsAReadableString@G@@AAVnsHTMLValue@@W4nsHTMLUnit@@@Z ; 1308
?ParseString@nsCSSScanner@@IAEHAAHHAAUnsCSSToken@@@Z ; 1306
?GatherString@nsCSSScanner@@IAEHAAHHAAVnsString@@@Z ; 1306
?GetLength@nsHTMLSelectElement@@UAGIPAI@Z ; 1298
?ExecuteDetachedHandler@@YAHPAVnsHashKey@@PAX1@Z ; 1293
??1nsXBLKeyHandler@@UAE@XZ ; 1281
??_GnsXBLKeyHandler@@UAEPAXI@Z ; 1281
?SetColorValue@nsHTMLValue@@QAEXI@Z ; 1273
?ContentStatesChanged@nsDocument@@UAGIPAVnsIContent@@0@Z ; 1267
?SetValueImportant@CSSDeclarationImpl@@UAGIW4nsCSSProperty@@@Z ; 1260
?GetEntityTerminator@@YAHAAVnsString@@AAGH@Z ; 1259
?Release@nsTextContentChangeData@@UAGKXZ ; 1252
?GetAttributeCount@nsGenericContainerElement@@UBGIAAH@Z ; 1252
?GetChildNodes@nsGenericContainerElement@@UAGIPAPAVnsIDOMNodeList@@@Z ; 1242
?GetChildNodes@nsDocumentFragment@@UAGIPAPAVnsIDOMNodeList@@@Z ; 1242
?GetNamedObject@nsFormControlList@@QAEIPAUJSContext@@JPAPAUJSObject@@@Z ; 1240
?QueryInterface@nsHTMLSpacerElement@@UAGIABUnsID@@PAPAX@Z ; 1235
?NamedItem@nsHTMLFormElement@@UAGIPAUJSContext@@PAJI1@Z ; 1221
?NamedItem@nsFormControlList@@UAGIPAUJSContext@@PAJI1@Z ; 1221
?GetNameSpaceURI@NameSpaceManagerImpl@@UAGIHAAV?$basic_nsAWritableString@G@@@Z ; 1217
?CheckPolicy@nsContentPolicy@@EAGIHHPAVnsIDOMElement@@PBGPAH@Z ; 1217
?ShouldLoad@nsContentPolicy@@UAGIHPAVnsIDOMElement@@PBGPAH@Z ; 1217
?QueryInterface@nsContentPolicy@@UAGIABUnsID@@PAPAX@Z ; 1217
?NormalizeAttributeString@nsGenericHTMLElement@@UAGIABV?$basic_nsAReadableString@G@@AAPAVnsINodeInfo@@@Z ; 1197
??0nsAtomList@@QAE@PAVnsIAtom@@@Z ; 1192
?setAnchorFocusRange@nsTypedSelection@@AAEXH@Z ; 1192
?AddPseudoClass@nsCSSSelector@@QAEXPAVnsIAtom@@@Z ; 1192
?NS_NewHTMLBRElement@@YAIPAPAVnsIHTMLContent@@PAVnsINodeInfo@@@Z ; 1188
??_EnsHTMLBRElement@@UAEPAXI@Z ; 1188
??1nsHTMLBRElement@@UAE@XZ ; 1188
??0nsHTMLBRElement@@QAE@XZ ; 1188
?RangeAdd@nsCommentNode@@UAGIAAVnsIDOMRange@@@Z ; 1185
?RangeAdd@nsGenericDOMDataNode@@QAEIAAVnsIDOMRange@@@Z ; 1185
?CalcFontPointSize@nsStyleUtil@@SAHHHMPAVnsIPresContext@@W4nsFontSizeType@@@Z ; 1184
?ParseColor@CSSParserImpl@@IAEHAAHAAVnsCSSValue@@@Z ; 1179
?GetCommonAncestorContainer@nsRange@@UAGIPAPAVnsIDOMNode@@@Z ; 1169
?CommonParent@nsRange@@SA?AV?$nsCOMPtr@VnsIDOMNode@@@@PAVnsIDOMNode@@0@Z ; 1169
?NS_NewHTMLTableRowElement@@YAIPAPAVnsIHTMLContent@@PAVnsINodeInfo@@@Z ; 1168
??_GnsHTMLTableRowElement@@UAEPAXI@Z ; 1168
??0nsHTMLTableRowElement@@QAE@XZ ; 1168
??1nsHTMLTableRowElement@@UAE@XZ ; 1168
?IsImage@nsHTMLInputElement@@IBEHXZ ; 1161
?PopContent@nsXMLContentSink@@IAEPAVnsIContent@@XZ ; 1157
?AddAttributes@nsXMLContentSink@@IAEIABVnsIParserNode@@PAVnsIContent@@H@Z ; 1157
?CloseContainer@nsXMLContentSink@@UAGIABVnsIParserNode@@@Z ; 1157
?PushContent@nsXMLContentSink@@IAEHPAVnsIContent@@@Z ; 1157
?PopNameSpaces@nsXMLContentSink@@IAEPAVnsINameSpace@@XZ ; 1157
?PushNameSpacesFrom@nsXMLContentSink@@IAEXABVnsIParserNode@@@Z ; 1157
?OpenContainer@nsXMLContentSink@@UAGIABVnsIParserNode@@@Z ; 1157
?StripWhitespaceNodes@nsXBLService@@SAIPAVnsIContent@@@Z ; 1157
?FlushPendingNotifications@nsDocument@@UAGIH@Z ; 1154
?FlushPendingNotifications@nsHTMLDocument@@UAGIH@Z ; 1154
?HasAttributes@nsDOMDocumentType@@UAGIPAH@Z ; 1153
?GetElementFactory@nsXMLContentSink@@KAXHPAPAVnsIElementFactory@@@Z ; 1151
?CopyInnerTo@nsGenericContainerElement@@UAGIPAVnsIContent@@PAV1@H@Z ; 1132
?SetAnonymousContent@nsXBLBinding@@UAGIPAVnsIContent@@@Z ; 1132
?SetInitialAttributes@nsXBLPrototypeBinding@@UAGIPAVnsIContent@@0@Z ; 1132
?CloneNode@nsXMLElement@@UAGIHPAPAVnsIDOMNode@@@Z ; 1132
?GetListenerManager@nsGenericDOMDataNode@@QAEIPAVnsIContent@@PAPAVnsIEventListenerManager@@@Z ; 1106
?ParsePositiveVariant@CSSParserImpl@@IAEHAAHAAVnsCSSValue@@HQBH@Z ; 1105
?RangeRemove@nsGenericDOMDataNode@@QAEIAAVnsIDOMRange@@@Z ; 1102
?RangeRemove@nsCommentNode@@UAGIAAVnsIDOMRange@@@Z ; 1102
?ShouldBuildChildFrames@nsXBLPrototypeBinding@@UAGIPAH@Z ; 1095
?NS_NewHTMLImageElement@@YAIPAPAVnsIHTMLContent@@PAVnsINodeInfo@@@Z ; 1087
??0nsHTMLImageElement@@QAE@XZ ; 1087
??_EnsHTMLImageElement@@UAEPAXI@Z ; 1086
??1nsHTMLImageElement@@UAE@XZ ; 1086
?GetPreventDefault@nsDOMEvent@@UAGIPAH@Z ; 1086
?FindNameSpace@NameSpaceImpl@@UBGIPAVnsIAtom@@AAPAVnsINameSpace@@@Z ; 1083
?ParseID@nsCSSScanner@@IAEHAAHHAAUnsCSSToken@@@Z ; 1061
?GetAttributeCount@nsHTMLMappedAttributes@@UBGIAAH@Z ; 1055
?GetAttributeMappingFunctions@nsHTMLImageElement@@UBGIAAP6AXPBVnsIHTMLMappedAttributes@@PAVnsIMutableStyleContext@@PAVnsIPresContext@@@Z3@Z ; 1043
?ProcessAttachedQueue@nsBindingManager@@UAGIXZ ; 1037
?GetAttribute@nsGenericElement@@UAGIABV?$basic_nsAReadableString@G@@AAV?$basic_nsAWritableString@G@@@Z ; 1037
?GetAttribute@nsXMLElement@@UAGIABV?$basic_nsAReadableString@G@@AAV?$basic_nsAWritableString@G@@@Z ; 1037
?FetchStartParent@nsTypedSelection@@QAEPAVnsIDOMNode@@PAVnsIDOMRange@@@Z ; 1026
?GetInsertionPoint@nsBindingManager@@UAGIPAVnsIContent@@0PAPAV2@PAI@Z ; 990
?GetScriptObjectFactory@nsGenericElement@@SAIPAPAVnsIDOMScriptObjectFactory@@@Z ; 988
?HasChildNodes@nsGenericHTMLContainerElement@@QAGIPAH@Z ; 984
?NS_MakeAbsoluteURI@@YAIAAV?$basic_nsAWritableString@G@@ABV?$basic_nsAReadableString@G@@PAVnsIURI@@PAVnsIIOService@@@Z ; 978
?KeyDown@nsXBLKeyHandler@@UAEIPAVnsIDOMEvent@@@Z ; 972
?KeyUp@nsXBLKeyHandler@@UAEIPAVnsIDOMEvent@@@Z ; 972
?RemoveEventListener@nsEventListenerManager@@IAEIPAVnsIDOMEventListener@@ABUnsID@@HH@Z ; 966
?SetStringValue@nsCSSValue@@QAEXABV?$basic_nsAReadableString@G@@W4nsCSSUnit@@@Z ; 932
?NamedItem@nsHTMLDocument@@UAGIPAUJSContext@@PAJI1@Z ; 913
?MappedDropSheet@@YAHPAVnsHashKey@@PAX1@Z ; 905
?DropStyleSheetReference@nsHTMLMappedAttributes@@UAGIXZ ; 905
??_GnsHTMLSpanElement@@UAEPAXI@Z ; 900
??1nsHTMLSpanElement@@UAE@XZ ; 900
?NS_NewHTMLSpanElement@@YAIPAPAVnsIHTMLContent@@PAVnsINodeInfo@@@Z ; 900
?KeyPress@nsXBLKeyHandler@@UAEIPAVnsIDOMEvent@@@Z ; 900
??0nsHTMLSpanElement@@QAE@XZ ; 900
?QueryInterface@nsHTMLPreElement@@UAGIABUnsID@@PAPAX@Z ; 900
??_GnsHTMLOptionElement@@UAEPAXI@Z ; 887
??1nsHTMLOptionElement@@UAE@XZ ; 887
?SetAttribute@nsHTMLMappedAttributes@@UAGIPAVnsIAtom@@ABV?$basic_nsAReadableString@G@@@Z ; 864
??0nsHTMLFontElement@@QAE@XZ ; 858
?GetPreviousSibling@nsGenericDOMDataNode@@QAEIPAVnsIContent@@PAPAVnsIDOMNode@@@Z ; 858
?NS_NewHTMLFontElement@@YAIPAPAVnsIHTMLContent@@PAVnsINodeInfo@@@Z ; 858
??_GnsHTMLFontElement@@UAEPAXI@Z ; 858
??1nsHTMLFontElement@@UAE@XZ ; 858
?GetPreviousSibling@nsCommentNode@@UAGIPAPAVnsIDOMNode@@@Z ; 858
?GetAttributeMappingFunctions@nsHTMLFontElement@@UBGIAAP6AXPBVnsIHTMLMappedAttributes@@PAVnsIMutableStyleContext@@PAVnsIPresContext@@@Z3@Z ; 850
??0nsAttrSelector@@QAE@HABVnsString@@E0H@Z ; 840
?AddAttribute@nsCSSSelector@@QAEXHABVnsString@@E0H@Z ; 840
?Close@nsCSSScanner@@IAEXXZ ; 836
?IndexOf@nsRange@@SAHPAVnsIDOMNode@@@Z ; 836
?GetAttributeNameAt@nsGenericContainerElement@@UBGIHAAHAAPAVnsIAtom@@1@Z ; 825
?GetNodeBracketPoints@@YAHPAVnsIContent@@PAV?$nsCOMPtr@VnsIDOMNode@@@@PAH2@Z ; 825
?ParseTableCellHAlignValue@nsGenericHTMLElement@@QBEHABV?$basic_nsAReadableString@G@@AAVnsHTMLValue@@@Z ; 820
?CurrentItem@nsSelectionIterator@@UAGIPAPAVnsISupports@@@Z ; 811
?QueryInterface@nsSelectionIterator@@UAGIABUnsID@@PAPAX@Z ; 811
?First@nsSelectionIterator@@UAGIXZ ; 811
?GetEnumerator@nsTypedSelection@@UAGIPAPAVnsIEnumerator@@@Z ; 811
??0nsSelectionIterator@@AAE@PAVnsTypedSelection@@@Z ; 811
?Release@nsSelectionIterator@@UAGKXZ ; 811
??_EnsSelectionIterator@@EAEPAXI@Z ; 811
??1nsSelectionIterator@@EAE@XZ ; 811
?SetContainingNameSpace@nsXMLElement@@UAGIPAVnsINameSpace@@@Z ; 803
?NS_NewXMLElement@@YAIPAPAVnsIXMLContent@@PAVnsINodeInfo@@@Z ; 803
?HandleDOMEvent@nsHTMLFormElement@@UAGIPAVnsIPresContext@@PAUnsEvent@@PAPAVnsIDOMEvent@@IPAW4nsEventStatus@@@Z ; 785
?AddChild@nsXBLInsertionPoint@@UAGIPAVnsIContent@@@Z ; 778
?RemoveEventListenerByIID@nsEventListenerManager@@UAEIPAVnsIDOMEventListener@@ABUnsID@@H@Z ; 774
?GetParentSheet@CSSStyleSheetImpl@@UBGIAAPAVnsIStyleSheet@@@Z ; 765
?GetFocusNode@nsTypedSelection@@UAGIPAPAVnsIDOMNode@@@Z ; 756
?ParseChoice@CSSParserImpl@@IAEHAAHQAVnsCSSValue@@QBW4nsCSSProperty@@H@Z ; 755
?GetFocusOffset@nsTypedSelection@@UAGIPAH@Z ; 753
?QueryInterface@nsXMLCDATASection@@UAGIABUnsID@@PAPAX@Z ; 750
?Unlock@nsRange@@SAIXZ ; 743
?Lock@nsRange@@SAIXZ ; 743
?ParseTableVAlignValue@nsGenericHTMLElement@@SAHABV?$basic_nsAReadableString@G@@AAVnsHTMLValue@@@Z ; 742
?GetEnabled@CSSStyleSheetImpl@@UBGIAAH@Z ; 737
?SetDocument@nsGenericHTMLLeafFormElement@@UAGIPAVnsIDocument@@HH@Z ; 735
?SetAttribute@nsGenericHTMLLeafFormElement@@UAGIHPAVnsIAtom@@ABV?$basic_nsAReadableString@G@@H@Z ; 721
?GetBindingURI@nsXBLPrototypeBinding@@UAGIAAVnsCString@@@Z ; 721
?GetOwnerDocument@nsGenericElement@@UAGIPAPAVnsIDOMDocument@@@Z ; 721
?GetMappedAttributeImpact@nsHTMLInputElement@@UBGIPBVnsIAtom@@AAH@Z ; 721
?GetOwnerDocument@nsHTMLInputElement@@UAGIPAPAVnsIDOMDocument@@@Z ; 721
?GetDocumentURI@nsXBLDocumentInfo@@UAGIAAVnsCString@@@Z ; 721
??0nsCSSMargin@@QAE@XZ ; 719
?StringToAttribute@nsHTMLInputElement@@UAGIPAVnsIAtom@@ABV?$basic_nsAReadableString@G@@AAVnsHTMLValue@@@Z ; 717
?SetStringValue@nsHTMLValue@@QAEXABV?$basic_nsAReadableString@G@@W4nsHTMLUnit@@@Z ; 716
?GetFrameForNodeOffset@nsSelection@@UAGIPAVnsIContent@@HW4HINT@nsIFrameSelection@@PAPAVnsIFrame@@PAH@Z ; 712
?Resolve@nsHTMLDocument@@UAEHPAUJSContext@@PAUJSObject@@JPAH@Z ; 710
?ChildCount@nsXBLInsertionPoint@@UAGIPAI@Z ; 709
?GetQualifiedName@nsNodeInfo@@UAGIAAV?$basic_nsAWritableString@G@@@Z ; 707
?WalkHandlersInternal@nsXBLWindowHandler@@MAEIPAVnsIDOMEvent@@PAVnsIAtom@@PAVnsIXBLPrototypeHandler@@@Z ; 706
?UnsetAttribute@nsGenericContainerElement@@UAGIHPAVnsIAtom@@H@Z ; 705
?SetOperator@nsCSSSelector@@QAEXG@Z ; 700
?CascadeSheetRulesInto@CSSRuleProcessor@@KAHPAVnsISupports@@PAX@Z ; 690
?UseForMedium@CSSStyleSheetImpl@@UBGIPAVnsIAtom@@@Z ; 690
?RemoveEventListenerByIID@nsEventListenerManager@@UAGIPAVnsIDOMEventListener@@ABUnsID@@@Z ; 687
?Release@SheetLoadData@@UAGKXZ ; 687
?GetPreviousSibling@nsGenericElement@@UAGIPAPAVnsIDOMNode@@@Z ; 683
??0nsCSSColor@@QAE@XZ ; 683
?GetPreviousSibling@nsHTMLInputElement@@UAGIPAPAVnsIDOMNode@@@Z ; 683
?GetChildNodes@nsHTMLButtonElement@@UAGIPAPAVnsIDOMNodeList@@@Z ; 680
?Add@nsContentList@@QAEIPAVnsIContent@@@Z ; 676
?GetColorValue@nsHTMLValue@@QBEIXZ ; 669
?HandleEventSubType@nsEventListenerManager@@IAEIPAUnsListenerStruct@@PAVnsIDOMEvent@@PAVnsIDOMEventTarget@@II@Z ; 660
?GetPresContext@nsGenericHTMLElement@@SAIPAVnsIHTMLContent@@PAPAVnsIPresContext@@@Z ; 653
?SetForm@nsGenericHTMLLeafFormElement@@UAGIPAVnsIDOMHTMLFormElement@@@Z ; 652
?IsDescendantOfRoot@nsContentList@@IAEHPAVnsIContent@@@Z ; 648
?IndexOf@nsHTMLOptionCollection@@QAEHPAVnsIContent@@@Z ; 645
?MapImageAttributesInto@nsGenericHTMLElement@@SAXPBVnsIHTMLMappedAttributes@@PAVnsIMutableStyleContext@@PAVnsIPresContext@@@Z ; 641
??_EnsCSSColor@@UAEPAXI@Z ; 640
??_EnsTypedSelection@@UAEPAXI@Z ; 640
??1nsCSSColor@@UAE@XZ ; 640
??1nsTypedSelection@@UAE@XZ ; 640
??_GnsCSSMargin@@UAEPAXI@Z ; 636
??1nsCSSMargin@@UAE@XZ ; 636
?QueryInterface@nsROCSSPrimitiveValue@@UAGIABUnsID@@PAPAX@Z ; 624
?QueryInterface@nsComputedDOMStyle@@UAGIABUnsID@@PAPAX@Z ; 624
??0nsTypedSelection@@QAE@PAVnsSelection@@@Z ; 624
?CopyHTMLAttributes@HTMLAttribute@@SAXPAU1@PAPAU1@@Z ; 624
?SetEmptyValue@nsHTMLValue@@QAEXXZ ; 621
?NextURL@nsCSSScanner@@QAEHAAHAAUnsCSSToken@@@Z ; 621
?GetURLToken@CSSParserImpl@@IAEHAAHH@Z ; 621
?MapImageBorderAttributeInto@nsGenericHTMLElement@@SAXPBVnsIHTMLMappedAttributes@@PAVnsIMutableStyleContext@@PAVnsIPresContext@@QAI@Z ; 621
?GetSelect@nsHTMLOptionElement@@IAEXAAPAVnsIDOMHTMLSelectElement@@@Z ; 620
??0nsHTMLMappedAttributes@@QAE@ABV0@@Z ; 619
?Clone@nsHTMLMappedAttributes@@UBGIPAPAV1@@Z ; 619
?ParseValue@nsGenericHTMLElement@@SAHABV?$basic_nsAReadableString@G@@HHAAVnsHTMLValue@@W4nsHTMLUnit@@@Z ; 615
?UnregisterNamedItems@nsHTMLDocument@@IAEXPAVnsIContent@@H@Z ; 612
?Set@HTMLAttribute@@QAEXPAVnsIAtom@@ABV?$basic_nsAReadableString@G@@@Z ; 611
?QueryInterface@nsHTMLHeadElement@@UAGIABUnsID@@PAPAX@Z ; 606
?AddEventListenerByIID@nsEventListenerManager@@UAGIPAVnsIDOMEventListener@@ABUnsID@@@Z ; 603
?Init@nsContentSubtreeIterator@@UAGIPAVnsIDOMRange@@@Z ; 590
??_EnsContentSubtreeIterator@@UAEPAXI@Z ; 590
??1nsContentSubtreeIterator@@UAE@XZ ; 590
?MakeEmpty@nsContentIterator@@IAEXXZ ; 590
?NS_NewContentSubtreeIterator@@YAIPAPAVnsIContentIterator@@@Z ; 590
??0nsContentSubtreeIterator@@QAE@XZ ; 590
?GetType@nsDOMEvent@@UAGIAAV?$basic_nsAWritableString@G@@@Z ; 585
?GetEventName@nsDOMEvent@@IAEPBDI@Z ; 585
?GetScalingFactor@nsStyleUtil@@SAMH@Z ; 585
?GetBindingURI@nsXBLBinding@@UAGIAAVnsCString@@@Z ; 584
?SetStyleSheet@HTMLAttributesImpl@@UAGIPAVnsIHTMLStyleSheet@@@Z ; 576
?ReparseStyleAttribute@nsGenericHTMLElement@@QAEIXZ ; 576
?CompareNodeToRange@@YAIPAVnsIContent@@PAVnsIDOMRange@@PAH2@Z ; 572
?AppendData@nsTextNode@@UAGIABV?$basic_nsAReadableString@G@@@Z ; 567
?AppendData@nsGenericDOMDataNode@@QAEIPAVnsIContent@@ABV?$basic_nsAReadableString@G@@@Z ; 567
?GetOriginalTarget@nsDOMEvent@@UAGIPAPAVnsIDOMEventTarget@@@Z ; 563
?MapStyleInto@HTMLColorRule@@UAGIPAVnsIMutableStyleContext@@PAVnsIPresContext@@@Z ; 560
?Init@nsContentIterator@@UAGIPAVnsIDOMRange@@@Z ; 559
?ParseURL@CSSParserImpl@@IAEHAAHAAVnsCSSValue@@@Z ; 550
?CheckDocumentExistence@nsContentList@@IAEIXZ ; 549
?GetMappedAttributeImpact@nsHTMLTableRowElement@@UBGIPBVnsIAtom@@AAH@Z ; 547
??0nsCommentNode@@QAE@XZ ; 546
?ConstructAttributeTable@nsXBLPrototypeBinding@@IAEXPAVnsIContent@@@Z ; 545
?ContainsStyleSheet@CSSStyleSheetImpl@@UAGIPAVnsIURI@@AAHPAPAVnsIStyleSheet@@@Z ; 545
?SetColorValue@nsCSSValue@@QAEXI@Z ; 543
?NotifySelectionListeners@nsTypedSelection@@QAEIXZ ; 541
?NotifySelectionListeners@nsSelection@@AAEIF@Z ; 541
??_GnsCommentNode@@UAEPAXI@Z ; 539
??1nsCommentNode@@UAE@XZ ; 539
?ContentInserted@StyleSetImpl@@UAGIPAVnsIPresContext@@PAVnsIContent@@1H@Z ; 531
?Assign@?$basic_nsAWritableString@G@@QAEXPBG@Z ; 531
?selectFrames@nsTypedSelection@@EAGIPAVnsIPresContext@@PAVnsIDOMRange@@H@Z ; 529
??_EnsString@@UAEPAXI@Z ; 526
?QueryInterface@nsXBLWindowKeyHandler@@UAGIABUnsID@@PAPAX@Z ; 523
?FetchEndParent@nsTypedSelection@@QAEPAVnsIDOMNode@@PAVnsIDOMRange@@@Z ; 522
??0nsCSSFont@@QAE@XZ ; 519
?GetInterlinePosition@nsTypedSelection@@UAGIPAH@Z ; 519
?GetType@CSSImportRuleImpl@@UBGIAAH@Z ; 517
?AddRef@nsXBLWindowDragHandler@@UAGKXZ ; 514
?First@nsContentIterator@@UAGIXZ ; 513
?AddID@nsCSSSelector@@QAEXABVnsString@@@Z ; 513
?GetPreviousSibling@nsHTMLDocument@@UAGIPAPAVnsIDOMNode@@@Z ; 512
?StringToAttribute@nsHTMLTableRowElement@@UAGIPAVnsIAtom@@ABV?$basic_nsAReadableString@G@@AAVnsHTMLValue@@@Z ; 511
?Release@nsXBLWindowDragHandler@@UAGKXZ ; 511
?QueryInterface@nsHTMLQuoteElement@@UAGIABUnsID@@PAPAX@Z ; 509
?GetPresContext@nsTypedSelection@@QAEIPAPAVnsIPresContext@@@Z ; 500
?HasChildNodes@nsHTMLAnchorElement@@UAGIPAH@Z ; 500
?WalkHandlers@nsXBLWindowKeyHandler@@MAGIPAVnsIDOMEvent@@PAVnsIAtom@@@Z ; 496
?ParseBorderSide@CSSParserImpl@@IAEHAAHPAVnsICSSDeclaration@@QBW4nsCSSProperty@@0@Z ; 494
?Release@CSSLoaderImpl@@UAGKXZ ; 493
??_GnsCSSFont@@UAEPAXI@Z ; 493
?StringToAttribute@nsHTMLAreaElement@@UAGIPAVnsIAtom@@ABV?$basic_nsAReadableString@G@@AAVnsHTMLValue@@@Z ; 493
??1nsCSSFont@@UAE@XZ ; 493
?HashValue@CSSFirstLineRule@@UBGIAAI@Z ; 488
?ChildAt@nsXBLInsertionPoint@@UAGIIPAPAVnsIContent@@@Z ; 488
?Item@nsAnonymousContentList@@UAGIIPAPAVnsIDOMNode@@@Z ; 488
?GetNodeName@nsTextNode@@UAGIAAV?$basic_nsAWritableString@G@@@Z ; 487
?GetAnonymousManager@nsNodeInfoManager@@SAIAAPAVnsINodeInfoManager@@@Z ; 483
?GetClosestScrollableView@nsTypedSelection@@QAEIPAVnsIView@@PAPAVnsIScrollableView@@@Z ; 481
?StringToAttribute@nsGenericElement@@UAGIPAVnsIAtom@@ABV?$basic_nsAReadableString@G@@AAVnsHTMLValue@@@Z ; 478
?GetNodeValue@nsCommentNode@@UAGIAAV?$basic_nsAWritableString@G@@@Z ; 474
?GetNodeValue@nsGenericDOMDataNode@@QAEIAAV?$basic_nsAWritableString@G@@@Z ; 474
?EnsureHandlers@nsXBLWindowKeyHandler@@MAEIXZ ; 471
?GetHandlers@nsXBLSpecialDocInfo@@QAEXPAVnsIXBLDocumentInfo@@ABV?$basic_nsAReadableString@D@@PAPAVnsIXBLPrototypeHandler@@@Z ; 470
?ContentInserted@nsBindingManager@@UAGIPAVnsIDocument@@PAVnsIContent@@1H@Z ; 466
?SetParent@nsGenericHTMLLeafFormElement@@UAGIPAVnsIContent@@@Z ; 463
?GetRangeAt@nsTypedSelection@@UAGIHPAPAVnsIDOMRange@@@Z ; 460
?GetNameSpaceID@NameSpaceManagerImpl@@UAGIABV?$basic_nsAReadableString@G@@AAH@Z ; 451
?InitClass@nsXBLBinding@@MAGIABVnsCString@@PAVnsIScriptContext@@PAVnsIDocument@@PAPAX3@Z ; 451
?GetControllers@nsHTMLInputElement@@UAGIPAPAVnsIControllers@@@Z ; 445
?AddScriptEventListener@nsGenericElement@@QAEIPAVnsIAtom@@ABV?$basic_nsAReadableString@G@@ABUnsID@@@Z ; 444
?NS_NewCommentNode@@YAIPAPAVnsIContent@@@Z ; 441
?InsertChildAt@nsGenericContainerElement@@UAGIPAVnsIContent@@HH@Z ; 441
?InsertElementAt@nsCheapVoidArray@@QAEHPAXH@Z ; 441
?OwnerChildInserted@nsRange@@SGIPAVnsIContent@@H@Z ; 441
?SetText@nsCommentNode@@UAGIPBGHH@Z ; 441
?GetNamespaceManager@nsNodeInfoManager@@UAGIAAPAVnsINameSpaceManager@@@Z ; 440
?GetAttributeNS@nsHTMLWBRElement@@UAGIABV?$basic_nsAReadableString@G@@0AAV?$basic_nsAWritableString@G@@@Z ; 440
?GetAttributeNS@nsGenericElement@@UAGIABV?$basic_nsAReadableString@G@@0AAV?$basic_nsAWritableString@G@@@Z ; 440
?GetMappedAttributeImpact@nsHTMLParagraphElement@@UBGIPBVnsIAtom@@AAH@Z ; 439
?GetLength@nsCommentNode@@UAGIPAI@Z ; 439
?GetLength@nsGenericDOMDataNode@@QAEIPAI@Z ; 439
?GetPresShell@nsTypedSelection@@QAEIPAPAVnsIPresShell@@@Z ; 432
?GetForm@nsHTMLInputElement@@UAGIPAPAVnsIDOMHTMLFormElement@@@Z ; 432
?GetForm@nsGenericHTMLContainerFormElement@@UAGIPAPAVnsIDOMHTMLFormElement@@@Z ; 432
?GetLastChild@nsGenericContainerElement@@UAGIPAPAVnsIDOMNode@@@Z ; 429
?GetBaseTarget@nsHTMLDocument@@UBGIAAV?$basic_nsAWritableString@G@@@Z ; 427
?doInsertBefore@nsGenericElement@@QAEIPAVnsIDOMNode@@0PAPAV2@@Z ; 427
?GetBaseTarget@nsGenericHTMLElement@@UBGIAAV?$basic_nsAWritableString@G@@@Z ; 427
?GetNextSibling@nsCommentNode@@UAGIPAPAVnsIDOMNode@@@Z ; 422
?GetNextSibling@nsGenericDOMDataNode@@QAEIPAVnsIContent@@PAPAVnsIDOMNode@@@Z ; 422
?ContentInserted@nsDocument@@UAGIPAVnsIContent@@0H@Z ; 419
??0nsCSSScanner@@QAE@XZ ; 418
?InitScanner@CSSParserImpl@@IAEIPAVnsIUnicharInputStream@@PAVnsIURI@@@Z ; 418
??1nsCSSScanner@@QAE@XZ ; 418
?Init@nsCSSScanner@@QAEXPAVnsIUnicharInputStream@@@Z ; 418
?ReleaseScanner@CSSParserImpl@@IAEIXZ ; 418
??_ENameSpaceImpl@@UAEPAXI@Z ; 412
?ParseBoxProperties@CSSParserImpl@@IAEHAAHPAVnsICSSDeclaration@@QBW4nsCSSProperty@@0@Z ; 412
??1NameSpaceImpl@@UAE@XZ ; 412
?GetScriptObject@nsContentList@@UAGIPAVnsIScriptContext@@PAPAX@Z ; 412
??0nsCSSList@@QAE@XZ ; 412
?Clear@nsHTMLOptionCollection@@QAEXXZ ; 411
??0nsHTMLTableElement@@QAE@XZ ; 409
?NS_NewHTMLTableSectionElement@@YAIPAPAVnsIHTMLContent@@PAVnsINodeInfo@@@Z ; 409
?NS_NewHTMLTableElement@@YAIPAPAVnsIHTMLContent@@PAVnsINodeInfo@@@Z ; 409
??1nsHTMLTableSectionElement@@UAE@XZ ; 409
??0nsHTMLTableSectionElement@@QAE@XZ ; 409
??_GnsHTMLTableSectionElement@@UAEPAXI@Z ; 409
??_GnsHTMLTableElement@@UAEPAXI@Z ; 409
??1nsHTMLTableElement@@UAE@XZ ; 409
?ConstrainFontWeight@nsStyleUtil@@SAHH@Z ; 404
?ClearAttachedQueue@nsBindingManager@@UAGIXZ ; 403
?GetAttributeMappingFunctions@nsHTMLTableElement@@UBGIAAP6AXPBVnsIHTMLMappedAttributes@@PAVnsIMutableStyleContext@@PAVnsIPresContext@@@Z3@Z ; 398
??_EnsCSSList@@UAEPAXI@Z ; 397
??1nsCSSList@@UAE@XZ ; 397
?GetLinks@nsHTMLDocument@@UAGIPAPAVnsIDOMHTMLCollection@@@Z ; 396
?QueryInterface@nsHTMLIFrameElement@@UAGIABUnsID@@PAPAX@Z ; 396
?QueryInterface@nsDocViewerFocusListener@@UAGIABUnsID@@PAPAX@Z ; 395
?NameChanged@nsNodeInfo@@UAGIPAVnsIAtom@@AAPAVnsINodeInfo@@@Z ; 395
?ParseCComment@nsCSSScanner@@IAEHAAHAAUnsCSSToken@@@Z ; 395
?GetFirstChild@nsGenericHTMLContainerElement@@QAGIPAPAVnsIDOMNode@@@Z ; 395
?NS_CreateHTMLElement@@YAIPAPAVnsIHTMLContent@@PAVnsINodeInfo@@@Z ; 395
?Release@nsDocViewerFocusListener@@UAGKXZ ; 395
?EndBatchChanges@nsSelection@@UAGIXZ ; 394
?EndBatchChanges@nsTypedSelection@@UAGIXZ ; 394
?StartBatchChanges@nsSelection@@UAGIXZ ; 394
?StartBatchChanges@nsTypedSelection@@UAGIXZ ; 394
?ContentInserted@nsHTMLDocument@@UAGIPAVnsIContent@@0H@Z ; 394
?AddComment@HTMLContentSink@@UAGIABVnsIParserNode@@@Z ; 393
?AddComment@SinkContext@@QAEIABVnsIParserNode@@@Z ; 393
?GetOptions@nsHTMLOptionCollection@@QAEXXZ ; 391
??0nsQueryReferent@@QAE@PAVnsIWeakReference@@PAI@Z ; 389
?GetNearestScrollingView@nsEventStateManager@@IAEPAVnsIScrollableView@@PAVnsIView@@@Z ; 388
?HasChildNodes@nsHTMLButtonElement@@UAGIPAH@Z ; 386
?GetDocumentSelection@DocumentViewerImpl@@AAEIPAPAVnsISelection@@PAVnsIPresShell@@@Z ; 384
?GetModificationCount@nsDocument@@UAGIPAH@Z ; 383
?HandleDOMEvent@nsHTMLInputElement@@UAGIPAVnsIPresContext@@PAUnsEvent@@PAPAVnsIDOMEvent@@IPAW4nsEventStatus@@@Z ; 382
?GetDisabled@nsHTMLInputElement@@UAGIPAH@Z ; 382
?FlushTags@SinkContext@@QAEIH@Z ; 373
??_GnsSupportsHashtable@@UAEPAXI@Z ; 371
?Item@nsFormControlList@@UAGIIPAPAVnsIDOMNode@@@Z ; 366
?IsCurrentContainer@SinkContext@@QAEHW4nsHTMLTag@@@Z ; 361
?SetPercentValue@nsHTMLValue@@QAEXM@Z ; 360
?GetAttributeMappingFunctions@nsHTMLTableRowElement@@UBGIAAP6AXPBVnsIHTMLMappedAttributes@@PAVnsIMutableStyleContext@@PAVnsIPresContext@@@Z3@Z ; 359
?GetType@nsHTMLInputElement@@UAGIAAV?$basic_nsAWritableString@G@@@Z ; 356
?SetData@nsGenericDOMDataNode@@QAEIPAVnsIContent@@ABV?$basic_nsAReadableString@G@@@Z ; 354
?SetNoneValue@nsCSSValue@@QAEXXZ ; 350
?SetProperty@nsHTMLOptionCollection@@UAEHPAUJSContext@@PAUJSObject@@JPAJ@Z ; 350
?Initialize@nsHTMLOptionElement@@UAGIPAUJSContext@@PAUJSObject@@IPAJ@Z ; 350
?AddOption@nsHTMLOptionCollection@@QAEXPAVnsIContent@@@Z ; 350
?AppendChild@nsHTMLSelectElement@@UAGIPAVnsIDOMNode@@PAPAV2@@Z ; 348
?InsertChildAt@nsHTMLSelectElement@@UAGIPAVnsIContent@@HH@Z ; 348
?SetData@nsCommentNode@@UAGIABV?$basic_nsAReadableString@G@@@Z ; 347
?Item@nsContentList@@UAGIIPAPAVnsIDOMNode@@@Z ; 335
?LookUpSelection@nsSelection@@UAGIPAVnsIContent@@HHPAPAUSelectionDetails@@H@Z ; 333
?ContentInserted@nsContentList@@UAGIPAVnsIDocument@@PAVnsIContent@@1H@Z ; 329
?HashCode@URLKey@@UBEIXZ ; 327
?QueryInterface@CSSStyleSheetImpl@@UAGIABUnsID@@PAPAX@Z ; 327
?QueryInterface@nsEventStateManager@@UAGIABUnsID@@PAPAX@Z ; 324
?ParseFamily@CSSParserImpl@@IAEHAAHAAVnsCSSValue@@@Z ; 322
?RemoveChildAt@nsGenericHTMLContainerElement@@UAGIHH@Z ; 320
?QueryInterface@NameSpaceImpl@@UAGIABUnsID@@PAPAX@Z ; 318
?ContentRemoved@StyleSetImpl@@UAGIPAVnsIPresContext@@PAVnsIContent@@1H@Z ; 316
??0NameSpaceImpl@@QAE@PAVnsINameSpaceManager@@PAV0@PAVnsIAtom@@H@Z ; 314
?NS_NewHTMLDivElement@@YAIPAPAVnsIHTMLContent@@PAVnsINodeInfo@@@Z ; 313
??1nsHTMLDivElement@@UAE@XZ ; 313
??0nsHTMLDivElement@@QAE@XZ ; 313
??_GnsHTMLDivElement@@UAEPAXI@Z ; 313
??0nsComputedDOMStyle@@QAE@XZ ; 312
?GetBehavior@nsComputedDOMStyle@@AAEIPAVnsIFrame@@AAPAVnsIDOMCSSPrimitiveValue@@@Z ; 312
?GetCssText@nsROCSSPrimitiveValue@@UAGIAAV?$basic_nsAWritableString@G@@@Z ; 312
??1nsROCSSPrimitiveValue@@UAE@XZ ; 312
?GetPropertyValue@nsComputedDOMStyle@@UAGIABV?$basic_nsAReadableString@G@@AAV?$basic_nsAWritableString@G@@@Z ; 312
??1nsComputedDOMStyle@@UAE@XZ ; 312
?GetPropertyCSSValue@nsComputedDOMStyle@@UAGIABV?$basic_nsAReadableString@G@@PAPAVnsIDOMCSSValue@@@Z ; 312
??_GnsROCSSPrimitiveValue@@UAEPAXI@Z ; 312
?NS_NewComputedDOMStyle@@YAIPAPAVnsIComputedDOMStyle@@@Z ; 312
??_EnsComputedDOMStyle@@UAEPAXI@Z ; 312
??0nsROCSSPrimitiveValue@@QAE@PAVnsISupports@@M@Z ; 312
?Init@nsComputedDOMStyle@@UAGIPAVnsIDOMElement@@ABV?$basic_nsAReadableString@G@@PAVnsIPresShell@@@Z ; 312
?CopyTo@StyleUserInterfaceImpl@@QBEXAAUnsStyleUserInterface@@@Z ; 312
?AddObserver@nsDocument@@UAEXPAVnsIDocumentObserver@@@Z ; 311
?GetSelected@nsHTMLOptionElement@@UAGIPAH@Z ; 310
?GetPrimaryFrame@nsHTMLOptionElement@@IAEIAAPAVnsIFormControlFrame@@H@Z ; 310
?GetIndex@nsHTMLOptionElement@@UAGIPAH@Z ; 310
?Item@nsHTMLSelectElement@@UAGIIPAPAVnsIDOMNode@@@Z ; 310
?QueryInterface@nsDocViwerSelectionListener@@UAGIABUnsID@@PAPAX@Z ; 306
?SetCaseSensitive@CSSLoaderImpl@@UAGIH@Z ; 304
?GetFocusedContent@nsEventStateManager@@UAGIPAPAVnsIContent@@@Z ; 304
?ClearBackstopRuleProcessors@StyleSetImpl@@IAEXXZ ; 302
?ContentRemoved@nsHTMLDocument@@UAGIPAVnsIContent@@0H@Z ; 302
?doRemoveChild@nsGenericElement@@QAEIPAVnsIDOMNode@@PAPAV2@@Z ; 302
?GetParserFor@CSSLoaderImpl@@UAGIPAVnsICSSStyleSheet@@PAPAVnsICSSParser@@@Z ; 299
?SetChildLoader@CSSParserImpl@@UAGIPAVnsICSSLoader@@@Z ; 299
?SetCharset@CSSParserImpl@@UAGIABV?$basic_nsAReadableString@G@@@Z ; 299
?SetCaseSensitive@CSSParserImpl@@UAGIH@Z ; 299
?RecycleParser@CSSLoaderImpl@@UAGIPAVnsICSSParser@@@Z ; 299
?SetQuirkMode@CSSParserImpl@@UAGIH@Z ; 299
?GetFirstChild@nsHTMLAnchorElement@@UAGIPAPAVnsIDOMNode@@@Z ; 297
?ContainsRoot@nsContentList@@IAEHPAVnsIContent@@@Z ; 297
?ContentRemoved@nsContentList@@UAGIPAVnsIDocument@@PAVnsIContent@@1H@Z ; 297
?GetLastChild@nsHTMLAnchorElement@@UAGIPAPAVnsIDOMNode@@@Z ; 296
?GetHeaderData@nsDocument@@UBGIPAVnsIAtom@@AAV?$basic_nsAWritableString@G@@@Z ; 295
?RemoveOption@nsHTMLSelectElement@@UAGIPAVnsIContent@@@Z ; 295
?normalize_forward@?$nsWritingIterator@G@@QAEXXZ ; 295
?RemoveOption@nsHTMLOptionCollection@@QAEXPAVnsIContent@@@Z ; 295
?Remove@nsHTMLSelectElement@@UAGIH@Z ; 293
?GetButton@nsDOMEvent@@UAGIPAG@Z ; 293
?RemoveChild@nsHTMLFieldSetElement@@UAGIPAVnsIDOMNode@@PAPAV2@@Z ; 293
?GetTextData@nsXBLPrototypeHandler@@SAIPAVnsIContent@@AAVnsString@@@Z ; 293
?QueryInterface@NameSpaceManagerImpl@@UAGIABUnsID@@PAPAX@Z ; 293
?SetProperty@nsHTMLSelectElement@@UAEHPAUJSContext@@PAUJSObject@@JPAJ@Z ; 293
?RemoveChildAt@nsHTMLSelectElement@@UAGIHH@Z ; 293
?EnsureDocument@nsEventStateManager@@IAEXPAVnsIPresShell@@@Z ; 292
??0nsCSSText@@QAE@XZ ; 290
?GetAltKey@nsDOMEvent@@UAGIPAH@Z ; 289
?AddItem@nsTypedSelection@@QAEIPAVnsIDOMRange@@@Z ; 284
?GetStaticScriptGlobal@nsContentUtils@@SAIPAUJSContext@@PAUJSObject@@PAPAVnsIScriptGlobalObject@@@Z ; 282
?Release@HTMLContentSink@@UAGKXZ ; 280
?GetMetaKey@nsDOMEvent@@UAGIPAH@Z ; 279
?GetCSSLoader@nsHTMLDocument@@UAGIAAPAVnsICSSLoader@@@Z ; 278
??1URLKey@@UAE@XZ ; 278
?QueryInterface@CSSRuleProcessor@@UAGIABUnsID@@PAPAX@Z ; 276
?DropRuleProcessorReference@CSSStyleSheetImpl@@UAGIPAVnsICSSStyleRuleProcessor@@@Z ; 276
?GetStyleRuleProcessor@CSSStyleSheetImpl@@UAGIAAPAVnsIStyleRuleProcessor@@PAV2@@Z ; 276
?AppendStyleSheet@CSSRuleProcessor@@UAGIPAVnsICSSStyleSheet@@@Z ; 276
?GetCtrlKey@nsDOMEvent@@UAGIPAH@Z ; 271
??0nsCSSUserInterface@@QAE@XZ ; 268
?ClearTableCellSelection@nsSelection@@UAGIXZ ; 268
?Clear@nsTypedSelection@@QAEIPAVnsIPresContext@@@Z ; 268
?ReParentStyleContext@StyleSetImpl@@UAGIPAVnsIPresContext@@PAVnsIStyleContext@@1PAPAV3@@Z ; 267
??2CSSStyleSheetImpl@@SAPAXI@Z ; 267
?RemoveObserver@nsDocument@@UAEHPAVnsIDocumentObserver@@@Z ; 264
?ConstructMask@nsXBLPrototypeHandler@@IAEXXZ ; 262
?NS_NewXBLPrototypeHandler@@YAIPAVnsIContent@@PAPAVnsIXBLPrototypeHandler@@@Z ; 262
??0nsXBLPrototypeHandler@@QAE@PAVnsIContent@@@Z ; 262
??3CSSStyleSheetImpl@@SAXPAX@Z ; 261
??1CSSStyleSheetImpl@@MAE@XZ ; 261
?ParseDeclarations@CSSParserImpl@@UAGIABV?$basic_nsAReadableString@G@@PAVnsIURI@@AAPAVnsIStyleRule@@@Z ; 261
?RemoveSheet@CSSStyleSheetInner@@UAEXPAVnsICSSStyleSheet@@@Z ; 261
??_ECSSStyleSheetImpl@@MAEPAXI@Z ; 261
?AppendFromReadable@?$basic_nsAWritableString@G@@IAEXABV?$basic_nsAReadableString@G@@@Z ; 253
??4nsTextFragment@@QAEAAV0@ABV?$basic_nsAReadableString@G@@@Z ; 253
?SetText@nsGenericDOMDataNode@@QAEIPAVnsIContent@@ABV?$basic_nsAReadableString@G@@H@Z ; 253
?SetText@nsTextNode@@UAGIABV?$basic_nsAReadableString@G@@H@Z ; 253
?IsNodeIntersectsRange@@YAHPAVnsIContent@@PAVnsIDOMRange@@@Z ; 253
?GetShiftKey@nsDOMEvent@@UAGIPAH@Z ; 251
?RemoveElement@nsHTMLFormElement@@UAGIPAVnsIFormControl@@@Z ; 248
?AddElement@nsHTMLFormElement@@UAGIPAVnsIFormControl@@@Z ; 248
?getPrefService@nsEventStateManager@@IAEIXZ ; 248
??1nsCSSText@@UAE@XZ ; 246
?NS_NewNameSpaceManager@@YAIPAPAVnsINameSpaceManager@@@Z ; 246
??_EnsCSSText@@UAEPAXI@Z ; 246
??0NameSpaceManagerImpl@@QAE@XZ ; 246
??0nsHTMLInputElement@@QAE@XZ ; 242
??0nsGenericHTMLLeafFormElement@@QAE@XZ ; 242
?GetISupportsValue@nsHTMLValue@@QBEPAVnsISupports@@XZ ; 240
?SetNextHandler@nsXBLPrototypeHandler@@UAGIPAVnsIXBLPrototypeHandler@@@Z ; 239
?NS_NewHTMLInputElement@@YAIPAPAVnsIHTMLContent@@PAVnsINodeInfo@@@Z ; 238
?IncrementModificationCount@nsDocument@@UAGIH@Z ; 238
?GetNestedChildren@nsXBLPrototypeBinding@@IAEXPAVnsIAtom@@PAVnsIContent@@PAPAVnsISupportsArray@@@Z ; 237
?CalcBorderPaddingFor@StyleContextImpl@@UBEXPBVnsIFrame@@AAUnsMargin@@@Z ; 237
??HnsMargin@@QBE?AU0@ABU0@@Z ; 237
?WillInterrupt@HTMLContentSink@@UAGIXZ ; 236
?StringToAttribute@nsHTMLDivElement@@UAGIPAVnsIAtom@@ABV?$basic_nsAReadableString@G@@AAVnsHTMLValue@@@Z ; 235
?IsEditor@nsXBLWindowHandler@@IAEHXZ ; 235
?GetAllHandlers@nsXBLSpecialDocInfo@@QAEXPBDPAPAVnsIXBLPrototypeHandler@@11@Z ; 235
?EnsureHandlers@nsXBLWindowHandler@@MAEIXZ ; 235
?LoadDocInfo@nsXBLSpecialDocInfo@@QAEXXZ ; 235
?ParseStyleAttribute@nsGenericHTMLElement@@QAEIABV?$basic_nsAReadableString@G@@AAVnsHTMLValue@@@Z ; 233
?SetISupportsValue@nsHTMLValue@@QAEXPAVnsISupports@@@Z ; 233
?GetNodeInfoManager@nsDocument@@UAGIAAPAVnsINodeInfoManager@@@Z ; 233
?BeginWriting@?$basic_nsAWritableString@G@@QAEAAV?$nsWritingIterator@G@@AAV2@@Z ; 232
?GetPresShell@DocumentViewerImpl@@UAGIAAPAVnsIPresShell@@@Z ; 231
?FetchFocusOffset@nsTypedSelection@@QAEHXZ ; 231
?FetchFocusNode@nsTypedSelection@@QAEPAVnsIDOMNode@@XZ ; 231
?GetInsertionIndex@nsXBLInsertionPointEntry@@UAGIPAI@Z ; 229
??0?$nsCOMPtr@VnsIContent@@@@QAE@ABV0@@Z ; 228
?GetAttributeMappingFunctions@nsHTMLInputElement@@UBGIAAP6AXPBVnsIHTMLMappedAttributes@@PAVnsIMutableStyleContext@@PAVnsIPresContext@@@Z3@Z ; 227
?ContentOwnsUs@nsRange@@QAEIPAVnsIDOMNode@@@Z ; 224
?AddElementToTable@nsHTMLFormElement@@UAGIPAVnsIFormControl@@ABV?$basic_nsAReadableString@G@@@Z ; 223
?RemoveElementFromTable@nsHTMLFormElement@@UAGIPAVnsIFormControl@@ABV?$basic_nsAReadableString@G@@@Z ; 223
?AddElementToTable@nsFormControlList@@QAEIPAVnsIFormControl@@ABV?$basic_nsAReadableString@G@@@Z ; 223
?RemoveElementFromTable@nsFormControlList@@QAEIPAVnsIFormControl@@ABV?$basic_nsAReadableString@G@@@Z ; 223
?Collapse@nsTypedSelection@@UAGIPAVnsIDOMNode@@H@Z ; 222
?SetOriginalAnchorPoint@nsTypedSelection@@UAGIPAVnsIDOMNode@@H@Z ; 222
??1NameSpaceManagerImpl@@MAE@XZ ; 221
?TriggerLink@nsGenericElement@@QAEIPAVnsIPresContext@@W4nsLinkVerb@@PAVnsIURI@@ABVnsString@@3H@Z ; 221
??_GNameSpaceManagerImpl@@MAEPAXI@Z ; 221
?CallChildren@DocumentViewerImpl@@QAEIP6AXPAVnsIMarkupDocumentViewer@@PAX@Z1@Z ; 220
?GetDocument@DocumentViewerImpl@@UAGIAAPAVnsIDocument@@@Z ; 220
?GetLength@nsContentList@@UAGIPAI@Z ; 214
?ParseBorder@CSSParserImpl@@IAEHAAHPAVnsICSSDeclaration@@0@Z ; 214
?RemoveChildAt@nsXMLProcessingInstruction@@UAGIHH@Z ; 213
?WillResume@HTMLContentSink@@UAGIXZ ; 212
?SetDisplaySelection@nsSelection@@UAGIF@Z ; 212
?RegisterNameSpace@NameSpaceManagerImpl@@UAGIABV?$basic_nsAReadableString@G@@AAH@Z ; 212
?GetMultiple@nsHTMLSelectElement@@UAGIPAH@Z ; 212
?Release@nsAnonymousContentList@@UAGKXZ ; 210
?AddSelectionListener@nsTypedSelection@@UAGIPAVnsISelectionListener@@@Z ; 210
?AppendBackstopStyleSheet@StyleSetImpl@@UAEXPAVnsIStyleSheet@@@Z ; 210
?ScrollRectIntoView@nsTypedSelection@@QAEIPAVnsIScrollableView@@AAUnsRect@@HHH@Z ; 210
?GetDisabled@nsHTMLSelectElement@@UAGIPAH@Z ; 208
?ParseFontWeight@CSSParserImpl@@IAEHAAHAAVnsCSSValue@@@Z ; 204
??0nsCSSDisplay@@QAE@XZ ; 204
?ClearDocRuleProcessors@StyleSetImpl@@IAEXXZ ; 204
??1nsHTMLInputElement@@UAE@XZ ; 202
?QueryInterface@nsBindingManager@@UAGIABUnsID@@PAPAX@Z ; 202
??1nsGenericHTMLLeafFormElement@@UAE@XZ ; 202
??_EnsHTMLInputElement@@UAEPAXI@Z ; 202
?HandleDOMEvent@nsHTMLSelectElement@@UAGIPAVnsIPresContext@@PAUnsEvent@@PAPAVnsIDOMEvent@@IPAW4nsEventStatus@@@Z ; 200
?GetInsertionPointsFor@nsXBLBinding@@UAGIPAVnsIContent@@PAPAVnsISupportsArray@@@Z ; 197
?GetIndexOfStyleSheet@nsDocument@@UAEHPAVnsIStyleSheet@@@Z ; 195
?QueryInterface@nsHTMLObjectElement@@UAGIABUnsID@@PAPAX@Z ; 195
??1nsXBLAttributeEntry@@UAE@XZ ; 194
??_GnsXBLAttributeEntry@@UAEPAXI@Z ; 194
?ForceViewUpdate@nsEventStateManager@@IAEXPAVnsIView@@@Z ; 194
??0nsXBLAttributeEntry@@QAE@PAVnsIAtom@@0PAVnsIContent@@@Z ; 194
?DoWheelScroll@nsEventStateManager@@IAEIPAVnsIPresContext@@PAVnsIFrame@@PAUnsMouseScrollEvent@@HHH@Z ; 194
?RemoveEventListenerByType@nsEventListenerManager@@UAEIPAVnsIDOMEventListener@@ABV?$basic_nsAReadableString@G@@H@Z ; 192
?SetStyleSheet@CSSCharsetRuleImpl@@UAGIPAVnsICSSStyleSheet@@@Z ; 192
?ParseMargin@CSSParserImpl@@IAEHAAHPAVnsICSSDeclaration@@0@Z ; 192
?GetBackstopStyleSheetAt@StyleSetImpl@@UAEPAVnsIStyleSheet@@H@Z ; 187
?ParsePadding@CSSParserImpl@@IAEHAAHPAVnsICSSDeclaration@@0@Z ; 187
?IsInExcludesList@nsXBLBinding@@IAEHPAVnsIAtom@@ABVnsString@@@Z ; 187
??0nsCSSPosition@@QAE@XZ ; 186
?GetNestedInsertionPoint@nsBindingManager@@IAEIPAVnsIContent@@0PAPAV2@@Z ; 181
?GetTopAncestorInRange@nsContentSubtreeIterator@@IAEIV?$nsCOMPtr@VnsIContent@@@@PAV2@@Z ; 180
?SetAttribute@nsGenericHTMLElement@@UAGIPAVnsINodeInfo@@ABV?$basic_nsAReadableString@G@@H@Z ; 179
?QueryInterface@nsHTMLElementFactory@@UAGIABUnsID@@PAPAX@Z ; 177
?GetNameSpace@CSSStyleSheetImpl@@UBGIAAPAVnsINameSpace@@@Z ; 176
?GetChecked@nsHTMLInputElement@@UAGIPAH@Z ; 176
?IndexOf@nsXMLCDATASection@@UBGIPAVnsIContent@@AAH@Z ; 176
?GetNextSibling@nsGenericElement@@UAGIPAPAVnsIDOMNode@@@Z ; 173
?GetNextSibling@nsHTMLInputElement@@UAGIPAPAVnsIDOMNode@@@Z ; 173
?QueryInterface@CSSParserImpl@@UAGIABUnsID@@PAPAX@Z ; 173
?SetMouseDownState@nsSelection@@UAGIH@Z ; 172
?UpdateChildCounts@SinkContext@@QAEXXZ ; 170
?GetMappedAttributeImpact@nsHTMLBodyElement@@UBGIPBVnsIAtom@@AAH@Z ; 170
?StringToAttribute@nsHTMLBodyElement@@UAGIPAVnsIAtom@@ABV?$basic_nsAReadableString@G@@AAVnsHTMLValue@@@Z ; 170
?SetClickCount@nsEventStateManager@@MAGIPAVnsIPresContext@@PAUnsMouseEvent@@PAW4nsEventStatus@@@Z ; 168
?KeyDown@nsXBLWindowKeyHandler@@UAEIPAVnsIDOMEvent@@@Z ; 168
??1nsXBLInsertionPoint@@UAE@XZ ; 167
?NS_NewXBLInsertionPoint@@YAIPAVnsIContent@@IPAPAVnsIXBLInsertionPoint@@@Z ; 167
??0nsXBLInsertionPoint@@QAE@PAVnsIContent@@I@Z ; 167
??_EnsXBLInsertionPoint@@UAEPAXI@Z ; 167
?AlignValueToString@nsGenericHTMLElement@@SAHABVnsHTMLValue@@AAV?$basic_nsAWritableString@G@@@Z ; 166
?CompareBoundaryPoints@nsRange@@UAGIGPAVnsIDOMRange@@PAH@Z ; 166
?ScrollIntoView@nsTypedSelection@@UAGIF@Z ; 166
?KeyUp@nsXBLWindowKeyHandler@@UAEIPAVnsIDOMEvent@@@Z ; 166
?ScrollSelectionIntoView@nsSelection@@UAGIFF@Z ; 166
?length@?$nsCharTraits@G@@SAIPBG@Z ; 164
??0?$basic_nsLiteralString@G@@QAE@PBG@Z ; 164
?KeyPress@nsXBLWindowKeyHandler@@UAEIPAVnsIDOMEvent@@@Z ; 162
?Compare@@YAHABV?$basic_nsAReadableString@D@@0@Z ; 162
?GetViewAncestorOffset@nsTypedSelection@@QAEIPAVnsIView@@0PAH1@Z ; 161
??1StCaretHider@@QAE@XZ ; 160
?MouseUp@nsXBLMouseHandler@@UAEIPAVnsIDOMEvent@@@Z ; 160
?GetSelectionRegionRectAndScrollableView@nsTypedSelection@@QAEIFPAUnsRect@@PAPAVnsIScrollableView@@@Z ; 160
??0StCaretHider@@QAE@PAVnsICaret@@@Z ; 160
?MouseDown@nsXBLMouseHandler@@UAEIPAVnsIDOMEvent@@@Z ; 160
?GetFrameToScrolledViewOffsets@nsTypedSelection@@QAEIPAVnsIScrollableView@@PAVnsIFrame@@PAH2@Z ; 160
??1nsCSSPosition@@UAE@XZ ; 159
?SetAttribute@nsXMLElement@@UAGIABV?$basic_nsAReadableString@G@@0@Z ; 159
?SetAttribute@nsGenericElement@@UAGIABV?$basic_nsAReadableString@G@@0@Z ; 159
??_EnsCSSPosition@@UAEPAXI@Z ; 159
?AddDocStyleSheet@StyleSetImpl@@UAEXPAVnsIStyleSheet@@PAVnsIDocument@@@Z ; 157
?StyleSheetCount@CSSStyleSheetImpl@@UBGIAAH@Z ; 156
?Release@nsDOMImplementation@@UAGKXZ ; 156
?MouseClick@nsXBLMouseHandler@@UAEIPAVnsIDOMEvent@@@Z ; 156
??0CSSStyleSheetImpl@@AAE@ABV0@@Z ; 156
?SetStyleSheet@CSSParserImpl@@UAGIPAVnsICSSStyleSheet@@@Z ; 156
?AddSheet@CSSStyleSheetInner@@UAEXPAVnsICSSStyleSheet@@@Z ; 156
?Parse@CSSParserImpl@@UAGIPAVnsIUnicharInputStream@@PAVnsIURI@@AAPAVnsICSSStyleSheet@@@Z ; 156
?StyleRuleCount@CSSStyleSheetImpl@@UBGIAAH@Z ; 156
?ExecuteHandler@nsXBLPrototypeHandler@@UAGIPAVnsIDOMEventReceiver@@PAVnsIDOMEvent@@@Z ; 155
?QueryInterface@HTMLStyleSheetImpl@@UAGIABUnsID@@PAPAX@Z ; 154
?ProcessSCRIPTTag@HTMLContentSink@@QAEIABVnsIParserNode@@@Z ; 154
?RemoveAllListeners@nsEventListenerManager@@UAEIH@Z ; 154
??_GnsHTMLScriptElement@@UAEPAXI@Z ; 154
??0URLKey@@QAE@PAVnsIURI@@@Z ; 154
?NS_NewHTMLScriptElement@@YAIPAPAVnsIHTMLContent@@PAVnsINodeInfo@@@Z ; 154
??1nsHTMLScriptElement@@UAE@XZ ; 154
??0nsHTMLScriptElement@@QAE@XZ ; 154
?QueryInterface@nsHTMLTextAreaElement@@UAGIABUnsID@@PAPAX@Z ; 153
??1CSSParserImpl@@UAE@XZ ; 152
??0CSSParserImpl@@QAE@XZ ; 152
??_ECSSParserImpl@@UAEPAXI@Z ; 152
??0nsCSSToken@@QAE@XZ ; 152
?NS_NewCSSParser@@YAIPAPAVnsICSSParser@@@Z ; 152
?PreEvaluateScript@HTMLContentSink@@QAEHXZ ; 150
?GetStaticScriptContext@nsContentUtils@@SAIPAUJSContext@@PAUJSObject@@PAPAVnsIScriptContext@@@Z ; 150
?GetStyleRuleProcessor@HTMLStyleSheetImpl@@UAGIAAPAVnsIStyleRuleProcessor@@PAV2@@Z ; 150
?EvaluateScript@HTMLContentSink@@QAEIAAVnsString@@PAVnsIURI@@HPBD@Z ; 150
?PostEvaluateScript@HTMLContentSink@@QAEXH@Z ; 150
?SetBasePrototype@nsXBLPrototypeBinding@@UAGIPAVnsIXBLPrototypeBinding@@@Z ; 149
?GetMappedAttributeImpact@nsHTMLBRElement@@UBGIPBVnsIAtom@@AAH@Z ; 149
?SetBaseBinding@nsXBLBinding@@UAGIPAVnsIXBLBinding@@@Z ; 149
?StringToAttribute@nsHTMLBRElement@@UAGIPAVnsIAtom@@ABV?$basic_nsAReadableString@G@@AAVnsHTMLValue@@@Z ; 148
?Init@HTMLCSSStyleSheetImpl@@UAGIPAVnsIURI@@PAVnsIDocument@@@Z ; 148
??2HTMLStyleSheetImpl@@SAPAXI@Z ; 148
??0GenericTableRule@@QAE@PAVnsIHTMLStyleSheet@@@Z ; 148
?GetPointFromOffset@nsTypedSelection@@QAEIPAVnsIFrame@@HPAUnsPoint@@@Z ; 142
?NotifySelectionChanged@nsDocViwerSelectionListener@@UAGIPAVnsIDOMDocument@@PAVnsISelection@@F@Z ; 141
?SetDocument@nsBodySuper@@UAGIPAVnsIDocument@@HH@Z ; 141
?GetHrefCString@nsHTMLAreaElement@@UAGIAAPAD@Z ; 141
??3HTMLCSSStyleSheetImpl@@SAXPAX@Z ; 140
??1GenericTableRule@@UAE@XZ ; 140
?CreateInstanceByTag@nsHTMLElementFactory@@UAGIPAVnsINodeInfo@@PAPAVnsIContent@@@Z ; 139
?MarkedForDeath@nsXBLBinding@@UAGIPAH@Z ; 138
?GetFirstStyleBinding@nsXBLBinding@@UAGIPAPAVnsIXBLBinding@@@Z ; 138
?Next@nsContentSubtreeIterator@@UAGIXZ ; 138
?EndUpdate@HTMLContentSink@@UAGIPAVnsIDocument@@@Z ; 137
?BeginUpdate@HTMLContentSink@@UAGIPAVnsIDocument@@@Z ; 137
?GetDocumentCharacterSet@nsDocument@@UAGIAAV?$basic_nsAWritableString@G@@@Z ; 137
?GetDynamicScriptContext@nsContentUtils@@SAIPAUJSContext@@PAPAVnsIScriptContext@@@Z ; 134
?GetCallerSourceURL@nsHTMLImageElement@@KAIPAUJSContext@@PAPAVnsIURI@@@Z ; 134
?AddStyleSheet@nsDocument@@UAEXPAVnsIStyleSheet@@@Z ; 134
?InternalAddStyleSheet@nsHTMLDocument@@MAEXPAVnsIStyleSheet@@@Z ; 134
?SetProperty@nsHTMLImageElement@@UAEHPAUJSContext@@PAUJSObject@@JPAJ@Z ; 134
?AddStyleSheetToStyleSets@nsDocument@@UAEXPAVnsIStyleSheet@@@Z ; 134
?SetBindingParent@nsGenericElement@@UAGIPAVnsIContent@@@Z ; 134
?GetDynamicScriptGlobal@nsContentUtils@@SAIPAUJSContext@@PAPAVnsIScriptGlobalObject@@@Z ; 134
??_GnsCSSUserInterface@@UAEPAXI@Z ; 134
??1nsCSSUserInterface@@UAE@XZ ; 134
?SetSrcInner@nsHTMLImageElement@@IAEIPAVnsIURI@@ABV?$basic_nsAReadableString@G@@@Z ; 134
?GetCopyable@DocumentViewerImpl@@UAGIPAH@Z ; 133
?GetMatchingKeyCode@nsXBLPrototypeHandler@@IAEHABVnsString@@@Z ; 133
?RegisterScriptEventListener@nsEventListenerManager@@UAEIPAVnsIScriptContext@@PAVnsIScriptObjectOwner@@PAVnsIAtom@@ABUnsID@@@Z ; 133
?Initialize@nsHTMLImageElement@@UAGIPAUJSContext@@PAUJSObject@@IPAJ@Z ; 132
?SetProperty@nsGenericElement@@UAEHPAUJSContext@@PAUJSObject@@JPAJ@Z ; 131
??0NameSpaceImpl@@QAE@PAVnsINameSpaceManager@@PAV0@PAVnsIAtom@@ABV?$basic_nsAReadableString@G@@@Z ; 131
?CreateChildNameSpace@NameSpaceImpl@@UAGIPAVnsIAtom@@ABV?$basic_nsAReadableString@G@@AAPAVnsINameSpace@@@Z ; 131
?SetDocument@nsGenericHTMLContainerFormElement@@UAGIPAVnsIDocument@@HH@Z ; 130
?GetLocalName@nsGenericHTMLElement@@UAGIAAV?$basic_nsAWritableString@G@@@Z ; 129
?GetLocalName@nsHTMLInputElement@@UAGIAAV?$basic_nsAWritableString@G@@@Z ; 129
??_GnsHTMLAreaElement@@UAEPAXI@Z ; 127
??1nsHTMLAreaElement@@UAE@XZ ; 127
?CreateRootNameSpace@NameSpaceManagerImpl@@UAGIAAPAVnsINameSpace@@@Z ; 127
??0nsHTMLAreaElement@@QAE@XZ ; 127
?ProcessAREATag@HTMLContentSink@@QAEIABVnsIParserNode@@@Z ; 127
?NS_NewHTMLAreaElement@@YAIPAPAVnsIHTMLContent@@PAVnsINodeInfo@@@Z ; 127
??_GnsXBLPrototypeHandler@@UAEPAXI@Z ; 126
?advance@?$nsWritingIterator@G@@QAEAAV1@H@Z ; 126
??1nsXBLPrototypeHandler@@UAE@XZ ; 126
?Focus@nsDocViewerFocusListener@@UAEIPAVnsIDOMEvent@@@Z ; 125
?GetStyleRules@StyleContextImpl@@UBEPAVnsISupportsArray@@XZ ; 125
?Clone@URLKey@@UBEPAVnsHashKey@@XZ ; 124
?GetLastChild@nsHTMLTableCellElement@@UAGIPAPAVnsIDOMNode@@@Z ; 124
??0URLKey@@QAE@ABV0@@Z ; 124
??_EURLKey@@UAEPAXI@Z ; 124
?ImageLibCallBack@nsHTMLImageElement@@KAIPAVnsIPresContext@@PAVnsIFrameImageLoader@@PAVnsIFrame@@PAXI@Z ; 123
?GetDOMDocument@DocumentViewerImpl@@UAGIPAPAVnsIDOMDocument@@@Z ; 121
?RegisterDocumentFactories@nsContentModule@@IAEIPAVnsIComponentManager@@PAVnsIFile@@@Z ; 120
??1nsCSSDisplay@@UAE@XZ ; 116
??_EnsCSSDisplay@@UAEPAXI@Z ; 116
?StringToAttribute@nsHTMLFormElement@@UAGIPAVnsIAtom@@ABV?$basic_nsAReadableString@G@@AAVnsHTMLValue@@@Z ; 116
?ParseTextDecoration@CSSParserImpl@@IAEHAAHAAVnsCSSValue@@@Z ; 115
?Stop@nsAutoScrollTimer@@QAEIXZ ; 114
?SetModified@CSSStyleSheetImpl@@UAGIH@Z ; 114
?NS_NewHTMLParagraphElement@@YAIPAPAVnsIHTMLContent@@PAVnsINodeInfo@@@Z ; 113
??0nsHTMLParagraphElement@@QAE@XZ ; 113
??1nsHTMLParagraphElement@@UAE@XZ ; 113
??_EnsHTMLParagraphElement@@UAEPAXI@Z ; 113
?FillArrayWithAncestors@nsRange@@SAHPAVnsVoidArray@@PAVnsIDOMNode@@@Z ; 112
?GetDocumentLoadGroup@nsDocument@@UBGIPAPAVnsILoadGroup@@@Z ; 112
?NS_NewCSSStyleSheet@@YAIPAPAVnsICSSStyleSheet@@@Z ; 111
??0CSSStyleSheetImpl@@QAE@XZ ; 111
??0CSSStyleSheetInner@@QAE@PAVnsICSSStyleSheet@@@Z ; 111
?Init@CSSStyleSheetImpl@@UAGIPAVnsIURI@@@Z ; 111
?QueryInterface@StyleSetImpl@@UAGIABUnsID@@PAPAX@Z ; 110
?NSDetach@nsRange@@UAGIXZ ; 110
?NS_NewXMLCDATASection@@YAIPAPAVnsIContent@@@Z ; 108
??0nsXMLCDATASection@@QAE@XZ ; 108
?AddCDATASection@nsXMLContentSink@@UAGIABVnsIParserNode@@@Z ; 108
??1nsXMLCDATASection@@UAE@XZ ; 107
??0HTMLColorRule@@QAE@PAVnsIHTMLStyleSheet@@@Z ; 107
??_GnsXMLCDATASection@@UAEPAXI@Z ; 107
?Release@nsFormControlList@@UAGKXZ ; 106
?GetLength@nsFormControlList@@UAGIPAI@Z ; 106
?Blur@nsDocViewerFocusListener@@UAEIPAVnsIDOMEvent@@@Z ; 105
?CloneNode@nsCommentNode@@UAGIHPAPAVnsIDOMNode@@@Z ; 105
??_ECSSStyleSheetInner@@UAEPAXI@Z ; 105
?SetText@nsCommentNode@@UAGIABV?$basic_nsAReadableString@G@@H@Z ; 105
?SetForm@nsGenericHTMLContainerFormElement@@UAGIPAVnsIDOMHTMLFormElement@@@Z ; 105
??1CSSStyleSheetInner@@UAE@XZ ; 105
?Init@nsSelection@@UAGIPAVnsIFocusTracker@@PAVnsIContent@@@Z ; 104
?QueryInterface@nsSelection@@UAGIABUnsID@@PAPAX@Z ; 104
?GetMappedAttributeImpact@nsHTMLSpacerElement@@UBGIPBVnsIAtom@@AAH@Z ; 104
??0nsSelection@@QAE@XZ ; 104
??1nsSelection@@UAE@XZ ; 104
?StringToAttribute@nsHTMLSpacerElement@@UAGIPAVnsIAtom@@ABV?$basic_nsAReadableString@G@@AAVnsHTMLValue@@@Z ; 104
??_EnsSelection@@UAEPAXI@Z ; 104
?NS_NewSelection@@YAIPAPAVnsIFrameSelection@@@Z ; 104
??1HTMLColorRule@@UAE@XZ ; 103
?EnsureDocument@nsEventStateManager@@IAEXPAVnsIPresContext@@@Z ; 103
?QueryInterface@nsHTMLMetaElement@@UAGIABUnsID@@PAPAX@Z ; 102
?GetDefaultCharacterSet@DocumentViewerImpl@@UAGIPAPAG@Z ; 102
?GetForceCharacterSet@DocumentViewerImpl@@UAGIPAPAG@Z ; 102
?Show@DocumentViewerImpl@@UAGIXZ ; 101
?CopyTo@nsTextFragment@@QAEXPAGHH@Z ; 99
?ContentAppended@StyleSetImpl@@UAGIPAVnsIPresContext@@PAVnsIContent@@H@Z ; 99
?ContentAppended@nsBindingManager@@UAGIPAVnsIDocument@@PAVnsIContent@@H@Z ; 99
?HasChildNodes@nsHTMLTableCellElement@@UAGIPAH@Z ; 98
?StopTrackingDragGesture@nsEventStateManager@@IAEXXZ ; 98
?KeyToMask@nsXBLPrototypeHandler@@IAEHH@Z ; 97
?InstantiateInsertionPoint@@YAHPAVnsHashKey@@PAX1@Z ; 97
?SetScriptGlobalObject@nsDocument@@UAGIPAVnsIScriptGlobalObject@@@Z ; 96
?QueryInterface@HTMLContentSink@@UAGIABUnsID@@PAPAX@Z ; 96
?GetStyleSheetAt@nsDocument@@UAEPAVnsIStyleSheet@@H@Z ; 96
?SetOwningDocument@CSSStyleSheetImpl@@UAGIPAVnsIDocument@@@Z ; 96
?DeleteNamedItems@nsHTMLDocument@@IAEXXZ ; 96
?SetAttribute@nsGenericHTMLContainerFormElement@@UAGIHPAVnsIAtom@@ABV?$basic_nsAReadableString@G@@H@Z ; 95
?OpenHTML@HTMLContentSink@@UAGIABVnsIParserNode@@@Z ; 94
?do_GetIOService@@YA?BVnsGetServiceByCID@@PAI@Z ; 94
?Reset@nsContentList@@IAEIXZ ; 94
?SetBounds@DocumentViewerImpl@@UAGIABUnsRect@@@Z ; 94
?NS_NewURI@@YAIPAPAVnsIURI@@PBDPAV1@PAVnsIIOService@@@Z ; 94
?StopAutoScrollTimer@nsTypedSelection@@QAEIXZ ; 93
?StopAutoScrollTimer@nsSelection@@UAGIXZ ; 93
??0nsAnonymousContentList@@QAE@PAVnsISupportsArray@@@Z ; 92
??_EnsAnonymousContentList@@UAEPAXI@Z ; 92
??1nsAnonymousContentList@@UAE@XZ ; 92
?BuildContentLists@@YAHPAVnsHashKey@@PAX1@Z ; 92
?SetMedia@CSSLoaderImpl@@QAEIPAVnsICSSStyleSheet@@ABVnsString@@@Z ; 92
?ClearMedia@CSSStyleSheetImpl@@UAGIXZ ; 92
?GetDefaultChecked@nsHTMLInputElement@@UAGIPAH@Z ; 92
?GetInsertionParent@nsXBLInsertionPoint@@UAGIPAPAVnsIContent@@@Z ; 92
?QueryInterface@nsHTMLTitleElement@@UAGIABUnsID@@PAPAX@Z ; 91
?ModifiersMatchMask@nsXBLPrototypeHandler@@IAEHPAVnsIDOMUIEvent@@@Z ; 91
?QueryInterface@CSSLoaderImpl@@UAGIABUnsID@@PAPAX@Z ; 91
?SetEnabled@CSSStyleSheetImpl@@UAGIH@Z ; 91
?InsertRule@CSSStyleSheetImpl@@UAGIABV?$basic_nsAReadableString@G@@IPAI@Z ; 90
?QueryInterface@nsHTMLTableColGroupElement@@UAGIABUnsID@@PAPAX@Z ; 90
?GetDeepLastChild@nsContentIterator@@KA?AV?$nsCOMPtr@VnsIContent@@@@V2@@Z ; 90
?GetMappedAttributeImpact@nsHTMLSelectElement@@UBGIPBVnsIAtom@@AAH@Z ; 89
?PreventDefault@nsDOMEvent@@UAGIXZ ; 88
?GetHintCharacterSetSource@DocumentViewerImpl@@UAGIPAH@Z ; 88
?Begin@SinkContext@@QAEIW4nsHTMLTag@@PAVnsIHTMLContent@@HH@Z ; 88
??1SinkContext@@QAE@XZ ; 88
?StringToAttribute@nsHTMLSelectElement@@UAGIPAVnsIAtom@@ABV?$basic_nsAReadableString@G@@AAVnsHTMLValue@@@Z ; 88
?GrowStack@SinkContext@@QAEIXZ ; 88
??0SinkContext@@QAE@PAVHTMLContentSink@@@Z ; 88
?SetDocument@nsHTMLMapElement@@UAGIPAVnsIDocument@@HH@Z ; 87
?GetSingleInsertionPoint@nsXBLPrototypeBinding@@UAGIPAVnsIContent@@0PAPAV2@PAIPAH@Z ; 87
?InstantiateInsertionPoints@nsXBLPrototypeBinding@@UAGIPAVnsIXBLBinding@@@Z ; 87
?GetHintCharacterSet@DocumentViewerImpl@@UAGIPAPAG@Z ; 87
?GetNoShade@nsHTMLHRElement@@UAGIPAH@Z ; 87
?GetDetail@nsDOMEvent@@UAGIPAH@Z ; 87
?GetSingleInsertionPoint@nsXBLBinding@@UAGIPAPAVnsIContent@@PAIPAH@Z ; 87
?SetFocusedContent@nsEventStateManager@@UAGIPAVnsIContent@@@Z ; 87
?GetScriptObject@nsGenericHTMLLeafFormElement@@UAGIPAVnsIScriptContext@@PAPAX@Z ; 87
?GetMappedAttributeImpact@nsHTMLIFrameElement@@UBGIPBVnsIAtom@@AAH@Z ; 86
?StringToAttribute@nsHTMLIFrameElement@@UAGIPAVnsIAtom@@ABV?$basic_nsAReadableString@G@@AAVnsHTMLValue@@@Z ; 86
?SetParent@nsGenericHTMLContainerFormElement@@UAGIPAVnsIContent@@@Z ; 86
?GetAnchorNode@nsTypedSelection@@UAGIPAPAVnsIDOMNode@@@Z ; 85
?QueryInterface@nsHTMLParamElement@@UAGIABUnsID@@PAPAX@Z ; 85
??0CSSImportantRule@@QAE@PAVnsICSSStyleSheet@@PAVnsICSSDeclaration@@@Z ; 85
??_GnsHashtable@@UAEPAXI@Z ; 84
?BeginTrackingDragGesture@nsEventStateManager@@IAEXPAUnsGUIEvent@@PAVnsIFrame@@@Z ; 84
?CheckForAndDispatchClick@nsEventStateManager@@MAGIPAVnsIPresContext@@PAUnsMouseEvent@@PAW4nsEventStatus@@@Z ; 84
?SetRootContent@nsDocument@@UAEXPAVnsIContent@@@Z ; 84
?ContentChanged@StyleSetImpl@@UAGIPAVnsIPresContext@@PAVnsIContent@@PAVnsISupports@@@Z ; 84
??0CSSRuleProcessor@@QAE@XZ ; 83
??1RuleCascadeData@@QAE@XZ ; 83
?ClearRuleCascades@CSSRuleProcessor@@UAGIXZ ; 83
??1CSSRuleProcessor@@UAE@XZ ; 83
??0RuleHash@@QAE@XZ ; 83
??_GCSSRuleProcessor@@UAEPAXI@Z ; 83
?ParseAlignValue@nsGenericHTMLElement@@SAHABV?$basic_nsAReadableString@G@@AAVnsHTMLValue@@@Z ; 83
??0RuleCascadeData@@QAE@XZ ; 83
??1RuleHash@@QAE@XZ ; 83
?PopulateSelf@nsContentList@@IAEXXZ ; 82
?DoneAddingContent@nsHTMLSelectElement@@UAGIH@Z ; 82
?ContentAppended@nsHTMLDocument@@UAGIPAVnsIContent@@H@Z ; 82
?ContentAppended@nsDocument@@UAGIPAVnsIContent@@H@Z ; 82
?NotifyAppend@HTMLContentSink@@QAEXPAVnsIContent@@H@Z ; 81
?SetAttribute@nsHTMLUnknownElement@@UAGIHPAVnsIAtom@@ABV?$basic_nsAReadableString@G@@H@Z ; 81
?SetNormalValue@nsCSSValue@@QAEXXZ ; 80
?End@SinkContext@@QAEIXZ ; 80
??0CSSLoaderImpl@@QAE@XZ ; 79
??_GCSSImportantRule@@MAEPAXI@Z ; 79
?Stop@DocumentViewerImpl@@UAGIXZ ; 79
??1CSSImportantRule@@MAE@XZ ; 79
?SetCharset@CSSLoaderImpl@@UAGIABVnsString@@@Z ; 79
?CloneRange@nsRange@@UAGIPAPAVnsIDOMRange@@@Z ; 78
?ContentChanged@nsDocument@@UAGIPAVnsIContent@@PAVnsISupports@@@Z ; 77
?UpdateAllContexts@HTMLContentSink@@QAEXXZ ; 76
??_GCSSLoaderImpl@@UAEPAXI@Z ; 76
??1CSSLoaderImpl@@UAE@XZ ; 76
?ScriptWriteCommon@nsHTMLDocument@@IAEIPAUJSContext@@PAJIH@Z ; 76
?Write@nsHTMLDocument@@UAGIPAUJSContext@@PAJI@Z ; 76
?SetInheritValue@nsCSSValue@@QAEXXZ ; 76
??0nsNodeInfoManager@@QAE@XZ ; 76
?Init@nsNodeInfoManager@@UAGIPAVnsINameSpaceManager@@@Z ; 75
??1nsContentList@@UAE@XZ ; 75
??_GnsContentList@@UAEPAXI@Z ; 75
?GetScriptObject@nsGenericDOMNodeList@@UAGIPAVnsIScriptContext@@PAPAX@Z ; 75
?SetPrototypeBinding@nsXBLDocumentInfo@@UAGIABV?$basic_nsAReadableString@D@@PAVnsIXBLPrototypeBinding@@@Z ; 74
?NS_NewXBLPrototypeBinding@@YAIABV?$basic_nsAReadableString@D@@PAVnsIContent@@PAVnsIXBLDocumentInfo@@PAPAVnsIXBLPrototypeBinding@@@Z ; 74
??0TableBackgroundRule@@QAE@PAVnsIHTMLStyleSheet@@@Z ; 74
?Init@CSSLoaderImpl@@UAGIPAVnsIDocument@@@Z ; 74
?SetBindingElement@nsXBLPrototypeBinding@@UAGIPAVnsIContent@@@Z ; 74
?NS_NewHTMLCSSStyleSheet@@YAIPAPAVnsIHTMLCSSStyleSheet@@@Z ; 74
??0nsBindingManager@@QAE@XZ ; 74
?ParseAtKeyword@nsCSSScanner@@IAEHAAHHAAUnsCSSToken@@@Z ; 74
??0HTMLStyleSheetImpl@@QAE@XZ ; 74
?SetAttribute@nsXMLProcessingInstruction@@UAGIHPAVnsIAtom@@ABV?$basic_nsAReadableString@G@@H@Z ; 74
?ReplaceData@nsGenericDOMDataNode@@QAEIPAVnsIContent@@IIABV?$basic_nsAReadableString@G@@@Z ; 74
??0HTMLCSSStyleSheetImpl@@QAE@XZ ; 74
?NS_NewHTMLStyleSheet@@YAIPAPAVnsIHTMLStyleSheet@@@Z ; 74
??0nsXBLPrototypeBinding@@QAE@ABV?$basic_nsAReadableString@D@@PAVnsIContent@@PAVnsIXBLDocumentInfo@@@Z ; 74
?NS_NewBindingManager@@YAIPAPAVnsIBindingManager@@@Z ; 74
??0TableTHRule@@QAE@PAVnsIHTMLStyleSheet@@@Z ; 74
?NS_NewStreamLoader@@YAIPAPAVnsIStreamLoader@@PAVnsIURI@@PAVnsIStreamLoaderObserver@@PAVnsISupports@@PAVnsILoadGroup@@PAVnsIInterfaceRequestor@@III@Z ; 73
?GetLength@nsAnonymousContentList@@UAGIPAI@Z ; 72
?SetDelayedCaretData@nsSelection@@UAGIPAUnsMouseEvent@@@Z ; 72
?PrepareSheet@CSSLoaderImpl@@QAEIPAVnsICSSStyleSheet@@ABVnsString@@1@Z ; 72
?GetAllowPlugins@DocumentViewerImpl@@UAGIPAH@Z ; 72
?SetTitle@CSSStyleSheetImpl@@UAGIABVnsString@@@Z ; 72
?DropReference@nsDOMAttribute@@UAGIXZ ; 71
?ParseAtRule@CSSParserImpl@@IAEHAAH@Z ; 71
??1HTMLCSSStyleSheetImpl@@MAE@XZ ; 70
??_EnsBindingManager@@UAEPAXI@Z ; 70
?AdjustOffsetsFromStyle@nsSelection@@UAGIPAVnsIFrame@@PAHPAPAVnsIContent@@11@Z ; 70
?FrameOrParentHasSpecialSelectionStyle@nsSelection@@AAEIPAVnsIFrame@@EPAPAV2@@Z ; 70
??_GTableBackgroundRule@@UAEPAXI@Z ; 70
??_ETableTHRule@@UAEPAXI@Z ; 70
??1nsBindingManager@@UAE@XZ ; 70
??1HTMLStyleSheetImpl@@MAE@XZ ; 70
?AttributeToString@nsHTMLSpacerElement@@UBGIPAVnsIAtom@@ABVnsHTMLValue@@AAV?$basic_nsAWritableString@G@@@Z ; 70
?StopDocumentLoad@nsHTMLDocument@@UAGIXZ ; 70
??_GHTMLCSSStyleSheetImpl@@MAEPAXI@Z ; 70
??1TableBackgroundRule@@UAE@XZ ; 70
??1TableTHRule@@UAE@XZ ; 70
?QueryInterface@nsHTMLFrameSetElement@@UAGIABUnsID@@PAPAX@Z ; 70
??_GHTMLStyleSheetImpl@@MAEPAXI@Z ; 70
?GetAnchorOffset@nsTypedSelection@@UAGIPAH@Z ; 69
?QueryInterface@nsHTMLDListElement@@UAGIABUnsID@@PAPAX@Z ; 69
?Init@nsContentList@@IAEXPAVnsIDocument@@@Z ; 69
??_GnsHTMLLIElement@@UAEPAXI@Z ; 68
?SubstringData@nsXMLCDATASection@@UAGIIIAAV?$basic_nsAWritableString@G@@@Z ; 68
?QueryInterface@nsHTMLTableColElement@@UAGIABUnsID@@PAPAX@Z ; 68
??1nsHTMLLIElement@@UAE@XZ ; 68
?TextOwnerChanged@nsRange@@SGIPAVnsIContent@@HHH@Z ; 68
?GetListenerManager@nsDocument@@UAGIPAPAVnsIEventListenerManager@@@Z ; 68
?NS_NewHTMLLIElement@@YAIPAPAVnsIHTMLContent@@PAVnsINodeInfo@@@Z ; 68
?SubstringData@nsGenericDOMDataNode@@QAEIIIAAV?$basic_nsAWritableString@G@@@Z ; 68
??0nsHTMLLIElement@@QAE@XZ ; 68
?EndLoad@nsDocument@@UAGIXZ ; 67
??0nsDocument@@IAE@XZ ; 67
??_GSheetLoadData@@UAEPAXI@Z ; 67
?NS_NewHTMLCSSStyleSheet@@YAIPAPAVnsIHTMLCSSStyleSheet@@PAVnsIURI@@PAVnsIDocument@@@Z ; 67
?StartDocumentLoad@nsDocument@@UAGIPBDPAVnsIChannel@@PAVnsILoadGroup@@PAVnsISupports@@PAPAVnsIStreamListener@@H@Z ; 67
?Init@nsDocument@@IAEIXZ ; 67
??1SheetLoadData@@UAE@XZ ; 67
??0nsMarkupDocument@@QAE@XZ ; 67
?Reset@nsDocument@@UAEIPAVnsIChannel@@PAVnsILoadGroup@@@Z ; 67
?RepaintSelection@nsSelection@@UAGIPAVnsIPresContext@@F@Z ; 67
?Repaint@nsTypedSelection@@UAGIPAVnsIPresContext@@@Z ; 67
?NS_NewCSSLoader@@YAIPAVnsIDocument@@PAPAVnsICSSLoader@@@Z ; 67
?BeginLoad@nsDocument@@UAGIXZ ; 66
?NS_NewCSSStyleSheet@@YAIPAPAVnsICSSStyleSheet@@PAVnsIURI@@@Z ; 66
?CreateElement@nsHTMLDocument@@UAGIABV?$basic_nsAReadableString@G@@PAPAVnsIDOMElement@@@Z ; 66
??1nsXBLPrototypeBinding@@UAE@XZ ; 66
?SheetComplete@CSSLoaderImpl@@QAEIPAVnsICSSStyleSheet@@PAVSheetLoadData@@@Z ; 66
??_EnsXBLPrototypeBinding@@UAEPAXI@Z ; 66
?GetRootForContentSubtree@nsSelection@@AAEIPAVnsIContent@@PAPAV2@@Z ; 66
?WillBuildModel@nsXMLContentSink@@UAGIXZ ; 66
?ParseSheet@CSSLoaderImpl@@QAEIPAVnsIUnicharInputStream@@PAVSheetLoadData@@AAHAAPAVnsICSSStyleSheet@@@Z ; 66
?Cleanup@CSSLoaderImpl@@QAEXAAVURLKey@@PAVSheetLoadData@@@Z ; 66
?SendFocusBlur@nsEventStateManager@@MAGIPAVnsIPresContext@@PAVnsIContent@@@Z ; 65
?IsAlternate@CSSLoaderImpl@@QAEHABVnsString@@@Z ; 65
??_EnsNodeInfoManager@@UAEPAXI@Z ; 65
??1nsNodeInfoManager@@UAE@XZ ; 65
??1nsMarkupDocument@@UAE@XZ ; 64
?GetNewListenerManager@nsDocument@@UAGIPAPAVnsIEventListenerManager@@@Z ; 64
?copy_string@@YAAAV?$nsWritingIterator@G@@AAV?$nsReadingIterator@G@@ABV2@AAV1@@Z ; 64
??1nsDocument@@MAE@XZ ; 64
?MouseDblClick@nsXBLMouseHandler@@UAEIPAVnsIDOMEvent@@@Z ; 64
?Equals@URLKey@@UBEHPBVnsHashKey@@@Z ; 64
?InsertData@nsGenericDOMDataNode@@QAEIPAVnsIContent@@IABV?$basic_nsAReadableString@G@@@Z ; 63
?move@?$nsCharTraits@G@@SAPAGPAGPBGI@Z ; 63
?InsertData@nsXMLCDATASection@@UAGIIABV?$basic_nsAReadableString@G@@@Z ; 63
?Cut@?$basic_nsAWritableString@G@@UAEXII@Z ; 63
?write@?$nsWritingIterator@G@@QAEIPBGI@Z ; 63
?Drop@nsXBLJSClass@@QAEKXZ ; 62
?addTableCellRange@nsTypedSelection@@AAEIPAVnsIDOMRange@@PAH@Z ; 62
?AddRange@nsTypedSelection@@UAGIPAVnsIDOMRange@@@Z ; 62
?NextIdent@CSSParserImpl@@IAEPAVnsString@@AAH@Z ; 62
?AttributeToString@nsHTMLFormElement@@UBGIPAVnsIAtom@@ABVnsHTMLValue@@AAV?$basic_nsAWritableString@G@@@Z ; 61
?GetInsertionPoint@nsXBLBinding@@UAGIPAVnsIContent@@PAPAV2@PAI@Z ; 61
?GetInsertionPoint@nsXBLPrototypeBinding@@UAGIPAVnsIContent@@00PAPAV2@PAI@Z ; 60
?GetText@nsHTMLOptionElement@@UAGIAAV?$basic_nsAWritableString@G@@@Z ; 60
?QueryInterface@nsContentFactory@@UAGIABUnsID@@PAPAX@Z ; 60
?SetDefaultNameSpaceID@CSSStyleSheetImpl@@UAGIH@Z ; 60
??0nsAttrSelector@@QAE@HABVnsString@@@Z ; 60
?CreateChildNameSpace@NameSpaceImpl@@UAGIPAVnsIAtom@@HAAPAVnsINameSpace@@@Z ; 60
?ConstructHandlers@nsXBLPrototypeBinding@@IAEXXZ ; 60
?ParseEnum@CSSParserImpl@@IAEHAAHAAVnsCSSValue@@QBH@Z ; 60
?AddAttribute@nsCSSSelector@@QAEXHABVnsString@@@Z ; 60
?RebuildNameSpaces@CSSStyleSheetInner@@UAEXXZ ; 60
?GetSize@nsHTMLSelectElement@@UAGIPAH@Z ; 59
?GetFirstChild@nsHTMLButtonElement@@UAGIPAPAVnsIDOMNode@@@Z ; 59
?SetAutoValue@nsCSSValue@@QAEXXZ ; 59
?LoadSheet@CSSLoaderImpl@@QAEIAAVURLKey@@PAVSheetLoadData@@@Z ; 58
?GetForms@nsHTMLDocument@@UAGIPAPAVnsIDOMHTMLCollection@@@Z ; 58
??_GHTMLColorRule@@UAEPAXI@Z ; 58
?GetElements@nsHTMLFormElement@@UAGIPAPAVnsIDOMHTMLCollection@@@Z ; 58
?AddImageMap@nsHTMLDocument@@UAGIPAVnsIDOMHTMLMapElement@@@Z ; 58
?RemoveImageMap@nsHTMLDocument@@UAGIPAVnsIDOMHTMLMapElement@@@Z ; 58
?GetMappedAttributeImpact@nsHTMLMapElement@@UBGIPBVnsIAtom@@AAH@Z ; 58
?QueryInterface@nsHTMLLinkElement@@UAGIABUnsID@@PAPAX@Z ; 57
?InsertBefore@nsHTMLSpanElement@@UAGIPAVnsIDOMNode@@0PAPAV2@@Z ; 57
??0nsContentList@@QAE@PAVnsIDocument@@PAVnsIAtom@@HPAVnsIContent@@@Z ; 57
?SetHintCharacterSetSource@DocumentViewerImpl@@UAGIH@Z ; 56
?GetDelayedCaretData@nsSelection@@UAGIPAPAUnsMouseEvent@@@Z ; 56
?GetNodeType@nsHTMLDocument@@UAGIPAG@Z ; 56
?GetNodeType@nsDocument@@UAGIPAG@Z ; 56
?TakeFocus@nsSelection@@EAGIPAVnsIContent@@IIHH@Z ; 56
?NS_NewDocumentViewer@@YAIPAPAVnsIDocumentViewer@@@Z ; 55
?RemoveSelectionListener@nsTypedSelection@@UAGIPAVnsISelectionListener@@@Z ; 55
?ChangeFocus@nsEventStateManager@@IAEHPAVnsIContent@@PAVnsIFrame@@H@Z ; 55
?SetHintCharacterSet@DocumentViewerImpl@@UAGIPBG@Z ; 55
?SetUAStyleSheet@DocumentViewerImpl@@UAGIPAVnsIStyleSheet@@@Z ; 55
??0nsDocViewerFocusListener@@QAE@XZ ; 55
?Init@DocumentViewerImpl@@UAGIPAVnsIWidget@@PAVnsIDeviceContext@@ABUnsRect@@@Z ; 55
??0StyleSetImpl@@QAE@XZ ; 55
??_GnsDocViewerFocusListener@@UAEPAXI@Z ; 55
??_GnsDocViwerSelectionListener@@UAEPAXI@Z ; 55
?SetContainer@DocumentViewerImpl@@UAGIPAVnsISupports@@@Z ; 55
??0StyleContextCache@@QAE@XZ ; 55
?BindToDocument@DocumentViewerImpl@@UAGIPAVnsISupports@@PBD@Z ; 55
?ExecuteDetachedHandlers@nsBindingManager@@UAGIXZ ; 55
?CreateStyleSet@DocumentViewerImpl@@AAEIPAVnsIDocument@@PAPAVnsIStyleSet@@@Z ; 55
?SetForceCharacterSet@DocumentViewerImpl@@UAGIPBG@Z ; 55
?MakeWindow@DocumentViewerImpl@@AAEIPAVnsIWidget@@ABUnsRect@@@Z ; 55
??_EDocumentViewerImpl@@MAEPAXI@Z ; 55
??0DocumentViewerImpl@@QAE@XZ ; 55
??1DocumentViewerImpl@@MAE@XZ ; 55
?MoveCaretToFocus@nsEventStateManager@@IAEIXZ ; 55
?NS_NewStyleSet@@YAIPAPAVnsIStyleSet@@@Z ; 55
??1nsDocViewerFocusListener@@UAE@XZ ; 55
?EnableQuirkStyleSheet@StyleSetImpl@@UAGIH@Z ; 54
??1nsEventStateManager@@UAE@XZ ; 54
?AttributeToString@nsHTMLParagraphElement@@UBGIPAVnsIAtom@@ABVnsHTMLValue@@AAV?$basic_nsAWritableString@G@@@Z ; 54
?DidLoadStyle@CSSLoaderImpl@@QAEXPAVnsIStreamLoader@@PAVnsString@@PAVSheetLoadData@@I@Z ; 54
?SetHasBasePrototype@nsXBLPrototypeBinding@@UAGIH@Z ; 54
?SetDefaultCharacterSet@DocumentViewerImpl@@UAGIPBG@Z ; 54
?RemoveEventListenerByIID@nsDocument@@UAGIPAVnsIDOMEventListener@@ABUnsID@@@Z ; 54
??0nsEventStateManager@@QAE@XZ ; 54
?ConstructRootFrame@StyleSetImpl@@UAGIPAVnsIPresContext@@PAVnsIContent@@AAPAVnsIFrame@@@Z ; 54
?NS_NewEventStateManager@@YAIPAPAVnsIEventStateManager@@@Z ; 54
?SetStyleRuleSupplier@StyleSetImpl@@UAGIPAVnsIStyleRuleSupplier@@@Z ; 54
?OnStreamComplete@SheetLoadData@@UAGIPAVnsIStreamLoader@@PAVnsISupports@@IIPBD@Z ; 54
?GetEnableRendering@DocumentViewerImpl@@UAGIPAH@Z ; 54
??1StyleSetImpl@@MAE@XZ ; 54
??_EStyleSetImpl@@MAEPAXI@Z ; 54
?AddEventListenerByIID@nsDocument@@UAGIPAVnsIDOMEventListener@@ABUnsID@@@Z ; 54
?ConstructInsertionTable@nsXBLPrototypeBinding@@IAEXPAVnsIContent@@@Z ; 54
?Init@nsEventStateManager@@UAGIXZ ; 54
?GetCharset@CSSLoaderImpl@@UBGIAAVnsString@@@Z ; 54
??1StyleContextCache@@QAE@XZ ; 54
?Shutdown@nsEventStateManager@@QAEIXZ ; 54
??_EnsEventStateManager@@UAEPAXI@Z ; 54
?SetCharset@CSSLoaderImpl@@QAEIABVnsString@@0@Z ; 54
?GetXBLDocumentInfo@nsBindingManager@@UAGIABVnsCString@@PAPAVnsIXBLDocumentInfo@@@Z ; 53
?do_GetService@@YA?BVnsGetServiceByCID@@ABUnsID@@PAI@Z ; 53
?LoadComplete@DocumentViewerImpl@@UAGII@Z ; 53
?GetLoadingDocListener@nsBindingManager@@UAGIABVnsCString@@PAPAVnsIStreamListener@@@Z ; 51
?AllocateContents@nsStyleContent@@QAEII@Z ; 51
?ProcessImport@CSSParserImpl@@IAEHAAHABVnsString@@1@Z ; 51
?SetURLSpec@CSSImportRuleImpl@@UAGIABVnsString@@@Z ; 51
?ParseImportRule@CSSParserImpl@@IAEHAAH@Z ; 51
?SetMedia@CSSImportRuleImpl@@UAGIABVnsString@@@Z ; 51
?QueryInterface@CSSImportRuleImpl@@UAGIABUnsID@@PAPAX@Z ; 51
?GatherMedia@CSSParserImpl@@IAEHAAHAAVnsString@@PAVnsISupportsArray@@@Z ; 51
??0CSSImportRuleImpl@@QAE@XZ ; 51
?Unquote@@YAAAVnsString@@AAV1@@Z ; 51
?SetContentAt@nsStyleContent@@QAEIIW4nsStyleContentType@@ABVnsString@@@Z ; 51
??_EnsStyleContentData@@QAEPAXI@Z ; 51
?NS_NewCSSImportRule@@YAIPAPAVnsICSSImportRule@@ABVnsString@@1@Z ; 51
?MayWrap@nsPlainTextSerializer@@IAEHXZ ; 50
?GetAttributeStyleSheet@nsXMLDocument@@UAGIPAPAVnsIHTMLStyleSheet@@@Z ; 50
?LoadChildSheet@CSSLoaderImpl@@UAGIPAVnsICSSStyleSheet@@PAVnsIURI@@ABVnsString@@HH@Z ; 50
?InsertChildSheet@CSSLoaderImpl@@QAEIPAVnsICSSStyleSheet@@0H@Z ; 50
?HandleClick@nsSelection@@UAGIPAVnsIContent@@IIHHH@Z ; 50
?InsertStyleSheetAt@CSSStyleSheetImpl@@UAGIPAVnsICSSStyleSheet@@H@Z ; 50
?InvalidateDesiredX@nsSelection@@AAEXXZ ; 50
?AppendFromReadable@?$basic_nsAWritableString@D@@IAEXABV?$basic_nsAReadableString@D@@@Z ; 49
?ClearOverrideRuleProcessors@StyleSetImpl@@IAEXXZ ; 49
?SetScrollableView@nsSelection@@UAGIPAVnsIScrollableView@@@Z ; 49
?GetContainingNameSpace@nsXMLElement@@UBGIAAPAVnsINameSpace@@@Z ; 49
?ReconstructDocElementHierarchy@StyleSetImpl@@UAGIPAVnsIPresContext@@@Z ; 49
?SetTitle@nsHTMLDocument@@UAGIABV?$basic_nsAReadableString@G@@@Z ; 49
?GetContentStyleRules@nsHTMLBodyElement@@UAGIPAVnsISupportsArray@@@Z ; 49
?ScrollToRef@HTMLContentSink@@QAEXXZ ; 49
?DidBuildModel@HTMLContentSink@@UAGIH@Z ; 49
?EndLoad@nsHTMLDocument@@UAGIXZ ; 49
?GetStrength@BodyFixupRule@@UBGIAAH@Z ; 49
?HandleFixedBackground@BodyFixupRule@@QAEXPAVnsIPresContext@@PAVnsIPresShell@@H@Z ; 49
?MapStyleInto@BodyRule@@UAGIPAVnsIMutableStyleContext@@PAVnsIPresContext@@@Z ; 49
?MapStyleInto@BodyFixupRule@@UAGIPAVnsIMutableStyleContext@@PAVnsIPresContext@@@Z ; 49
?OpenBody@HTMLContentSink@@UAGIABVnsIParserNode@@@Z ; 49
?GetInlineStyleRules@nsHTMLBodyElement@@UAGIPAVnsISupportsArray@@@Z ; 49
?MapFontStyleInto@BodyRule@@UAGIPAVnsIMutableStyleContext@@PAVnsIPresContext@@@Z ; 49
?SetDocumentForegroundColor@HTMLStyleSheetImpl@@UAGII@Z ; 49
?QueryInterface@BodyFixupRule@@UAGIABUnsID@@PAPAX@Z ; 49
?NS_NewHTMLHtmlElement@@YAIPAPAVnsIHTMLContent@@PAVnsINodeInfo@@@Z ; 48
??1nsFormControlList@@UAE@XZ ; 48
?Clear@nsFormControlList@@QAEXXZ ; 48
??1nsHTMLFormElement@@UAE@XZ ; 48
??_GHTMLContentSink@@UAEPAXI@Z ; 48
??_EnsHTMLDocument@@UAEPAXI@Z ; 48
?DeleteShell@nsDocument@@UAEHPAVnsIPresShell@@@Z ; 48
??1HTMLContentSink@@UAE@XZ ; 48
?NS_NewHTMLFormElement@@YAIPAPAVnsIHTMLContent@@PAVnsINodeInfo@@@Z ; 48
?OpenForm@HTMLContentSink@@UAGIABVnsIParserNode@@@Z ; 48
?GetNumberOfBackstopStyleSheets@StyleSetImpl@@UAEHXZ ; 48
?GetNextSibling@nsContentIterator@@IAEIV?$nsCOMPtr@VnsIContent@@@@PAV2@@Z ; 48
?CreateShell@nsMarkupDocument@@UAGIPAVnsIPresContext@@PAVnsIViewManager@@PAVnsIStyleSet@@PAPAVnsIPresShell@@@Z ; 48
??1nsHTMLHeadElement@@UAE@XZ ; 48
??0nsHTMLDocument@@QAE@XZ ; 48
?CreateShell@nsHTMLDocument@@UAGIPAVnsIPresContext@@PAVnsIViewManager@@PAVnsIStyleSet@@PAPAVnsIPresShell@@@Z ; 48
??_EnsHTMLFormElement@@UAEPAXI@Z ; 48
??_EnsHTMLHeadElement@@UAEPAXI@Z ; 48
??0nsHTMLHtmlElement@@QAE@XZ ; 48
?Reset@nsHTMLDocument@@UAEIPAVnsIChannel@@PAVnsILoadGroup@@@Z ; 48
??0HTMLContentSink@@QAE@XZ ; 48
??1nsHTMLDocument@@UAE@XZ ; 48
?AddCharSetObserver@nsDocument@@UAGIPAVnsIObserver@@@Z ; 48
?SetDocumentCharacterSet@nsDocument@@UAGIABV?$basic_nsAReadableString@G@@@Z ; 48
??0nsHTMLFormElement@@QAE@XZ ; 48
?Init@HTMLContentSink@@QAEIPAVnsIDocument@@PAVnsIURI@@PAVnsIWebShell@@@Z ; 48
?NS_NewHTMLContentSink@@YAIPAPAVnsIHTMLContentSink@@PAVnsIDocument@@PAVnsIURI@@PAVnsIWebShell@@@Z ; 48
??_EnsHTMLHtmlElement@@UAEPAXI@Z ; 48
?SetParser@HTMLContentSink@@UAGIPAVnsIParser@@@Z ; 48
?GetURL@CSSStyleSheetImpl@@UBGIAAPAVnsIURI@@@Z ; 48
??_EnsFormControlList@@UAEPAXI@Z ; 48
?AddComment@nsXMLContentSink@@UAGIABVnsIParserNode@@@Z ; 48
?GetElementCount@nsHTMLFormElement@@UBGIPAI@Z ; 48
?NS_NewHTMLDocument@@YAIPAPAVnsIDocument@@@Z ; 48
?NS_NewHTMLHeadElement@@YAIPAPAVnsIHTMLContent@@PAVnsINodeInfo@@@Z ; 48
?SetForm@nsFormControlList@@QAEXPAVnsIDOMHTMLFormElement@@@Z ; 48
??1nsHTMLHtmlElement@@UAE@XZ ; 48
?StartLayout@HTMLContentSink@@QAEXXZ ; 48
??0nsHTMLHeadElement@@QAE@XZ ; 48
?StartDocumentLoad@nsHTMLDocument@@UAGIPBDPAVnsIChannel@@PAVnsILoadGroup@@PAVnsISupports@@PAPAVnsIStreamListener@@H@Z ; 48
??0nsFormControlList@@QAE@PAVnsIDOMHTMLFormElement@@@Z ; 48
??_ECSSImportRuleImpl@@UAEPAXI@Z ; 48
??1CSSImportRuleImpl@@UAE@XZ ; 48
??1nsHTMLBodyElement@@UAE@XZ ; 47
?BindingReady@nsXBLService@@UAGIPAVnsIContent@@ABVnsCString@@PAH@Z ; 47
?DocumentLoaded@nsXBLBindingRequest@@QAEXPAVnsIDocument@@@Z ; 47
?NotifyStyleSheetStateChanged@StyleSetImpl@@UAGIH@Z ; 47
??1nsBodySuper@@UAE@XZ ; 47
?PreventBubble@nsDOMEvent@@UAGIXZ ; 47
??0nsHTMLBodyElement@@QAE@XZ ; 47
??_EnsHTMLBodyElement@@UAEPAXI@Z ; 47
?GetScriptObject@nsCommentNode@@UAGIPAVnsIScriptContext@@PAPAX@Z ; 47
??0nsXBLBindingRequest@@QAE@ABVnsCString@@PAVnsIContent@@@Z ; 47
?GetScriptObject@nsGenericDOMDataNode@@QAEIPAVnsIContent@@PAVnsIScriptContext@@PAPAX@Z ; 47
?GetCharacterSet@nsDocument@@UAGIAAV?$basic_nsAWritableString@G@@@Z ; 47
?CloseForm@HTMLContentSink@@UAGIABVnsIParserNode@@@Z ; 47
?NS_NewHTMLBodyElement@@YAIPAPAVnsIHTMLContent@@PAVnsINodeInfo@@@Z ; 47
?ClearRuleProcessors@StyleSetImpl@@IAEXXZ ; 47
??1nsXBLBindingRequest@@QAE@XZ ; 47
?RefreshIfEnabled@HTMLContentSink@@QAEIPAVnsIViewManager@@@Z ; 47
??0nsBodySuper@@QAE@XZ ; 47
?GetName@nsHTMLAnchorElement@@UAGIAAV?$basic_nsAWritableString@G@@@Z ; 47
?AddRequest@nsXBLStreamListener@@QAEXPAUnsXBLBindingRequest@@@Z ; 47
?GetNodeInfo@nsNodeInfoManager@@UAGIABV?$basic_nsAReadableString@G@@00AAPAVnsINodeInfo@@@Z ; 47
?CloseHTML@HTMLContentSink@@UAGIABVnsIParserNode@@@Z ; 46
??0HTMLDocumentColorRule@@QAE@PAVnsIHTMLStyleSheet@@@Z ; 46
?GetInsertionPointAt@nsAnonymousContentList@@UAGIIPAPAVnsIXBLInsertionPoint@@@Z ; 46
??0BodyFixupRule@@QAE@PAVnsHTMLBodyElement@@PAVnsIHTMLCSSStyleSheet@@@Z ; 46
?getTableCellLocationFromRange@nsTypedSelection@@AAEIPAVnsIDOMRange@@PAH11@Z ; 46
?GetTableSelectionType@nsTypedSelection@@UAGIPAVnsIDOMRange@@PAH@Z ; 46
??0BodyRule@@QAE@PAVnsHTMLBodyElement@@PAVnsIHTMLStyleSheet@@@Z ; 46
?CloseBody@HTMLContentSink@@UAGIABVnsIParserNode@@@Z ; 46
?RemoveAllRanges@nsTypedSelection@@UAGIXZ ; 46
??_GHTMLDocumentColorRule@@UAEPAXI@Z ; 45
??1BodyRule@@UAE@XZ ; 45
??1BodyFixupRule@@UAE@XZ ; 45
??_EBodyFixupRule@@UAEPAXI@Z ; 45
??1HTMLDocumentColorRule@@UAE@XZ ; 45
??_EBodyRule@@UAEPAXI@Z ; 45
?ResetModificationCount@nsDocument@@UAGIXZ ; 45
?RemoveBackstopStyleSheet@StyleSetImpl@@UAEXPAVnsIStyleSheet@@@Z ; 45
?GetDefaultValue@nsHTMLInputElement@@UAGIAAV?$basic_nsAWritableString@G@@@Z ; 45
?GetStyleRuleAt@CSSStyleSheetImpl@@UBGIHAAPAVnsICSSRule@@@Z ; 45
??_GnsXBLMouseHandler@@UAEPAXI@Z ; 44
??0nsHTMLValue@@QAE@HW4nsHTMLUnit@@@Z ; 44
?ReadSegments@nsProxyStream@@UAGIP6GIPAVnsIInputStream@@PAXPBDIIPAI@Z1I3@Z ; 44
??0nsXBLMouseHandler@@QAE@PAVnsIDOMEventReceiver@@PAVnsIXBLPrototypeHandler@@@Z ; 44
??0nsCSSValueList@@QAE@XZ ; 44
?QueryInterface@nsHTMLFrameElement@@UAGIABUnsID@@PAPAX@Z ; 44
?NS_NewXBLMouseHandler@@YAIPAVnsIDOMEventReceiver@@PAVnsIXBLPrototypeHandler@@PAPAVnsXBLMouseHandler@@@Z ; 44
??1nsXBLMouseHandler@@UAE@XZ ; 44
??0nsGenericHTMLContainerFormElement@@QAE@XZ ; 43
?Right@?$basic_nsAReadableString@G@@QBEIAAV?$basic_nsAWritableString@G@@I@Z ; 43
?HashValue@BodyRule@@UBGIAAI@Z ; 42
?ParseBackground@CSSParserImpl@@IAEHAAHPAVnsICSSDeclaration@@0@Z ; 42
?Extend@nsTypedSelection@@UAGIPAVnsIDOMNode@@H@Z ; 42
?QueryInterface@nsXBLStreamListener@@UAGIABUnsID@@PAPAX@Z ; 42
??0nsGenericDOMHTMLCollection@@QAE@XZ ; 41
??0nsHTMLSelectElement@@QAE@XZ ; 41
??0nsHTMLOptionCollection@@QAE@PAVnsHTMLSelectElement@@@Z ; 41
?Init@nsHTMLSelectElement@@UAGIXZ ; 41
?GetNameSpaceID@nsGenericElement@@UBGIAAH@Z ; 41
?GetCurrentContainer@SinkContext@@QAEPAVnsIHTMLContent@@XZ ; 41
?NS_NewHTMLSelectElement@@YAIPAPAVnsIHTMLContent@@PAVnsINodeInfo@@@Z ; 41
?SetScriptObject@nsDocument@@UAGIPAX@Z ; 40
?DropReference@nsHTMLOptionCollection@@QAEXXZ ; 40
?ParseTableHAlignValue@nsGenericHTMLElement@@QBEHABV?$basic_nsAReadableString@G@@AAVnsHTMLValue@@@Z ; 40
?OpenHead@HTMLContentSink@@UAGIABVnsIParserNode@@@Z ; 40
?GetFirstChild@nsHTMLTableCellElement@@UAGIPAPAVnsIDOMNode@@@Z ; 39
?CloseHead@HTMLContentSink@@UAGIABVnsIParserNode@@@Z ; 39
??1nsHTMLSpacerElement@@UAE@XZ ; 39
??0?$nsCOMPtr@VnsISupports@@@@QAE@PAVnsISupports@@@Z ; 39
??_GnsHTMLSpacerElement@@UAEPAXI@Z ; 39
?GetAttributeMappingFunctions@nsHTMLSpacerElement@@UBGIAAP6AXPBVnsIHTMLMappedAttributes@@PAVnsIMutableStyleContext@@PAVnsIPresContext@@@Z3@Z ; 39
?QueryInterface@nsHTMLEmbedElement@@UAGIABUnsID@@PAPAX@Z ; 39
?NS_NewHTMLSpacerElement@@YAIPAPAVnsIHTMLContent@@PAVnsINodeInfo@@@Z ; 39
??0nsHTMLSpacerElement@@QAE@XZ ; 39
?GetAttributeMappingFunctions@nsHTMLBRElement@@UBGIAAP6AXPBVnsIHTMLMappedAttributes@@PAVnsIMutableStyleContext@@PAVnsIPresContext@@@Z3@Z ; 39
?ParseCursor@CSSParserImpl@@IAEHAAHPAVnsICSSDeclaration@@0@Z ; 38
?Release@nsDOMDocumentType@@UAGKXZ ; 38
?AddRef@nsXMLContentSink@@UAGKXZ ; 38
?NS_NewHTMLMetaElement@@YAIPAPAVnsIHTMLContent@@PAVnsINodeInfo@@@Z ; 37
??_EnsHTMLMetaElement@@UAEPAXI@Z ; 37
?ScrollPointIntoClipView@nsTypedSelection@@QAEIPAVnsIPresContext@@PAVnsIView@@AAUnsPoint@@PAH@Z ; 37
?ConstrainFrameAndPointToAnchorSubtree@nsSelection@@AAEIPAVnsIPresContext@@PAVnsIFrame@@AAUnsPoint@@PAPAV3@2@Z ; 37
??0nsHTMLMetaElement@@QAE@XZ ; 37
??1nsHTMLMetaElement@@UAE@XZ ; 37
?StartAutoScrollTimer@nsSelection@@UAGIPAVnsIPresContext@@PAVnsIFrame@@AAUnsPoint@@I@Z ; 37
?InsertSheetInDoc@CSSLoaderImpl@@QAEIPAVnsICSSStyleSheet@@HPAVnsIContent@@HPAVnsICSSLoaderObserver@@@Z ; 37
?StartAutoScrollTimer@nsTypedSelection@@QAEIPAVnsIPresContext@@PAVnsIFrame@@AAUnsPoint@@I@Z ; 37
?DoAutoScroll@nsTypedSelection@@QAEIPAVnsIPresContext@@PAVnsIFrame@@AAUnsPoint@@@Z ; 37
?ScrollPointIntoView@nsTypedSelection@@QAEIPAVnsIPresContext@@PAVnsIView@@AAUnsPoint@@HPAH@Z ; 37
?Release@nsXMLContentSink@@UAGKXZ ; 37
?GetTitle@CSSStyleSheetImpl@@UBGIAAVnsString@@@Z ; 37
?ProcessMETATag@HTMLContentSink@@QAEIABVnsIParserNode@@@Z ; 37
?DoAutoScrollView@nsTypedSelection@@QAEIPAVnsIPresContext@@PAVnsIView@@AAUnsPoint@@H@Z ; 37
?HandleDrag@nsSelection@@UAGIPAVnsIPresContext@@PAVnsIFrame@@AAUnsPoint@@@Z ; 37
?Clone@CSSStyleSheetImpl@@UBGIAAPAVnsICSSStyleSheet@@@Z ; 36
?StringToAttribute@nsHTMLTableSectionElement@@UAGIPAVnsIAtom@@ABV?$basic_nsAReadableString@G@@AAVnsHTMLValue@@@Z ; 36
?SetLastModified@nsHTMLDocument@@UAGIABV?$basic_nsAReadableString@G@@@Z ; 35
?SetReferrer@nsHTMLDocument@@UAGIABV?$basic_nsAReadableString@G@@@Z ; 35
?GetMappedAttributeImpact@nsHTMLHRElement@@UBGIPBVnsIAtom@@AAH@Z ; 35
?HasRequest@nsXBLStreamListener@@QAEHABVnsCString@@PAVnsIContent@@@Z ; 35
??1nsHTMLElementFactory@@UAE@XZ ; 34
??_EnsHTMLElementFactory@@UAEPAXI@Z ; 34
?NS_NewHTMLElementFactory@@YAIPAPAVnsIElementFactory@@@Z ; 34
??0nsHTMLElementFactory@@QAE@XZ ; 34
?GetCurrentContent@nsHTMLFragmentContentSink@@QAEPAVnsIContent@@XZ ; 33
?LoadStyleLink@CSSLoaderImpl@@UAGIPAVnsIContent@@PAVnsIURI@@ABVnsString@@2HHPAVnsIParser@@AAHPAVnsICSSLoaderObserver@@@Z ; 33
?Resolve@nsHTMLImageElement@@UAEHPAUJSContext@@PAUJSObject@@JPAH@Z ; 33
?RemoveHTMLAttribute@HTMLAttribute@@SAHPAVnsIAtom@@PAPAU1@@Z ; 33
??0SheetLoadData@@QAE@PAVCSSLoaderImpl@@PAVnsIURI@@ABVnsString@@2HPAVnsIContent@@HPAVnsIParser@@HPAVnsICSSLoaderObserver@@@Z ; 32
?SerializeRangeNodes@nsDocumentEncoder@@IAEIPAVnsIDOMRange@@PAVnsIDOMNode@@AAV?$basic_nsAWritableString@G@@H@Z ; 32
?Release@nsPlainTextSerializer@@UAGKXZ ; 32
?QueryInterface@nsPlainTextSerializer@@UAGIABUnsID@@PAPAX@Z ; 32
?GetAttributeMappingFunctions@nsGenericHTMLElement@@UBGIAAP6AXPBVnsIHTMLMappedAttributes@@PAVnsIMutableStyleContext@@PAVnsIPresContext@@@Z3@Z ; 31
?GetAttributeMappingFunctions@nsHTMLBodyElement@@UBGIAAP6AXPBVnsIHTMLMappedAttributes@@PAVnsIMutableStyleContext@@PAVnsIPresContext@@@Z3@Z ; 31
?InsertBefore@nsDocument@@UAGIPAVnsIDOMNode@@0PAPAV2@@Z ; 31
?SetStyleSheet@nsHTMLMappedAttributes@@UAGIPAVnsIHTMLStyleSheet@@@Z ; 31
??0nsContentFactory@@QAE@ABUnsID@@@Z ; 30
??0SheetLoadData@@QAE@PAVCSSLoaderImpl@@PAVnsIURI@@ABVnsString@@HPAVnsICSSStyleSheet@@H@Z ; 30
?GetClassObject@nsContentModule@@UAGIPAVnsIComponentManager@@ABUnsID@@1PAPAX@Z ; 30
?SetTitle@HTMLContentSink@@UAGIABVnsString@@@Z ; 30
?StringToAttribute@nsHTMLHRElement@@UAGIPAVnsIAtom@@ABV?$basic_nsAReadableString@G@@AAVnsHTMLValue@@@Z ; 30
??_GnsHTMLHRElement@@UAEPAXI@Z ; 29
?NS_NewHTMLHRElement@@YAIPAPAVnsIHTMLContent@@PAVnsINodeInfo@@@Z ; 29
?ProcessMAPTag@HTMLContentSink@@QAEIABVnsIParserNode@@PAVnsIHTMLContent@@@Z ; 29
?CloseMap@HTMLContentSink@@UAGIABVnsIParserNode@@@Z ; 29
??0nsHTMLMapElement@@QAE@XZ ; 29
?GetValue@nsHTMLInputElement@@UAGIAAV?$basic_nsAWritableString@G@@@Z ; 29
??_EnsHTMLMapElement@@UAEPAXI@Z ; 29
?NS_NewHTMLMapElement@@YAIPAPAVnsIHTMLContent@@PAVnsINodeInfo@@@Z ; 29
?OpenMap@HTMLContentSink@@UAGIABVnsIParserNode@@@Z ; 29
??1nsHTMLHRElement@@UAE@XZ ; 29
??0nsHTMLHRElement@@QAE@XZ ; 29
??1nsHTMLMapElement@@UAE@XZ ; 29
?NS_OpenURI@@YAIPAPAVnsIChannel@@PAVnsIURI@@PAVnsIIOService@@PAVnsILoadGroup@@PAVnsIInterfaceRequestor@@III@Z ; 29
??_EnsHTMLTitleElement@@UAEPAXI@Z ; 28
??1nsHTMLTitleElement@@UAE@XZ ; 28
??0nsHTMLTitleElement@@QAE@XZ ; 28
?NS_NewHTMLTitleElement@@YAIPAPAVnsIHTMLContent@@PAVnsINodeInfo@@@Z ; 28
?QueryInterface@nsHTMLStyleElement@@UAGIABUnsID@@PAPAX@Z ; 27
?FlushPendingNotifications@HTMLContentSink@@UAGIXZ ; 27
?OpenNoscript@HTMLContentSink@@UAGIABVnsIParserNode@@@Z ; 27
?CloseNoscript@HTMLContentSink@@UAGIABVnsIParserNode@@@Z ; 27
?ParseDivAlignValue@nsGenericHTMLElement@@QBEHABV?$basic_nsAReadableString@G@@AAVnsHTMLValue@@@Z ; 27
?NS_NewHTMLUnknownElement@@YAIPAPAVnsIHTMLContent@@PAVnsINodeInfo@@@Z ; 26
?ConstructInterfaceTable@nsXBLPrototypeBinding@@IAEXPAVnsIContent@@@Z ; 26
??0nsHTMLUnknownElement@@QAE@XZ ; 26
?QueryInterface@nsAnonymousContentList@@UAGIABUnsID@@PAPAX@Z ; 26
??_EnsHTMLUnknownElement@@UAEPAXI@Z ; 26
??1nsHTMLUnknownElement@@UAE@XZ ; 26
?GetInsertionPointCount@nsAnonymousContentList@@UAGIPAI@Z ; 26
?AppendChild@nsDocument@@UAGIPAVnsIDOMNode@@PAPAV2@@Z ; 25
?StringToAttribute@nsHTMLParagraphElement@@UAGIPAVnsIAtom@@ABV?$basic_nsAReadableString@G@@AAVnsHTMLValue@@@Z ; 25
?IsModified@CSSStyleSheetImpl@@UBGIPAH@Z ; 25
?Destroy@nsXBLJSClass@@AAEKXZ ; 25
?SetScriptObject@nsGenericDOMDataNode@@QAEIPAX@Z ; 25
?SetScriptObject@nsCommentNode@@UAGIPAX@Z ; 25
?SetLinkColor@HTMLStyleSheetImpl@@UAGII@Z ; 25
?SetStyleSheet@nsHTMLStyleElement@@UAGIPAVnsIStyleSheet@@@Z ; 24
?SetVisitedLinkColor@HTMLStyleSheetImpl@@UAGII@Z ; 24
??1nsCSSValueList@@QAE@XZ ; 23
??0nsXBLJSClass@@QAE@ABVnsCString@@@Z ; 22
?Equals@nsNodeInfo@@UAGHABV?$basic_nsAReadableString@G@@@Z ; 22
?ContentAppended@nsContentList@@UAGIPAVnsIDocument@@PAVnsIContent@@H@Z ; 22
??1nsGenericHTMLContainerFormElement@@UAE@XZ ; 22
?SetBaseTag@nsXBLPrototypeBinding@@UAGIHPAVnsIAtom@@@Z ; 21
?AddText@nsHTMLFragmentContentSink@@QAEIABV?$basic_nsAReadableString@G@@@Z ; 21
?AddLeaf@nsHTMLFragmentContentSink@@UAGIABVnsIParserNode@@@Z ; 21
?SetActiveLinkColor@HTMLStyleSheetImpl@@UAGII@Z ; 21
?BuildHandlerChain@nsXBLService@@SAIPAVnsIContent@@PAPAVnsIXBLPrototypeHandler@@1@Z ; 21
?GetName@nsHTMLInputElement@@UAGIAAV?$basic_nsAWritableString@G@@@Z ; 21
?GetURLSpec@CSSNameSpaceRuleImpl@@UBGIAAVnsString@@@Z ; 20
?QueryInterface@CSSNameSpaceRuleImpl@@UAGIABUnsID@@PAPAX@Z ; 20
?FetchAnchorNode@nsTypedSelection@@QAEPAVnsIDOMNode@@XZ ; 20
??0CSSNameSpaceRuleImpl@@QAE@XZ ; 20
??_GnsHTMLSelectElement@@UAEPAXI@Z ; 20
?SetURLSpec@CSSNameSpaceRuleImpl@@UAGIABVnsString@@@Z ; 20
?GetStyleSheet@nsHTMLStyleElement@@UAGIAAPAVnsIStyleSheet@@@Z ; 20
?ParseNameSpaceRule@CSSParserImpl@@IAEHAAH@Z ; 20
?ProcessNameSpace@CSSParserImpl@@IAEHAAHABVnsString@@1@Z ; 20
?InsertBefore@nsHTMLLegendElement@@UAGIPAVnsIDOMNode@@0PAPAV2@@Z ; 20
??_EnsHTMLOptionCollection@@UAEPAXI@Z ; 20
??1nsHTMLOptionCollection@@UAE@XZ ; 20
?GetOwnerDocument@nsCommentNode@@UAGIPAPAVnsIDOMDocument@@@Z ; 20
??1nsGenericDOMHTMLCollection@@UAE@XZ ; 20
??1nsHTMLSelectElement@@UAE@XZ ; 20
?GetOwnerDocument@nsGenericDOMDataNode@@QAEIPAPAVnsIDOMDocument@@@Z ; 20
?MapImageAlignAttributeInto@nsGenericHTMLElement@@SAXPBVnsIHTMLMappedAttributes@@PAVnsIMutableStyleContext@@PAVnsIPresContext@@@Z ; 20
?NS_NewCSSNameSpaceRule@@YAIPAPAVnsICSSNameSpaceRule@@PAVnsIAtom@@ABVnsString@@@Z ; 20
?FetchAnchorOffset@nsTypedSelection@@QAEHXZ ; 20
?OnStreamComplete@HTMLContentSink@@UAGIPAVnsIStreamLoader@@PAVnsISupports@@IIPBD@Z ; 19
?SetDefaultStylesheets@nsXMLDocument@@UAGIPAVnsIURI@@@Z ; 19
?NS_NewXMLContentSink@@YAIPAPAVnsIXMLContentSink@@PAVnsIDocument@@PAVnsIURI@@PAVnsIWebShell@@@Z ; 19
?Reset@nsXMLDocument@@UAEIPAVnsIChannel@@PAVnsILoadGroup@@@Z ; 19
?GetCSSLoader@nsXMLDocument@@UAGIAAPAVnsICSSLoader@@@Z ; 19
?NS_NewXMLDocument@@YAIPAPAVnsIDocument@@@Z ; 19
?FetchBindingDocument@nsXBLService@@UAGIPAVnsIContent@@PAVnsIDocument@@PAVnsIURI@@ABVnsCString@@HPAPAV3@@Z ; 19
?StartDocumentLoad@nsXMLDocument@@UAGIPBDPAVnsIChannel@@PAVnsILoadGroup@@PAVnsISupports@@PAPAVnsIStreamListener@@H@Z ; 19
?Resolve@nsHTMLFormElement@@UAEHPAUJSContext@@PAUJSObject@@JPAH@Z ; 19
??0nsXMLContentSink@@QAE@XZ ; 19
?Init@nsXMLContentSink@@QAEIPAVnsIDocument@@PAVnsIURI@@PAVnsIWebShell@@@Z ; 19
??0nsXMLDocument@@QAE@XZ ; 19
?FlushText@nsHTMLFragmentContentSink@@QAEIXZ ; 19
?QueryInterface@nsXMLContentSink@@UAGIABUnsID@@PAPAX@Z ; 19
?AddPrincipal@nsDocument@@UAGIPAVnsIPrincipal@@@Z ; 19
?SetParser@nsXMLContentSink@@UAGIPAVnsIParser@@@Z ; 19
?AddNameSet@ContentScriptNameSet@@UAGIPAVnsIScriptContext@@@Z ; 18
?SetScriptAccess@nsXBLDocumentInfo@@UAGIH@Z ; 18
??1nsXMLContentSink@@UAE@XZ ; 18
?GetAttributeMappingFunctions@nsHTMLParagraphElement@@UBGIAAP6AXPBVnsIHTMLMappedAttributes@@PAVnsIMutableStyleContext@@PAVnsIPresContext@@@Z3@Z ; 18
?NS_NewXBLDocumentInfo@@YAIPAVnsIDocument@@PAPAVnsIXBLDocumentInfo@@@Z ; 18
??0nsXBLDocumentInfo@@QAE@PBDPAVnsIDocument@@@Z ; 18
?GetImageMap@nsHTMLDocument@@UAGIABVnsString@@PAPAVnsIDOMHTMLMapElement@@@Z ; 18
?ScrollToRef@nsXMLContentSink@@IAEXXZ ; 18
?Matches@nsXBLInsertionPoint@@UAGIPAVnsIContent@@IPAH@Z ; 18
?QueryInterface@nsHTMLBaseElement@@UAGIABUnsID@@PAPAX@Z ; 18
?SkipUntil@CSSParserImpl@@IAEXAAHG@Z ; 18
?StartLayout@nsXMLContentSink@@IAEXXZ ; 18
?DidBuildModel@nsXMLContentSink@@UAGIH@Z ; 18
?GetNameSpaceManager@nsDocument@@UAGIAAPAVnsINameSpaceManager@@@Z ; 18
??_EnsXMLContentSink@@UAEPAXI@Z ; 18
?QueryInterface@nsXBLFocusHandler@@UAGIABUnsID@@PAPAX@Z ; 18
?EndLoad@nsXMLDocument@@UAGIXZ ; 18
?CreateTextNode@nsHTMLDocument@@UAGIABV?$basic_nsAReadableString@G@@PAPAVnsIDOMText@@@Z ; 17
?AddToLine@nsPlainTextSerializer@@IAEXPBGH@Z ; 17
?InsertStyleSheetAt@nsDocument@@UAGIPAVnsIStyleSheet@@HH@Z ; 17
?InternalInsertStyleSheetAt@nsXMLDocument@@MAEXPAVnsIStyleSheet@@H@Z ; 17
?StyleSheetLoaded@HTMLContentSink@@UAGIPAVnsICSSStyleSheet@@H@Z ; 17
?IsAncestorContainer@SinkContext@@QAEHW4nsHTMLTag@@@Z ; 17
?CreateTextNode@nsDocument@@UAGIABV?$basic_nsAReadableString@G@@PAPAVnsIDOMText@@@Z ; 17
?SetOwningNode@CSSStyleSheetImpl@@UAGIPAVnsIDOMNode@@@Z ; 17
?GetAttributeMappingFunctions@nsHTMLSelectElement@@UBGIAAP6AXPBVnsIHTMLMappedAttributes@@PAVnsIMutableStyleContext@@PAVnsIPresContext@@@Z3@Z ; 17
?GetEventTarget@nsEventStateManager@@UAGIPAPAVnsIFrame@@@Z ; 16
?NS_NewHTMLHeadingElement@@YAIPAPAVnsIHTMLContent@@PAVnsINodeInfo@@@Z ; 16
?FlushText@nsDocumentEncoder@@IAEIAAV?$basic_nsAWritableString@G@@H@Z ; 16
?SetNext@nsXBLAttributeEntry@@UAGIPAVnsIXBLAttributeEntry@@@Z ; 16
??0nsPlainTextSerializer@@QAE@XZ ; 16
??_EnsDocumentEncoder@@UAEPAXI@Z ; 16
?QueryInterface@nsDocumentEncoder@@UAGIABUnsID@@PAPAX@Z ; 16
?Init@nsDOMImplementation@@UAGIPAVnsIURI@@@Z ; 16
??_EnsHTMLHeadingElement@@UAEPAXI@Z ; 16
?SerializeRangeContextStart@nsDocumentEncoder@@IAEIABVnsVoidArray@@AAV?$basic_nsAWritableString@G@@@Z ; 16
?SerializeRangeToString@nsDocumentEncoder@@IAEIPAVnsIDOMRange@@AAV?$basic_nsAWritableString@G@@@Z ; 16
?Output@nsPlainTextSerializer@@IAEXAAVnsString@@@Z ; 16
??0nsDocHeaderData@@QAE@PAVnsIAtom@@ABV?$basic_nsAReadableString@G@@@Z ; 16
??_EnsXBLInsertionPointEntry@@UAEPAXI@Z ; 16
?Remove@nsContentList@@QAEIPAVnsIContent@@@Z ; 16
??1nsHTMLHeadingElement@@UAE@XZ ; 16
??_EnsXBLDocumentInfo@@UAEPAXI@Z ; 16
?DoAddLeaf@nsPlainTextSerializer@@IAEIHABV?$basic_nsAReadableString@G@@@Z ; 16
??1nsXMLDocument@@UAE@XZ ; 16
?Flush@nsPlainTextSerializer@@UAGIAAV?$basic_nsAWritableString@G@@@Z ; 16
?AppendText@nsPlainTextSerializer@@UAGIPAVnsIDOMText@@HHAAV?$basic_nsAWritableString@G@@@Z ; 16
?Init@nsPlainTextSerializer@@UAGIIIPAVnsIAtom@@@Z ; 16
?SetPresShell@nsTypedSelection@@UAGIPAVnsIPresShell@@@Z ; 16
?NS_NewDomSelection@@YAIPAPAVnsISelection@@@Z ; 16
?SetHeaderData@nsDocument@@UAGIPAVnsIAtom@@ABV?$basic_nsAReadableString@G@@@Z ; 16
??0nsXBLInsertionPointEntry@@QAE@PAVnsIContent@@@Z ; 16
??1nsDocumentEncoder@@UAE@XZ ; 16
??0nsHTMLHeadingElement@@QAE@XZ ; 16
?SerializeRangeContextEnd@nsDocumentEncoder@@IAEIABVnsVoidArray@@AAV?$basic_nsAWritableString@G@@@Z ; 16
?OutputQuotesAndIndent@nsPlainTextSerializer@@IAEXXZ ; 16
??0nsDocumentEncoder@@QAE@XZ ; 16
??_EnsXMLDocument@@UAEPAXI@Z ; 16
?SetInsertionIndex@nsXBLInsertionPointEntry@@UAGII@Z ; 16
?Init@nsDocumentEncoder@@UAGIPAVnsIDocument@@ABV?$basic_nsAReadableString@G@@I@Z ; 16
??_EnsPlainTextSerializer@@UAEPAXI@Z ; 16
?SerializeToStringRecursive@nsDocumentEncoder@@IAEIPAVnsIDOMNode@@AAV?$basic_nsAWritableString@G@@@Z ; 16
??1nsPlainTextSerializer@@UAE@XZ ; 16
?NS_NewPlainTextSerializer@@YAIPAPAVnsIContentSerializer@@@Z ; 16
??1nsXBLDocumentInfo@@UAE@XZ ; 16
?SerializeNodeEnd@nsDocumentEncoder@@IAEIPAVnsIDOMNode@@AAV?$basic_nsAWritableString@G@@@Z ; 16
?SetWrapColumn@nsDocumentEncoder@@UAGII@Z ; 16
?SerializeNodeStart@nsDocumentEncoder@@IAEIPAVnsIDOMNode@@HHAAV?$basic_nsAWritableString@G@@@Z ; 16
?NS_NewTextEncoder@@YAIPAPAVnsIDocumentEncoder@@@Z ; 16
?IsInPre@nsPlainTextSerializer@@IAEHXZ ; 16
??0nsTypedSelection@@QAE@XZ ; 16
??1nsDocHeaderData@@QAE@XZ ; 16
?SetHeaderData@nsHTMLDocument@@UAGIPAVnsIAtom@@ABV?$basic_nsAReadableString@G@@@Z ; 16
?BindingDetached@nsXBLPrototypeHandler@@UAGIPAVnsIDOMEventReceiver@@@Z ; 16
?EncodeToString@nsDocumentEncoder@@UAGIAAV?$basic_nsAWritableString@G@@@Z ; 16
?FlushLine@nsPlainTextSerializer@@IAEXXZ ; 16
?BindingAttached@nsXBLPrototypeHandler@@UAGIPAVnsIDOMEventReceiver@@@Z ; 16
?Write@nsPlainTextSerializer@@IAEXABV?$basic_nsAReadableString@G@@@Z ; 16
?ChildAt@nsDocument@@UBGIHAAPAVnsIContent@@@Z ; 15
?GetCookie@nsHTMLDocument@@UAGIAAV?$basic_nsAWritableString@G@@@Z ; 15
?FindNextSmallerFontSize@nsStyleUtil@@SAHHHMPAVnsIPresContext@@W4nsFontSizeType@@@Z ; 15
?StringToAttribute@nsHTMLEmbedElement@@UAGIPAVnsIAtom@@ABV?$basic_nsAReadableString@G@@AAVnsHTMLValue@@@Z ; 15
?IndexOf@nsDocument@@UBGIPAVnsIContent@@AAH@Z ; 15
?GetAttributeMappingFunctions@nsHTMLHRElement@@UBGIAAP6AXPBVnsIHTMLMappedAttributes@@PAVnsIMutableStyleContext@@PAVnsIPresContext@@@Z3@Z ; 15
?Load@nsXBLStreamListener@@UAEIPAVnsIDOMEvent@@@Z ; 14
?ParseBorderRadius@CSSParserImpl@@IAEHAAHPAVnsICSSDeclaration@@0@Z ; 14
?QueryInterface@nsDocumentFragment@@UAGIABUnsID@@PAPAX@Z ; 14
?OnStopRequest@nsXBLStreamListener@@UAGIPAVnsIChannel@@PAVnsISupports@@IPBG@Z ; 14
?StringToAttribute@nsHTMLTableColGroupElement@@UAGIPAVnsIAtom@@ABV?$basic_nsAReadableString@G@@AAVnsHTMLValue@@@Z ; 14
?RemoveLoadingDocListener@nsBindingManager@@UAGIABVnsCString@@@Z ; 14
?GetValue@nsHTMLOptionElement@@UAGIAAV?$basic_nsAWritableString@G@@@Z ; 14
??0nsXBLStreamListener@@QAE@PAVnsIStreamListener@@PAVnsIDocument@@1@Z ; 14
?AddEventListener@nsDocument@@UAGIABV?$basic_nsAReadableString@G@@PAVnsIDOMEventListener@@H@Z ; 14
?InsertChildAt@nsXBLInsertionPoint@@UAGIHPAVnsIContent@@@Z ; 14
??_GnsXBLStreamListener@@UAEPAXI@Z ; 14
?ParseFont@CSSParserImpl@@IAEHAAHPAVnsICSSDeclaration@@0@Z ; 14
?RemoveEventListener@nsDocument@@UAGIABV?$basic_nsAReadableString@G@@PAVnsIDOMEventListener@@H@Z ; 14
?PutLoadingDocListener@nsBindingManager@@UAGIABVnsCString@@PAVnsIStreamListener@@@Z ; 14
??1nsXBLStreamListener@@UAE@XZ ; 14
?OnStartRequest@nsXBLStreamListener@@UAGIPAVnsIChannel@@PAVnsISupports@@@Z ; 14
?NS_NewHTMLLinkElement@@YAIPAPAVnsIHTMLContent@@PAVnsINodeInfo@@@Z ; 13
?OnDataAvailable@nsXBLStreamListener@@UAGIPAVnsIChannel@@PAVnsISupports@@PAVnsIInputStream@@II@Z ; 13
??1nsHTMLLinkElement@@UAE@XZ ; 13
??1CSSNameSpaceRuleImpl@@UAE@XZ ; 13
?ProcessLINKTag@HTMLContentSink@@QAEIABVnsIParserNode@@@Z ; 13
?SetStyleSheet@nsHTMLLinkElement@@UAGIPAVnsIStyleSheet@@@Z ; 13
?ProcessStyleLink@HTMLContentSink@@QAEIPAVnsIHTMLContent@@ABVnsString@@1111@Z ; 13
??0nsHTMLLinkElement@@QAE@XZ ; 13
??_GCSSNameSpaceRuleImpl@@UAEPAXI@Z ; 13
??_EnsHTMLLinkElement@@UAEPAXI@Z ; 13
?selectFrames@nsTypedSelection@@EAGIPAVnsIPresContext@@PAVnsIContentIterator@@PAVnsIContent@@PAVnsIDOMRange@@PAVnsIPresShell@@H@Z ; 13
?DocumentWillBeDestroyed@nsContentList@@UAGIPAVnsIDocument@@@Z ; 12
?GetMappedAttributeImpact@nsHTMLTableColElement@@UBGIPBVnsIAtom@@AAH@Z ; 12
?SkipRuleSet@CSSParserImpl@@IAEXAAH@Z ; 12
?CloseContainer@nsHTMLFragmentContentSink@@UAGIABVnsIParserNode@@@Z ; 12
?NS_NewCSSLoader@@YAIPAPAVnsICSSLoader@@@Z ; 12
?NotifyInsert@HTMLContentSink@@QAEXPAVnsIContent@@0H@Z ; 12
?SetScriptObject@nsContentList@@UAGIPAX@Z ; 12
??0nsContentList@@QAE@PAVnsIDocument@@P6AHPAVnsIContent@@PAVnsString@@@ZPBV3@1@Z ; 12
?AttributeToString@nsHTMLIFrameElement@@UBGIPAVnsIAtom@@ABVnsHTMLValue@@AAV?$basic_nsAWritableString@G@@@Z ; 12
?SelectNode@nsRange@@UAGIPAVnsIDOMNode@@@Z ; 11
?DeleteData@nsXMLCDATASection@@UAGIII@Z ; 11
??0?$basic_nsLiteralString@G@@QAE@PBGI@Z ; 11
?DeleteData@nsGenericDOMDataNode@@QAEIPAVnsIContent@@II@Z ; 11
?ExecuteAttachedHandler@nsXBLBinding@@UAGIXZ ; 11
?BindingAttached@nsXBLPrototypeBinding@@UAGIPAVnsIDOMEventReceiver@@@Z ; 11
?ParseFrameborderValue@nsGenericHTMLElement@@SAHHABV?$basic_nsAReadableString@G@@AAVnsHTMLValue@@@Z ; 11
?QueryInterface@nsXBLBinding@@UAGIABUnsID@@PAPAX@Z ; 11
?OpenContainer@nsHTMLFragmentContentSink@@UAGIABVnsIParserNode@@@Z ; 11
?GetElementsByName@nsHTMLDocument@@UAGIABV?$basic_nsAReadableString@G@@PAPAVnsIDOMNodeList@@@Z ; 11
?GetHref@nsHTMLAreaElement@@UAGIAAV?$basic_nsAWritableString@G@@@Z ; 11
?GetImageAlignAttributeImpact@nsGenericHTMLElement@@SAHPBVnsIAtom@@AAH@Z ; 11
?AddToAttachedQueue@nsBindingManager@@UAGIPAVnsIXBLBinding@@@Z ; 11
??1nsHTMLIFrameElement@@UAE@XZ ; 10
??1nsXBLFocusHandler@@UAE@XZ ; 10
?IsDone@nsSelectionIterator@@UAGIXZ ; 10
?GetImages@nsHTMLDocument@@UAGIPAPAVnsIDOMHTMLCollection@@@Z ; 10
?GetAttributeNameAt@nsGenericHTMLElement@@UBGIHAAHAAPAVnsIAtom@@1@Z ; 10
?QueryInterface@nsXBLXULHandler@@UAGIABUnsID@@PAPAX@Z ; 10
?NS_OpenURI@@YAIPAPAVnsIInputStream@@PAVnsIURI@@PAVnsIIOService@@PAVnsILoadGroup@@PAVnsIInterfaceRequestor@@III@Z ; 10
??0nsHTMLIFrameElement@@QAE@XZ ; 10
?GetAttributeMappingFunctions@nsHTMLIFrameElement@@UBGIAAP6AXPBVnsIHTMLMappedAttributes@@PAVnsIMutableStyleContext@@PAVnsIPresContext@@@Z3@Z ; 10
?GetLocalName@nsTextNode@@UAGIAAV?$basic_nsAWritableString@G@@@Z ; 10
?IndexOf@nsContentList@@QAEIPAVnsIContent@@AAH@Z ; 10
??_EnsXBLFocusHandler@@UAEPAXI@Z ; 10
?NS_NewXBLFocusHandler@@YAIPAVnsIDOMEventReceiver@@PAVnsIXBLPrototypeHandler@@PAPAVnsXBLFocusHandler@@@Z ; 10
?SetInterlinePosition@nsTypedSelection@@UAGIH@Z ; 10
?CopyRangeToAnchorFocus@nsTypedSelection@@UAGIPAVnsIDOMRange@@@Z ; 10
?GetMappedAttributeImpact@nsHTMLAppletElement@@UBGIPBVnsIAtom@@AAH@Z ; 10
?NS_NewHTMLIFrameElement@@YAIPAPAVnsIHTMLContent@@PAVnsINodeInfo@@@Z ; 10
?ParseScrollingValue@nsGenericHTMLElement@@SAHHABV?$basic_nsAReadableString@G@@AAVnsHTMLValue@@@Z ; 10
??0nsXBLFocusHandler@@QAE@PAVnsIDOMEventReceiver@@PAVnsIXBLPrototypeHandler@@@Z ; 10
??_EnsHTMLIFrameElement@@UAEPAXI@Z ; 10
?GetAttributeNameAt@HTMLAttributesImpl@@UBGIHAAPAVnsIAtom@@@Z ; 10
?PopContent@nsHTMLFragmentContentSink@@QAEPAVnsIContent@@XZ ; 9
?FetchEndOffset@nsTypedSelection@@QAEHPAVnsIDOMRange@@@Z ; 9
?ParseColorComponent@CSSParserImpl@@IAEHAAHAAED@Z ; 9
?PushContent@nsHTMLFragmentContentSink@@QAEHPAVnsIContent@@@Z ; 9
?AttachGlobalKeyHandler@nsXBLService@@UAGIPAVnsIDOMEventReceiver@@@Z ; 9
?GetLastChild@nsHTMLLabelElement@@UAGIPAPAVnsIDOMNode@@@Z ; 9
?GetAttributeMappingFunctions@nsHTMLDivElement@@UBGIAAP6AXPBVnsIHTMLMappedAttributes@@PAVnsIMutableStyleContext@@PAVnsIPresContext@@@Z3@Z ; 9
?GetType@nsHTMLTextAreaElement@@UAGIPAH@Z ; 9
?AddAttributes@nsHTMLFragmentContentSink@@QAEIABVnsIParserNode@@PAVnsIContent@@@Z ; 9
?RemoveChild@nsHTMLAnchorElement@@UAGIPAVnsIDOMNode@@PAPAV2@@Z ; 9
?NS_NewXBLWindowKeyHandler@@YAIPAVnsIDOMElement@@PAVnsIDOMEventReceiver@@PAPAVnsXBLWindowKeyHandler@@@Z ; 9
??0nsXBLWindowHandler@@QAE@PAVnsIDOMElement@@PAVnsIDOMEventReceiver@@@Z ; 9
??0nsXBLWindowKeyHandler@@QAE@PAVnsIDOMElement@@PAVnsIDOMEventReceiver@@@Z ; 9
?GetLocation@nsDocument@@UAGIPAJ@Z ; 9
??_EnsStyleCounterData@@QAEPAXI@Z ; 8
?GetId@nsGenericHTMLElement@@QAGIAAV?$basic_nsAWritableString@G@@@Z ; 8
?AllocateCounterResets@nsStyleContent@@QAEII@Z ; 8
??1nsHTMLUListElement@@UAE@XZ ; 8
?NS_NewDOMDocumentType@@YAIPAPAVnsIDOMDocumentType@@ABV?$basic_nsAReadableString@G@@PAVnsIDOMNamedNodeMap@@2111@Z ; 8
??0nsHTMLUListElement@@QAE@XZ ; 8
??0nsDOMDocumentType@@QAE@ABV?$basic_nsAReadableString@G@@PAVnsIDOMNamedNodeMap@@1000@Z ; 8
?HandleDOMEvent@nsHTMLTextAreaElement@@UAGIPAVnsIPresContext@@PAUnsEvent@@PAPAVnsIDOMEvent@@IPAW4nsEventStatus@@@Z ; 8
?QueryInterface@nsDOMDocumentType@@UAGIABUnsID@@PAPAX@Z ; 8
?AppendStructValue@CSSDeclarationImpl@@UAGIW4nsCSSProperty@@PAX@Z ; 8
??_EnsDOMDocumentType@@UAEPAXI@Z ; 8
??0nsCSSContent@@QAE@XZ ; 8
??_EnsHTMLUListElement@@UAEPAXI@Z ; 8
?GetRangeOffset@nsDOMEvent@@UAGIPAH@Z ; 8
?NS_NewHTMLUListElement@@YAIPAPAVnsIHTMLContent@@PAVnsINodeInfo@@@Z ; 8
?GetNodeType@nsDOMDocumentType@@UAGIPAG@Z ; 8
?GetRangeParent@nsDOMEvent@@UAGIPAPAVnsIDOMNode@@@Z ; 8
?GetProperty@nsHTMLImageElement@@UAEHPAUJSContext@@PAUJSObject@@JPAJ@Z ; 8
?NS_NewNodeInfoManager@@YAIPAPAVnsINodeInfoManager@@@Z ; 8
??1nsDOMDocumentType@@UAE@XZ ; 8
?SetNodeValue@nsDOMDocumentType@@UAGIABV?$basic_nsAReadableString@G@@@Z ; 7
?SetFocus@nsGenericElement@@UAGIPAVnsIPresContext@@@Z ; 7
?QueryInterface@nsNodeInfoManager@@UAGIABUnsID@@PAPAX@Z ; 7
?SetFocus@nsHTMLSelectElement@@UAGIPAVnsIPresContext@@@Z ; 7
?ParseBorderColor@CSSParserImpl@@IAEHAAHPAVnsICSSDeclaration@@0@Z ; 7
?CantRenderReplacedElement@StyleSetImpl@@UAGIPAVnsIPresContext@@PAVnsIFrame@@@Z ; 7
?LoadAgentSheet@CSSLoaderImpl@@UAGIPAVnsIURI@@AAPAVnsICSSStyleSheet@@AAHPAVnsICSSLoaderObserver@@@Z ; 7
?ParseBorderStyle@CSSParserImpl@@IAEHAAHPAVnsICSSDeclaration@@0@Z ; 7
?QueryInterface@nsDOMCSSDeclaration@@UAGIABUnsID@@PAPAX@Z ; 7
?GetDocumentElement@nsDocument@@UAGIPAPAVnsIDOMElement@@@Z ; 7
?SetNodeValue@nsGenericDOMDataNode@@QAEIPAVnsIContent@@ABV?$basic_nsAReadableString@G@@@Z ; 7
?GetDocumentElement@nsHTMLDocument@@UAGIPAPAVnsIDOMElement@@@Z ; 7
?EndContext@HTMLContentSink@@UAGIH@Z ; 6
?QueryInterface@nsDOMImplementation@@UAGIABUnsID@@PAPAX@Z ; 6
?GetMappedAttributeImpact@nsHTMLTextAreaElement@@UBGIPBVnsIAtom@@AAH@Z ; 6
??0nsDOMImplementation@@QAE@PAVnsIURI@@@Z ; 6
??_GnsDOMImplementation@@UAEPAXI@Z ; 6
?SelectAll@nsSelection@@UAGIXZ ; 6
?Broadcast@nsXBLXULHandler@@UAGIPAVnsIDOMEvent@@@Z ; 6
?CreateDocumentType@nsDOMImplementation@@UAGIABV?$basic_nsAReadableString@G@@00PAPAVnsIDOMDocumentType@@@Z ; 6
?SetFocus@nsHTMLAnchorElement@@UAGIPAVnsIPresContext@@@Z ; 6
??0nsContentList@@QAE@PAVnsIDocument@@@Z ; 6
??1nsDOMImplementation@@UAE@XZ ; 6
??_EnsHTMLPreElement@@UAEPAXI@Z ; 6
?GetFirstChild@nsDocument@@UAGIPAPAVnsIDOMNode@@@Z ; 6
??1nsXBLWindowHandler@@UAE@XZ ; 6
??0nsHTMLPreElement@@QAE@XZ ; 6
?Release@nsDOMCSSDeclaration@@UAGKXZ ; 6
?GetImplementation@nsDocument@@UAGIPAPAVnsIDOMDOMImplementation@@@Z ; 6
?NS_NewHTMLPreElement@@YAIPAPAVnsIHTMLContent@@PAVnsINodeInfo@@@Z ; 6
?SetDTDMode@nsHTMLDocument@@UAGIW4nsDTDMode@@@Z ; 6
?BeginContext@HTMLContentSink@@UAGIH@Z ; 6
?GetImplementation@nsHTMLDocument@@UAGIPAPAVnsIDOMDOMImplementation@@@Z ; 6
?GetFirstChild@nsHTMLDocument@@UAGIPAPAVnsIDOMNode@@@Z ; 6
?GetDoctype@nsDocument@@UAGIPAPAVnsIDOMDocumentType@@@Z ; 6
?ParseContent@CSSParserImpl@@IAEHAAHPAVnsICSSDeclaration@@0@Z ; 6
?GetDoctype@nsHTMLDocument@@UAGIPAPAVnsIDOMDocumentType@@@Z ; 6
??1nsHTMLPreElement@@UAE@XZ ; 6
??1nsXBLWindowKeyHandler@@UAE@XZ ; 6
??_EnsXBLWindowKeyHandler@@UAEPAXI@Z ; 6
?StringToAttribute@nsHTMLTextAreaElement@@UAGIPAVnsIAtom@@ABV?$basic_nsAReadableString@G@@AAVnsHTMLValue@@@Z ; 6
?InsertBefore@nsHTMLDocument@@UAGIPAVnsIDOMNode@@0PAPAV2@@Z ; 6
?AddDocTypeDecl@HTMLContentSink@@UAGIABVnsIParserNode@@H@Z ; 6
?GetReferrer@nsHTMLDocument@@UAGIAAV?$basic_nsAWritableString@G@@@Z ; 5
?NS_NewAutoScrollTimer@@YAIPAPAVnsAutoScrollTimer@@@Z ; 5
?Next@nsSelectionIterator@@UAGIXZ ; 5
?GetNodeName@nsHTMLDocument@@UAGIAAV?$basic_nsAWritableString@G@@@Z ; 5
??1nsAutoScrollTimer@@UAE@XZ ; 5
?GetMappedAttributeImpact@nsHTMLObjectElement@@UBGIPBVnsIAtom@@AAH@Z ; 5
??0nsHTMLQuoteElement@@QAE@XZ ; 5
?Clone@HTMLAttributesImpl@@UBGIPAPAVnsIHTMLAttributes@@@Z ; 5
??0SheetLoadData@@QAE@PAVCSSLoaderImpl@@PAVnsIURI@@PAVnsICSSLoaderObserver@@@Z ; 5
?ParseBorderWidth@CSSParserImpl@@IAEHAAHPAVnsICSSDeclaration@@0@Z ; 5
??_GnsAutoScrollTimer@@UAEPAXI@Z ; 5
?CopyInnerTo@nsGenericHTMLElement@@QAGIPAVnsIContent@@PAV1@H@Z ; 5
??_GnsHTMLParamElement@@UAEPAXI@Z ; 5
?ParseBackgroundPosition@CSSParserImpl@@IAEHAAHPAVnsICSSDeclaration@@0@Z ; 5
??1nsHTMLQuoteElement@@UAE@XZ ; 5
??1nsHTMLParamElement@@UAE@XZ ; 5
?NS_NewHTMLQuoteElement@@YAIPAPAVnsIHTMLContent@@PAVnsINodeInfo@@@Z ; 5
??0nsClassList@@QAE@ABU0@@Z ; 5
?GetId@nsHTMLAnchorElement@@UAGIAAV?$basic_nsAWritableString@G@@@Z ; 5
??_GnsHTMLQuoteElement@@UAEPAXI@Z ; 5
??0nsAutoScrollTimer@@QAE@XZ ; 5
??0nsHTMLParamElement@@QAE@XZ ; 5
?MapStyleInto@TableTHRule@@UAGIPAVnsIMutableStyleContext@@PAVnsIPresContext@@@Z ; 5
??0HTMLAttributesImpl@@QAE@ABV0@@Z ; 5
?NS_NewHTMLParamElement@@YAIPAPAVnsIHTMLContent@@PAVnsINodeInfo@@@Z ; 5
?GetNodeName@nsDocument@@UAGIAAV?$basic_nsAWritableString@G@@@Z ; 5
?CloneNode@nsHTMLInputElement@@UAGIHPAPAVnsIDOMNode@@@Z ; 4
?CopyInnerTo@nsGenericHTMLLeafElement@@QAGIPAVnsIContent@@PAV1@H@Z ; 4
??0nsHTMLBaseElement@@QAE@XZ ; 4
?ProcessSTYLETag@HTMLContentSink@@QAEIABVnsIParserNode@@@Z ; 4
?GetMappedAttributeImpact@nsHTMLFrameSetElement@@UBGIPBVnsIAtom@@AAH@Z ; 4
?StringToAttribute@nsHTMLFrameElement@@UAGIPAVnsIAtom@@ABV?$basic_nsAReadableString@G@@AAVnsHTMLValue@@@Z ; 4
??1nsHTMLBaseElement@@UAE@XZ ; 4
?StringToAttribute@nsHTMLFrameSetElement@@UAGIPAVnsIAtom@@ABV?$basic_nsAReadableString@G@@AAVnsHTMLValue@@@Z ; 4
?GetScriptObject@nsHTMLOptionCollection@@UAGIPAVnsIScriptContext@@PAPAX@Z ; 4
??1nsHTMLTableColElement@@UAE@XZ ; 4
??_EnsHTMLBaseElement@@UAEPAXI@Z ; 4
?SetProperty@nsDocument@@UAEHPAUJSContext@@PAUJSObject@@JPAJ@Z ; 4
?NS_NewXBLXULHandler@@YAIPAVnsIDOMEventReceiver@@PAVnsIXBLPrototypeHandler@@PAPAVnsXBLXULHandler@@@Z ; 4
??_GnsHTMLTableColElement@@UAEPAXI@Z ; 4
?GetNodeName@nsCommentNode@@UAGIAAV?$basic_nsAWritableString@G@@@Z ; 4
?GetBody@nsHTMLDocument@@UAGIPAPAVnsIDOMHTMLElement@@@Z ; 4
?GetIsMap@nsHTMLImageElement@@UAGIPAH@Z ; 4
?NS_NewHTMLTableColElement@@YAIPAPAVnsIHTMLContent@@PAVnsINodeInfo@@@Z ; 4
??1nsHTMLStyleElement@@UAE@XZ ; 4
??_EnsProxyStream@@UAEPAXI@Z ; 4
??0nsXBLXULHandler@@QAE@PAVnsIDOMEventReceiver@@PAVnsIXBLPrototypeHandler@@@Z ; 4
?NS_NewHTMLStyleElement@@YAIPAPAVnsIHTMLContent@@PAVnsINodeInfo@@@Z ; 4
?Focus@nsHTMLInputElement@@UAGIXZ ; 4
??_EnsXBLXULHandler@@UAEPAXI@Z ; 4
??_EnsHTMLStyleElement@@UAEPAXI@Z ; 4
?Focus@nsXBLFocusHandler@@UAEIPAVnsIDOMEvent@@@Z ; 4
?LoadInlineStyle@CSSLoaderImpl@@UAGIPAVnsIContent@@PAVnsIUnicharInputStream@@ABVnsString@@2HHPAVnsIParser@@AAHPAVnsICSSLoaderObserver@@@Z ; 4
??1nsXBLXULHandler@@UAE@XZ ; 4
?NS_NewHTMLBaseElement@@YAIPAPAVnsIHTMLContent@@PAVnsINodeInfo@@@Z ; 4
??0nsHTMLStyleElement@@QAE@XZ ; 4
?Blur@nsXBLFocusHandler@@UAEIPAVnsIDOMEvent@@@Z ; 4
?GetAttributeMappingFunctions@nsHTMLTableColElement@@UBGIAAP6AXPBVnsIHTMLMappedAttributes@@PAVnsIMutableStyleContext@@PAVnsIPresContext@@@Z3@Z ; 4
?ProcessBASETag@HTMLContentSink@@QAEIABVnsIParserNode@@@Z ; 4
??0nsHTMLTableColElement@@QAE@XZ ; 4
??0nsCSSValue@@QAE@HW4nsCSSUnit@@@Z ; 4
?Normalize@nsXMLProcessingInstruction@@UAGIXZ ; 4
?DemoteContainer@SinkContext@@QAEIABVnsIParserNode@@@Z ; 3
?Release@nsHTMLFragmentContentSink@@UAGKXZ ; 3
?GetTitle@nsHTMLDocument@@UAGIAAV?$basic_nsAWritableString@G@@@Z ; 3
?GetAttributeValueAt@nsHTMLFragmentContentSink@@QAEXABVnsIParserNode@@HAAVnsString@@@Z ; 3
?GetBaseURL@nsDocument@@UBGIAAPAVnsIURI@@@Z ; 3
?ProcessBaseTarget@HTMLContentSink@@QAEXABVnsString@@@Z ; 3
?RemoveChild@nsXBLInsertionPoint@@UAGIPAVnsIContent@@@Z ; 3
?GetNodeType@nsCommentNode@@UAGIPAG@Z ; 3
?SetLength@nsHTMLOptionCollection@@UAGII@Z ; 3
?SetValue@nsHTMLInputElement@@UAGIABV?$basic_nsAReadableString@G@@@Z ; 3
??0nsCSSTable@@QAE@XZ ; 3
?SetLength@nsHTMLSelectElement@@UAGII@Z ; 3
??_GXMLElementFactoryImpl@@MAEPAXI@Z ; 2
?AttributeToString@nsHTMLFrameElement@@UBGIPAVnsIAtom@@ABVnsHTMLValue@@AAV?$basic_nsAWritableString@G@@@Z ; 2
?GetAttributeMappingFunctions@nsHTMLTableColGroupElement@@UBGIAAP6AXPBVnsIHTMLMappedAttributes@@PAVnsIMutableStyleContext@@PAVnsIPresContext@@@Z3@Z ; 2
?SetCookie@nsHTMLDocument@@UAGIABV?$basic_nsAReadableString@G@@@Z ; 2
?GetElementById@nsHTMLDocument@@UAGIABV?$basic_nsAReadableString@G@@PAPAVnsIDOMElement@@@Z ; 2
?AppendOverrideStyleSheet@StyleSetImpl@@UAEXPAVnsIStyleSheet@@@Z ; 2
??1nsCSSTable@@UAE@XZ ; 2
?ValueOrPercentToString@nsGenericHTMLElement@@SAHABVnsHTMLValue@@AAV?$basic_nsAWritableString@G@@@Z ; 2
?GetTarget@nsHTMLAnchorElement@@UAGIAAV?$basic_nsAWritableString@G@@@Z ; 2
??0nsHTMLTextAreaElement@@QAE@XZ ; 2
??1XMLElementFactoryImpl@@MAE@XZ ; 2
?GetElementsByTagName@nsHTMLDocument@@UAGIABV?$basic_nsAReadableString@G@@PAPAVnsIDOMNodeList@@@Z ; 2
?ParseEscape@nsCSSScanner@@IAEHAAH@Z ; 2
?AppendChild@nsHTMLMapElement@@UAGIPAVnsIDOMNode@@PAPAV2@@Z ; 2
?GetScriptObject@nsDocumentFragment@@UAGIPAVnsIScriptContext@@PAPAX@Z ; 2
?ParseCounterData@CSSParserImpl@@IAEHAAHPAVnsICSSDeclaration@@W4nsCSSProperty@@0@Z ; 2
?ParseOutline@CSSParserImpl@@IAEHAAHPAVnsICSSDeclaration@@0@Z ; 2
?ReplaceElementAt@nsCheapVoidArray@@QAEHPAXH@Z ; 2
??1nsHTMLTextAreaElement@@UAE@XZ ; 2
?GetBodyContent@nsHTMLDocument@@IAEHXZ ; 2
?ReplaceChildAt@nsHTMLSelectElement@@UAGIPAVnsIContent@@HH@Z ; 2
?ContentReplaced@nsDocument@@UAGIPAVnsIContent@@00H@Z ; 2
??1nsHTMLTableColGroupElement@@UAE@XZ ; 2
?GetSrc@nsHTMLImageElement@@UAGIAAV?$basic_nsAWritableString@G@@@Z ; 2
?GetControllers@nsHTMLTextAreaElement@@UAGIPAPAVnsIControllers@@@Z ; 2
?ReplaceChildAt@nsGenericHTMLContainerElement@@UAGIPAVnsIContent@@HH@Z ; 2
?GetElementsByTagName@nsDocument@@UAGIABV?$basic_nsAReadableString@G@@PAPAVnsIDOMNodeList@@@Z ; 2
?OwnerChildReplaced@nsRange@@SGIPAVnsIContent@@H0@Z ; 2
?ContentReplaced@StyleSetImpl@@UAGIPAVnsIPresContext@@PAVnsIContent@@11H@Z ; 2
?QueryInterface@nsHTMLFragmentContentSink@@UAGIABUnsID@@PAPAX@Z ; 2
?GetAnonymousNodes@nsDocument@@UAGIPAVnsIDOMElement@@PAPAVnsIDOMNodeList@@@Z ; 2
??_GnsHTMLTableColGroupElement@@UAEPAXI@Z ; 2
?QueryInterface@XMLElementFactoryImpl@@UAGIABUnsID@@PAPAX@Z ; 2
?NS_NewXMLElementFactory@@YAIPAPAVnsIElementFactory@@@Z ; 2
?SetStyleSheetDisabledState@nsDocument@@UAEXPAVnsIStyleSheet@@H@Z ; 2
?Release@nsDOMAttributeMap@@UAGKXZ ; 2
?ContentReplaced@nsHTMLDocument@@UAGIPAVnsIContent@@00H@Z ; 2
?ParseBorderSpacing@CSSParserImpl@@IAEHAAHPAVnsICSSDeclaration@@0@Z ; 2
?GetType@HTMLCSSStyleSheetImpl@@UBGIAAVnsString@@@Z ; 2
?SetBaseTarget@nsHTMLDocument@@UAGIABV?$basic_nsAReadableString@G@@@Z ; 2
??0nsCSSQuotes@@QAE@XZ ; 2
?NS_NewHTMLTableColGroupElement@@YAIPAPAVnsIHTMLContent@@PAVnsINodeInfo@@@Z ; 2
?Notify@HTMLContentSink@@UAGXPAVnsITimer@@@Z ; 2
?GetMappedAttributeImpact@nsHTMLTableColGroupElement@@UBGIPBVnsIAtom@@AAH@Z ; 2
?ParseClip@CSSParserImpl@@IAEHAAHPAVnsICSSDeclaration@@0@Z ; 2
?GetAction@nsHTMLFormElement@@UAGIAAV?$basic_nsAWritableString@G@@@Z ; 2
?DivAlignValueToString@nsGenericHTMLElement@@QBEHABVnsHTMLValue@@AAV?$basic_nsAWritableString@G@@@Z ; 2
??_GnsHTMLTextAreaElement@@UAEPAXI@Z ; 2
??0nsHTMLTableColGroupElement@@QAE@XZ ; 2
?ReplaceChild@nsHTMLLabelElement@@UAGIPAVnsIDOMNode@@0PAPAV2@@Z ; 2
??0XMLElementFactoryImpl@@IAE@XZ ; 2
?doReplaceChild@nsGenericElement@@QAEIPAVnsIDOMNode@@0PAPAV2@@Z ; 2
?QueryInterface@nsHTMLBaseFontElement@@UAGIABUnsID@@PAPAX@Z ; 2
??_GnsCSSTable@@UAEPAXI@Z ; 2
?AddDocTypeDecl@nsXMLContentSink@@UAGIABVnsIParserNode@@H@Z ; 2
?GetAttributeMappingFunctions@nsHTMLTextAreaElement@@UBGIAAP6AXPBVnsIHTMLMappedAttributes@@PAVnsIMutableStyleContext@@PAVnsIPresContext@@@Z3@Z ; 1
?SetUserAgent@nsContentModule@@IAEXXZ ; 1
?NS_NewHTMLTextAreaElement@@YAIPAPAVnsIHTMLContent@@PAVnsINodeInfo@@@Z ; 1
?Init@nsHTMLFragmentContentSink@@QAEIXZ ; 1
_NSGetModule ; 1
?DidBuildModel@nsHTMLFragmentContentSink@@UAGIH@Z ; 1
?CloseFrameset@HTMLContentSink@@UAGIABVnsIParserNode@@@Z ; 1
??_EnsHTMLFrameSetElement@@UAEPAXI@Z ; 1
??_EnsHTMLEmbedElement@@UAEPAXI@Z ; 1
??_EnsContentPolicy@@UAEPAXI@Z ; 1
??0nsContentPolicy@@QAE@XZ ; 1
?SetScriptObject@nsRange@@UAGIPAX@Z ; 1
??1nsHTMLFrameElement@@UAE@XZ ; 1
?NS_NewHTMLEmbedElement@@YAIPAPAVnsIHTMLContent@@PAVnsINodeInfo@@@Z ; 1
?NS_NewHTMLBaseFontElement@@YAIPAPAVnsIHTMLContent@@PAVnsINodeInfo@@@Z ; 1
??_GnsHTMLDListElement@@UAEPAXI@Z ; 1
?GetAttributes@nsGenericElement@@UAGIPAPAVnsIDOMNamedNodeMap@@@Z ; 1
?SetProperty@nsDOMCSSDeclaration@@UAGIABV?$basic_nsAReadableString@G@@00@Z ; 1
??0ContentScriptNameSet@@QAE@XZ ; 1
?SetDefaultValue@nsHTMLTextAreaElement@@UAGIABV?$basic_nsAReadableString@G@@@Z ; 1
??0nsHTMLValue@@QAE@PAVnsISupports@@@Z ; 1
??0nsHTMLBaseFontElement@@QAE@XZ ; 1
?ParseAndAppendDeclaration@CSSParserImpl@@UAGIABV?$basic_nsAReadableString@G@@PAVnsIURI@@PAVnsICSSDeclaration@@HPAH@Z ; 1
?QueryInterface@nsDOMAttributeMap@@UAGIABUnsID@@PAPAX@Z ; 1
?GetAttributeNode@nsGenericElement@@UAGIABV?$basic_nsAReadableString@G@@PAPAVnsIDOMAttr@@@Z ; 1
??1nsXBLService@@UAE@XZ ; 1
?NS_NewHTMLFragmentContentSink@@YAIPAPAVnsIHTMLFragmentContentSink@@@Z ; 1
?GetId@nsHTMLInputElement@@UAGIAAV?$basic_nsAWritableString@G@@@Z ; 1
?SetEnableRendering@DocumentViewerImpl@@UAGIH@Z ; 1
?SetClassName@nsHTMLAnchorElement@@UAGIABV?$basic_nsAReadableString@G@@@Z ; 1
?NS_NewContentPolicy@@YAIPAPAVnsIContentPolicy@@@Z ; 1
?GetScriptObject@nsDOMCSSDeclaration@@UAGIPAVnsIScriptContext@@PAPAX@Z ; 1
?Close@nsHTMLDocument@@UAGIXZ ; 1
?GetId@nsHTMLButtonElement@@UAGIAAV?$basic_nsAWritableString@G@@@Z ; 1
?AddRefTable@nsCSSKeywords@@SAXXZ ; 1
??0nsDOMCSSDeclaration@@QAE@XZ ; 1
?ComparePoint@nsRange@@UAGIPAVnsIDOMNode@@HPAF@Z ; 1
?SizeToContent@DocumentViewerImpl@@UAGIXZ ; 1
?SetPreferredSheet@CSSLoaderImpl@@UAGIABVnsString@@@Z ; 1
?ParseAttr@CSSParserImpl@@IAEHAAHAAVnsCSSValue@@@Z ; 1
?GetStyle@nsHTMLHeadElement@@UAGIPAPAVnsIDOMCSSStyleDeclaration@@@Z ; 1
?GetPresState@nsHTMLSelectElement@@IAEIPAPAVnsIPresState@@PAPAVnsISupportsArray@@@Z ; 1
?AttributeToString@nsHTMLBRElement@@UBGIPAVnsIAtom@@ABVnsHTMLValue@@AAV?$basic_nsAWritableString@G@@@Z ; 1
?CreateRange@nsDocument@@UAGIPAPAVnsIDOMRange@@@Z ; 1
??0nsXBLService@@QAE@XZ ; 1
?GetFileSpec@nsDocument@@UAGIPAPAVnsIFile@@@Z ; 1
??0nsHTMLFrameElement@@QAE@XZ ; 1
?NS_NewDocumentFragment@@YAIPAPAVnsIDOMDocumentFragment@@PAVnsIDocument@@@Z ; 1
??1nsHTMLDListElement@@UAE@XZ ; 1
?InitAccessKeys@nsXBLPrototypeHandler@@KAXXZ ; 1
?LoadBindingDocument@nsBindingManager@@UAGIPAVnsIDocument@@ABV?$basic_nsAReadableString@G@@PAPAV2@@Z ; 1
??0nsHTMLEmbedElement@@QAE@XZ ; 1
??1nsDOMCSSAttributeDeclaration@@UAE@XZ ; 1
?RegisterAccessKey@nsEventStateManager@@UAGIPAVnsIFrame@@PAVnsIContent@@I@Z ; 1
?SetParser@nsHTMLFragmentContentSink@@UAGIPAVnsIParser@@@Z ; 1
??_GnsHTMLFrameElement@@UAEPAXI@Z ; 1
?CreateContextualFragment@nsRange@@UAGIABV?$basic_nsAReadableString@G@@PAPAVnsIDOMDocumentFragment@@@Z ; 1
??_EnsDocumentFragment@@UAEPAXI@Z ; 1
?GetScriptObject@nsRange@@UAGIPAVnsIScriptContext@@PAPAX@Z ; 1
?NS_NewXBLService@@YAIPAPAVnsIXBLService@@@Z ; 1
?DropReference@nsDOMAttributeMap@@QAEXXZ ; 1
?FlushMemory@nsXBLService@@QAEIXZ ; 1
?GetType@nsHTMLSelectElement@@UAGIPAH@Z ; 1
?OpenFrameset@HTMLContentSink@@UAGIABVnsIParserNode@@@Z ; 1
??0nsDOMEvent@@IAE@XZ ; 1
?GetAttributeMappingFunctions@nsHTMLEmbedElement@@UBGIAAP6AXPBVnsIHTMLMappedAttributes@@PAVnsIMutableStyleContext@@PAVnsIPresContext@@@Z3@Z ; 1
??1nsTextContentChangeData@@MAE@XZ ; 1
?IsPointInRange@nsRange@@UAGIPAVnsIDOMNode@@HPAH@Z ; 1
??1nsHTMLFrameSetElement@@UAE@XZ ; 1
?NS_NewHTMLFrameElement@@YAIPAPAVnsIHTMLContent@@PAVnsINodeInfo@@@Z ; 1
?AddRefAtoms@nsCSSAtoms@@SAXXZ ; 1
??0CSSDeclarationImpl@@QAE@ABV0@@Z ; 1
??0nsDOMCSSAttributeDeclaration@@QAE@PAVnsIHTMLContent@@@Z ; 1
?GetNamedItem@nsDOMAttributeMap@@UAGIABV?$basic_nsAReadableString@G@@PAPAVnsIDOMNode@@@Z ; 1
?CopyInnerTo@nsGenericHTMLContainerElement@@QAGIPAVnsIContent@@PAV1@H@Z ; 1
?Clone@CSSDeclarationImpl@@UBGIAAPAVnsICSSDeclaration@@@Z ; 1
??1nsDOMAttributeMap@@UAE@XZ ; 1
?GetAttributes@nsHTMLInputElement@@UAGIPAPAVnsIDOMNamedNodeMap@@@Z ; 1
??0nsTextContentChangeData@@IAE@XZ ; 1
?GetValue@nsHTMLTextAreaElement@@UAGIAAV?$basic_nsAWritableString@G@@@Z ; 1
?QueryInterface@nsContentModule@@UAGIABUnsID@@PAPAX@Z ; 1
?CloseNoscript@nsPlainTextSerializer@@UAGIABVnsIParserNode@@@Z ; 1
?WillBuildModel@nsHTMLFragmentContentSink@@UAGIXZ ; 1
?SetClassName@nsGenericHTMLElement@@QAGIABV?$basic_nsAReadableString@G@@@Z ; 1
??_GnsTextContentChangeData@@MAEPAXI@Z ; 1
?OpenBody@nsHTMLFragmentContentSink@@UAGIABVnsIParserNode@@@Z ; 1
??0nsHTMLFrameSetElement@@QAE@XZ ; 1
?NS_NewTextContentChangeData@@YAIPAPAVnsTextContentChangeData@@@Z ; 1
?GetPrimaryPresState@nsGenericHTMLElement@@SAIPAVnsIHTMLContent@@W4StateType@nsIStatefulFrame@@PAPAVnsIPresState@@@Z ; 1
??_EnsHTMLBaseFontElement@@UAEPAXI@Z ; 1
?AddRefAtoms@nsLayoutAtoms@@SAXXZ ; 1
?GetLastModified@nsHTMLDocument@@UAGIAAV?$basic_nsAWritableString@G@@@Z ; 1
?GetCSSDeclaration@nsDOMCSSAttributeDeclaration@@UAEIPAPAVnsICSSDeclaration@@H@Z ; 1
?Initialize@nsContentModule@@QAEIXZ ; 1
?NS_NewHTMLObjectElement@@YAIPAPAVnsIHTMLContent@@PAVnsINodeInfo@@@Z ; 1
??_EnsDOMAttributeMap@@UAEPAXI@Z ; 1
??1nsContentPolicy@@UAE@XZ ; 1
?SetBaseURL@nsHTMLDocument@@UAGIABV?$basic_nsAReadableString@G@@@Z ; 1
?GetAttributeMappingFunctions@nsHTMLObjectElement@@UBGIAAP6AXPBVnsIHTMLMappedAttributes@@PAVnsIMutableStyleContext@@PAVnsIPresContext@@@Z3@Z ; 1
?StringToAttribute@nsHTMLPreElement@@UAGIPAVnsIAtom@@ABV?$basic_nsAReadableString@G@@AAVnsHTMLValue@@@Z ; 1
??1nsHTMLBaseFontElement@@UAE@XZ ; 1
?AddRefAtoms@nsHTMLAtoms@@SAXXZ ; 1
?do_AssignFromReadable@?$basic_nsAWritableString@G@@MAEXABV?$basic_nsAReadableString@G@@@Z ; 1
??0nsHTMLFragmentContentSink@@QAE@XZ ; 1
?ProcessBaseHref@HTMLContentSink@@QAEXABVnsString@@@Z ; 1
?GetAttributeMappingFunctions@nsHTMLPreElement@@UBGIAAP6AXPBVnsIHTMLMappedAttributes@@PAVnsIMutableStyleContext@@PAVnsIPresContext@@@Z3@Z ; 1
??0nsContentModule@@QAE@XZ ; 1
?GetNodeType@nsDocumentFragment@@UAGIPAG@Z ; 1
??1nsHTMLFragmentContentSink@@UAE@XZ ; 1
?UnregisterAccessKey@nsEventStateManager@@UAGIPAVnsIFrame@@PAVnsIContent@@I@Z ; 1
?GetScriptObject@nsDocument@@UAGIPAVnsIScriptContext@@PAPAX@Z ; 1
?GetMappedAttributeImpact@nsHTMLPreElement@@UBGIPBVnsIAtom@@AAH@Z ; 1
??_GnsHTMLObjectElement@@UAEPAXI@Z ; 1
??1nsDOMCSSDeclaration@@MAE@XZ ; 1
?NS_NewHTMLDListElement@@YAIPAPAVnsIHTMLContent@@PAVnsINodeInfo@@@Z ; 1
??1nsHTMLEmbedElement@@UAE@XZ ; 1
??1nsDocumentFragment@@UAE@XZ ; 1
?GetId@nsHTMLAreaElement@@UAGIAAV?$basic_nsAWritableString@G@@@Z ; 1
?GetParent@nsDOMCSSAttributeDeclaration@@UAEIPAPAVnsISupports@@@Z ; 1
?AddRefTable@nsCSSProps@@SAXXZ ; 1
??0nsHTMLObjectElement@@QAE@XZ ; 1
??0nsDOMAttributeMap@@QAE@PAVnsIContent@@@Z ; 1
??1nsHTMLObjectElement@@UAE@XZ ; 1
?GetStyle@nsGenericHTMLElement@@QAGIPAPAVnsIDOMCSSStyleDeclaration@@@Z ; 1
?CloneNode@nsHTMLTextAreaElement@@UAGIHPAPAVnsIDOMNode@@@Z ; 1
?ParseDeclaration@nsDOMCSSAttributeDeclaration@@UAEIABV?$basic_nsAReadableString@G@@HH@Z ; 1
??0nsHTMLDListElement@@QAE@XZ ; 1
?GetMappedAttributeImpact@nsHTMLBaseFontElement@@UBGIPBVnsIAtom@@AAH@Z ; 1
??_EnsXBLService@@UAEPAXI@Z ; 1
??0nsXBLSpecialDocInfo@@QAE@XZ ; 1
?GetDefaultValue@nsHTMLTextAreaElement@@UAGIAAV?$basic_nsAWritableString@G@@@Z ; 1
?NS_NewHTMLFrameSetElement@@YAIPAPAVnsIHTMLContent@@PAVnsINodeInfo@@@Z ; 1
??_EnsDOMCSSAttributeDeclaration@@UAEPAXI@Z ; 1
?GetFragment@nsHTMLFragmentContentSink@@UAGIPAPAVnsIDOMDocumentFragment@@@Z ; 1
?SetPosition@nsDOMCSSDeclaration@@UAGIABV?$basic_nsAReadableString@G@@@Z ; 1
??0nsDocumentFragment@@QAE@PAVnsIDocument@@@Z ; 1
?GetAttributeNode@nsXMLElement@@UAGIABV?$basic_nsAReadableString@G@@PAPAVnsIDOMAttr@@@Z ; 1
??_GnsHTMLFragmentContentSink@@UAEPAXI@Z ; 1
